(lp0
(lp1
(lp2
F-3.7218536194651655e-10
aF2.1145108405540976e-11
aF-3.0297801687385333e-12
aF1.75150592144234e-13
aF-7.464108535598646e-14
aF3.5842916493560247e-16
aF-1.7355200712449338e-15
aF2.7652692502567944e-31
aF-1.9445852923049002e-10
aF-3.5211852694205365e-13
aF-3.2514108196637293e-12
aF3.2922721708097943e-15
aF2.4292730070768302e-14
aF-2.9140750615567262e-18
aF4.136554509269663e-17
aF-1.834932611037065e-11
aF1.4807116430317408e-14
aF8.952240151595548e-14
aF2.2039505607304306e-16
aF6.726433636577699e-16
aF6.177698156169432e-32
aF-1.629486237655659e-12
aF-3.1400707541871215e-15
aF-1.3583792193031895e-14
aF-5.257562151372788e-19
aF1.2285356277547381e-17
aF4.2104051353858195e-14
aF6.89947830987133e-17
aF3.699753893381855e-17
aF-3.4230047498053123e-32
aF5.538636980537491e-16
aF-3.3336300420068915e-18
aF7.167633688911927e-19
aF3.737105183543699e-18
aF5.237533306636815e-34
aF7.649900107094393e-20
aa(lp3
F-6962536.2366795195
aF-407696.67334975844
aF247536.37224816476
aF4414.210615192708
aF-4049.2429074542947
aF-10.6994746006379
aF19.64278351371726
aF-3.799631096365571e-15
aF-2116188.427937584
aF-53591.041810676645
aF52103.51953828852
aF244.11225098628893
aF-505.7808873496835
aF0.050681175777886445
aF0.8165482325955501
aF-268398.39209628396
aF-1826.8708069805994
aF4342.972489632252
aF-2.609734920309674
aF-21.023332667606773
aF4.066679678941284e-15
aF-18659.437346003862
aF33.59516571164479
aF180.4512482958844
aF-0.2129218556495103
aF-0.2913125002712333
aF-774.6537948297957
aF2.9737687328192792
aF3.7501517723986804
aF-7.254161957517766e-16
aF-19.30033676994275
aF0.0436421335027173
aF0.031178674851034056
aF-0.2675815207489826
aF5.176003015767181e-17
aF-0.0015890475406853599
aI7
aa(lp4
F71.9333714507948
aF2.2753559769471092
aa(lp5
(lp6
F71.80963194059271
aF71.95174048774473
aa(lp7
F2.275328564032921
aF2.2753833898612976
aaaa(lp8
(lp9
F-2.4173153886472174e-10
aF-8.786308031699215e-13
aF-6.349194514091686e-12
aF-2.2692468783748299e-13
aF2.1234180695246535e-13
aF-4.657976622818505e-16
aF-1.7148406210477964e-15
aF3.4608639952939114e-31
aF2.3937247750572444e-11
aF-1.777619516301369e-12
aF-3.4796936746218163e-12
aF1.3484037822219317e-14
aF2.3118320680456166e-14
aF1.3736582748764477e-19
aF2.7361688141327246e-17
aF6.7205405076342646e-12
aF3.726178006741524e-17
aF9.857161763942728e-14
aF-8.359929776627473e-17
aF1.0212699768537714e-15
aF3.401413148348684e-31
aF1.5729548131555275e-12
aF-1.0299115670827976e-15
aF-8.612482364694702e-15
aF3.628396472737512e-18
aF5.85188891536546e-18
aF-4.938161613801804e-14
aF-3.574212611734039e-17
aF-1.1836139827129858e-16
aF-8.429197575524183e-33
aF9.308630891661866e-16
aF-1.8145977180585157e-18
aF-9.336971777129847e-19
aF2.1215115355023767e-17
aF-3.507270958223975e-33
aF-1.022438834718392e-19
aa(lp10
F-6960073.257592192
aF-407577.7751099411
aF247472.94813257497
aF4413.349185062986
aF-4048.5968764744507
aF-10.698417967611395
aF19.64154351953689
aF-5.309279845142456e-15
aF-2115582.5291131833
aF-53579.20170854227
aF52093.64865993266
aF244.08297947516516
aF-505.73385559166155
aF0.05067611108291238
aF0.816551011094155
aF-268339.51287591376
aF-1826.6177855125707
aF4342.438969274025
aF-2.609396196873712
aF-21.022776386935014
aF5.682639088372547e-15
aF-18656.588120968514
aF33.589801734510836
aF180.44108617426303
aF-0.21291912841878868
aF-0.2913241738135874
aF-774.58705940395
aF2.973630094673331
aF3.7501900548656826
aF-1.0137089508239175e-15
aF-19.29995770464672
aF0.0436432724666839
aF0.031181067598378038
aF-0.26759406443296907
aF7.233300028383988e-17
aF-0.001589227762924287
aI7
aa(lp11
F71.93205261130664
aF2.275410802775486
aa(lp12
g6
a(lp13
F2.2753833898612976
aF2.2754382156896744
aaaa(lp14
(lp15
F-1.365922939734666e-10
aF-2.3131455290133828e-11
aF-1.3736532640487159e-11
aF1.8148367728173226e-13
aF-1.0460469438969388e-13
aF6.387394638117163e-18
aF8.215233912493064e-16
aF3.612289635543639e-31
aF3.804316347051928e-11
aF2.8008686208328264e-12
aF-2.114525047852927e-12
aF1.3273686404765817e-14
aF-1.6622780000851286e-14
aF1.957786177597292e-18
aF3.7908443649168575e-17
aF-1.4750740907062438e-11
aF-6.256703454819571e-14
aF2.2400210725172638e-13
aF-1.9519087704128556e-16
aF1.614826419853829e-15
aF3.6012324491800356e-31
aF-1.1899850727852765e-12
aF-2.7760262132213862e-15
aF-1.247058570670685e-14
aF4.839783327636679e-18
aF-1.1610385135084725e-17
aF2.947682148606994e-14
aF-1.4621616191092883e-16
aF2.2198715903988592e-16
aF-1.6460731076406708e-33
aF-1.6006849329662408e-15
aF3.4130231234747004e-18
aF-1.0110096099857885e-18
aF2.418284732091361e-17
aF3.786962474244499e-33
aF-9.176788718118086e-20
aa(lp16
F-6957611.248380564
aF-407458.91636023176
aF247409.54280896918
aF4412.48795799846
aF-4047.950974370859
aF-10.697361482014385
aF19.6403036523353
aF-4.864989273096957e-15
aF-2114976.827740167
aF-53567.364693034426
aF52083.780039026
aF244.05371260365567
aF-505.68682999901387
aF0.0506710468746267
aF0.816553789315097
aF-268280.64885271544
aF-1826.3648079802795
aF4341.905534461109
aF-2.609057519180497
aF-21.022220135958808
aF5.207296041268783e-15
aF-18653.739436761083
aF33.58443867240264
aF180.43092494540736
aF-0.2129164012010583
aF-0.29133584720641914
aF-774.5203319263667
aF2.9734914659185114
aF3.7502283337675073
aF-9.289479907442179e-16
aF-19.299578646965767
aF0.0436444113775631
aF0.031183460408165206
aF-0.2676066079497585
aF6.628732936777367e-17
aF-0.0015894079966175844
aI7
aa(lp17
F71.93073385955866
aF2.275465628603863
aa(lp18
g6
a(lp19
F2.2754382156896744
aF2.2754930415180508
aaaa(lp20
(lp21
F-1.9530665505787843e-10
aF3.788142054539776e-12
aF-1.1314413428466632e-11
aF-2.8218642631198054e-13
aF-1.4703670549108902e-13
aF-5.546884530537384e-16
aF5.009339541978509e-16
aF1.6231756880218463e-32
aF4.7268654817913457e-11
aF-3.6151282919904566e-12
aF-1.73670890887614e-12
aF-1.3288296330014813e-14
aF1.5356910209569947e-14
aF2.4712467517085644e-18
aF-4.143911409706232e-17
aF1.8151296281682107e-11
aF-4.8519617316833447e-14
aF-3.173178155315843e-13
aF9.007842020808457e-17
aF-5.923488789303374e-16
aF-6.300877568420009e-32
aF-1.2143551342541722e-13
aF-1.4861590394630702e-15
aF-3.075846923827076e-15
aF4.6103058853536076e-18
aF-1.0281935443626855e-17
aF-1.9321539239584634e-14
aF2.3792204592580257e-17
aF-5.880159030307916e-17
aF8.776554092864823e-33
aF2.0738580178467838e-17
aF-1.3929950406018303e-18
aF4.65643083428491e-19
aF-1.1028152975204998e-17
aF-1.9338573628567485e-33
aF-8.502862734163843e-20
aa(lp22
F-6955150.208623631
aF-407340.09708590125
aF247346.15627102007
aF4411.6269339428945
aF-4047.3052011125937
aF-10.696305143819881
aF19.639063912094343
aF-2.869622203280927e-15
aF-2114371.3237463012
aF-53555.530763223534
aF52073.913674962314
aF244.0244503708342
aF-505.63981057068884
aF0.05066598315298897
aF0.8165565672584031
aF-268221.8000221686
aF-1826.1118743744576
aF4341.372185176471
aF-2.6087188872228353
aF-21.021663914675575
aF3.0716450534240052e-15
aF-18650.891293258228
aF33.57907652514042
aF180.4207646092073
aF-0.21291367399633293
aF-0.2913475204497291
aF-774.4536123958156
aF2.9733528465539902
aF3.7502666091044454
aF-5.47981735681491e-16
aF-19.299199596900223
aF0.043645550235358085
aF0.03118585328039261
aF-0.267619151299343
aF3.910399507987015e-17
aF-0.0015895882417653142
aI7
aa(lp23
F71.92941519554128
aF2.2755204544322387
aa(lp24
g6
a(lp25
F2.2754930415180508
aF2.275547867346427
aaaa(lp26
(lp27
F7.7611085188857e-11
aF1.4421478550673245e-11
aF3.1389484122584988e-12
aF-3.2445155647764035e-13
aF5.23213534387683e-14
aF6.573750209172156e-16
aF-6.961220197026801e-16
aF3.029815015861751e-31
aF7.198450866044509e-11
aF9.348008250212511e-13
aF2.006089079108227e-12
aF6.105366606667088e-15
aF-1.2005131270479648e-14
aF-2.096750025914806e-18
aF2.856575503132176e-17
aF2.6736126558645706e-11
aF1.1050243753352248e-13
aF7.675344684717906e-14
aF9.943796033188711e-17
aF1.4779768785144084e-16
aF-2.0635455717865593e-31
aF-8.841683318600595e-13
aF3.544690074117963e-15
aF4.108683244351838e-15
aF1.3553165830736631e-17
aF2.7100317258765565e-17
aF-1.3240296039140335e-14
aF1.0325005162618634e-16
aF1.2943363728956928e-16
aF5.696384793738208e-32
aF4.001784812699175e-17
aF1.7533854769069174e-18
aF-1.528382600177238e-18
aF-1.993809727907384e-17
aF-6.743443471690181e-34
aF9.064340637979372e-20
aa(lp28
F-6952690.137900448
aF-407221.3172722328
aF247282.78851239927
aF4410.76611284033
aF-4046.6595566687038
aF-10.695248953003782
aF19.637824298795795
aF5.0035874539951105e-15
aF-2113766.01705935
aF-53543.69991818291
aF52064.04956713504
aF243.99519277582345
aF-505.5927973056326
aF0.050660919917715014
aF0.8165593449240997
aF-268162.9663797512
aF-1825.8589846861507
aF4340.838921403057
aF-2.6083803009903805
aF-21.02110772308272
aF-5.3560389008443355e-15
aF-18648.04369033649
aF33.573715292526245
aF180.41060516555248
aF-0.21291094680453942
aF-0.2913591935435184
aF-774.3869008110646
aF2.973214236578372
aF3.7503048808767887
aF9.555528232199533e-16
aF-19.2988205544504
aF0.043646689040062754
aF0.031188246215057426
aF-0.26763169448171553
aF-6.81907816479588e-17
aF-0.0015897684983675478
aI7
aa(lp29
F71.92809661924491
aF2.2755752802606155
aa(lp30
g6
a(lp31
F2.275547867346427
aF2.275602693174804
aaaa(lp32
(lp33
F-2.6832277617448807e-10
aF-9.88818591402903e-12
aF4.439307933926714e-12
aF-4.2206536744307035e-14
aF-1.8783782717410915e-13
aF-3.2536381852544e-16
aF1.2671138615398023e-15
aF-2.5348043804536433e-31
aF-1.954676741396196e-10
aF-4.0367427133231446e-13
aF2.3318140937967016e-14
aF5.397422140108348e-15
aF-3.109434851439464e-15
aF2.772593921791132e-18
aF1.5734401648041813e-17
aF-2.3583716449264396e-11
aF-6.16683819922187e-14
aF-2.26128887245548e-13
aF-1.8505207163520735e-16
aF4.0622948795311454e-16
aF-2.4146798466565757e-31
aF7.475802750901144e-13
aF-6.677975586052697e-16
aF5.499898676872814e-15
aF-5.788397076612828e-18
aF1.8636994107779724e-17
aF5.201612370959109e-15
aF-6.072016139931822e-17
aF-1.2617431037786997e-16
aF-1.215408027129479e-32
aF-2.663916553144689e-16
aF1.9969539037379603e-18
aF1.8980426356385618e-19
aF-2.412607323145645e-17
aF-2.5322042753669493e-33
aF6.193257279424771e-20
aa(lp34
F-6950231.035790468
aF-407102.5769044731
aF247219.4395267852
aF4409.905494633674
aF-4046.014041008283
aF-10.694192909530456
aF19.6365848124215
aF4.377515424207147e-15
aF-2113160.9076071465
aF-53531.87215697443
aF52054.1877149384
aF243.96593981754913
aF-505.54579020279385
aF0.050655857169483884
aF0.8165621223122136
aF-268104.1479209461
aF-1825.6061389051374
aF4340.30574312384
aF-2.6080417604852033
aF-21.02055156117766
aF-4.686038308768904e-15
aF-18645.196627872574
aF33.56835497443344
aF180.40044661433268
aF-0.21290821962594828
aF-0.2913708664877875
aF-774.3201971708827
aF2.9730756359924784
aF3.750343149084824
aF8.360509293247065e-16
aF-19.298441519616585
aF0.04364782779170776
aF0.031190639212156694
aF-0.26764423749686783
aF-5.9664997199593e-17
aF-0.0015899487664243473
aI7
aa(lp35
F71.92677813065998
aF2.2756301060889923
aa(lp36
g6
a(lp37
F2.275602693174804
aF2.2756575190031803
aaaa(lp38
(lp39
F-3.5290695138911106e-10
aF-6.953266472833902e-13
aF6.719084789333992e-12
aF-3.0940463523698064e-13
aF-1.1022790040301837e-14
aF-6.089087001199383e-16
aF9.347455008737746e-16
aF-1.1107460021404122e-32
aF-8.334493698807394e-11
aF1.3300725858680767e-12
aF-9.035059562967506e-13
aF-9.857980226216488e-16
aF2.2944399733156166e-15
aF-1.3304744776815108e-18
aF1.7605427618477542e-17
aF1.4441232533388667e-11
aF2.7528854741697397e-14
aF2.8839686587093686e-13
aF1.581905158782807e-16
aF5.130002122200224e-16
aF-1.7522820482254952e-31
aF-1.0310119914741151e-12
aF1.0866802808282552e-16
aF-4.8949391415918795e-15
aF5.243388039895288e-18
aF-6.908079172416926e-18
aF3.0791181435010766e-14
aF1.500210727856097e-17
aF1.231710752523814e-16
aF5.432480282434397e-33
aF1.1338466194721677e-15
aF3.3598917828115314e-18
aF-9.476622449058241e-19
aF-1.5209031048285418e-18
aF9.397969064505548e-34
aF-9.172321504526152e-20
aa(lp40
F-6947772.9018732505
aF-406983.8759679322
aF247156.1093078571
aF4409.045079267258
aF-4045.3686541004295
aF-10.693137013377923
aF19.635345452953313
aF2.90344803806235e-15
aF-2112555.995317541
aF-53520.047478674795
aF52044.32811776667
aF243.93669149517123
aF-505.4987892611216
aF0.05065079490784049
aF0.8165648994227714
aF-268045.34464123735
aF-1825.3533370227087
aF4339.772650321801
aF-2.607703265694775
aF-21.019995428957817
aF-3.1081940796263227e-15
aF-18642.35010574323
aF33.562995570651786
aF180.39028895543805
aF-0.2129054924604254
aF-0.2913825392825369
aF-774.2535014740415
aF2.972937044794527
aF3.7503814137288423
aF5.545630752342434e-16
aF-19.298062492399122
aF0.04364896649028043
aF0.031193032271687474
aF-0.2676567803447923
aF-3.9577992433501397e-17
aF-0.001590129045935775
aI7
aa(lp41
F71.92545972977696
aF2.275684931917368
aa(lp42
g6
a(lp43
F2.2756575190031803
aF2.2757123448315566
aaaa(lp44
(lp45
F2.8888278955299176e-10
aF-2.294877263113043e-11
aF-1.1902265906709246e-11
aF-2.3070125583264046e-13
aF-2.2449833934361666e-13
aF-1.442079134469218e-16
aF-5.003946560110736e-16
aF-8.226491764375128e-33
aF5.3710144748812417e-11
aF2.824997473920644e-13
aF-4.664024232353519e-13
aF4.335378136255959e-15
aF2.3957394005682378e-14
aF-1.1391131045253803e-18
aF4.1281056510985586e-17
aF-2.9272781016332715e-12
aF-4.221548989124291e-15
aF-4.512271982718552e-13
aF-1.4016846874221956e-16
aF9.088334494581825e-16
aF2.3703007286413773e-32
aF1.5888488051824248e-12
aF-1.3749923155423739e-15
aF-1.2278522939886997e-14
aF3.3617121655806216e-18
aF2.2205634368337418e-17
aF6.680319059512191e-15
aF-7.921314805544135e-17
aF4.0775807527518085e-17
aF-2.0900904516747402e-32
aF-1.5872824713503384e-15
aF1.814359029189659e-18
aF8.422140068007121e-19
aF-1.415631787192861e-17
aF7.6683888623966404e-34
aF7.306389213204056e-20
aa(lp46
F-6945315.735728467
aF-406865.2144479024
aF247092.79784929412
aF4408.18486668495
aF-4044.723395914218
aF-10.692081264519894
aF19.634106220373027
aF1.3485815926924813e-15
aF-2111951.2801183867
aF-53508.2258823559
aF52034.470775013884
aF243.90744780777538
aF-505.45179447956275
aF0.050645733132683925
aF0.8165676762558
aF-267986.55653610744
aF-1825.100579029673
aF4339.239642979898
aF-2.607364816611113
aF-21.019439326420596
aF-1.4437341148187345e-15
aF-18639.504123825107
aF33.55763708099698
aF180.38013218875815
aF-0.21290276530796293
aF-0.29139421192776777
aF-774.1868137193089
aF2.972798462983544
aF3.750419674809136
aF2.5760005989329066e-16
aF-19.297683472798315
aF0.043650105135781686
aF0.031195425393646926
aF-0.26766932302548163
aF-1.8385044774081096e-17
aF-0.0015903093369019025
aI7
aa(lp47
F71.92414141658624
aF2.275739757745745
aa(lp48
g6
a(lp49
F2.2757123448315566
aF2.2757671706599334
aaaa(lp50
(lp51
F-2.594440615659253e-10
aF1.7035359219484465e-11
aF1.1603460221856223e-12
aF8.917133964376788e-14
aF1.328812351079433e-13
aF3.467246495656778e-16
aF1.630423144342687e-15
aF-3.1038386055879974e-31
aF-9.249115229693683e-11
aF-7.039707812980924e-13
aF2.656119498909878e-13
aF7.72658383214917e-15
aF-9.492516421006491e-15
aF-5.387346720117402e-19
aF-4.446286173682276e-17
aF-8.170139923998583e-12
aF-1.4584352666473533e-14
aF-3.558591574058535e-13
aF-1.0639324272298023e-16
aF-4.315071418345621e-16
aF-5.495356593875798e-32
aF9.283547145873162e-13
aF1.500764820387434e-15
aF6.987054057108301e-15
aF1.8368127162044636e-18
aF2.3023473345726267e-17
aF3.374299969517464e-14
aF1.4442501650075603e-16
aF-1.1547640174870696e-16
aF-7.12569306953644e-32
aF6.482822685293416e-16
aF7.839093304027278e-19
aF-7.452831675085609e-19
aF2.3539746174215118e-17
aF2.739496673757861e-33
aF2.1680683571708755e-20
aa(lp52
F-6942859.536936085
aF-406746.59232969966
aF247029.50514478039
aF4407.324856830965
aF-4044.078266418765
aF-10.69102566293293
aF19.632867114662496
aF4.995443693344593e-15
aF-2111346.7619375926
aF-53496.40736709352
aF52024.615686074714
aF243.87820875449685
aF-505.40480585706666
aF0.05064067184368111
aF0.8165704528113259
aF-267927.78360104345
aF-1824.8478649171632
aF4338.706721081118
aF-2.607026413223263
aF-21.018883253563423
aF-5.348105662659076e-15
aF-18636.658681995017
aF33.5522795052679
aF180.3699763141831
aF-0.21290003816847025
aF-0.2914058844234806
aF-774.1201339054569
aF2.972659890558027
aF3.7504579323259963
aF9.542774020611591e-16
aF-19.297304460814512
aF0.043651243728203504
aF0.03119781857803211
aF-0.26768186553892825
aF-6.810975081833537e-17
aF-0.0015904896393227916
aI7
aa(lp53
F71.92282319107828
aF2.275794583574122
aa(lp54
g6
a(lp55
F2.2757671706599334
aF2.2758219964883097
aaaa(lp56
(lp57
F2.1462778489578273e-10
aF2.213600644198854e-11
aF4.792572599137164e-12
aF-6.47753134740628e-14
aF1.614630477768086e-13
aF-2.7556687383473503e-16
aF-3.781665226521229e-16
aF-2.335312310837355e-31
aF6.256831565840492e-11
aF1.479726582913572e-13
aF-2.1365726680461474e-12
aF-1.1851406276080933e-14
aF-8.146178056589155e-15
aF2.331690567999227e-18
aF-4.1121595162276934e-17
aF-1.7696445237986063e-11
aF2.9009889074152043e-14
aF8.340554850720112e-14
aF-1.8204075059521654e-16
aF-9.94792453667958e-16
aF2.6649521255275943e-31
aF1.1462987595016896e-12
aF-1.1445484118395492e-16
aF-4.986219834810641e-15
aF9.24815932818839e-18
aF2.3254192152937907e-17
aF5.3190226855674453e-14
aF-1.4190662960613968e-16
aF2.655355752811381e-17
aF4.4448609517199725e-32
aF-1.6919562909102578e-15
aF1.903618495501349e-18
aF-1.4795126365155171e-18
aF-5.112981308403333e-18
aF5.09667768006303e-34
aF1.0594327123700945e-19
aa(lp58
F-6940404.305076376
aF-406628.00959858287
aF246966.23118800417
aF4406.465049647982
aF-4043.4332655832
aF-10.689970208578503
aF19.631628135803584
aF-5.2606610566359914e-15
aF-2110742.4407031136
aF-53484.59193194772
aF52014.76285034414
aF243.848974334212
aF-505.35782339258293
aF0.05063561104175444
aF0.8165732290893757
aF-267869.02583153447
aF-1824.595194674644
aF4338.173884608451
aF-2.606688055536431
aF-21.018327210383713
aF5.632252947458972e-15
aF-18633.813780129793
aF33.54692284335593
aF180.35982133160277
aF-0.21289731104230478
aF-0.2914175567696759
aF-774.053462031255
aF2.9725213275193574
aF3.7504961862797073
aF-1.0050154319213247e-15
aF-19.296925456447973
aF0.04365238226758583
aF0.031200211824840073
aF-0.26769440788512366
aF7.173371138138958e-17
aF-0.001590669953198505
aI7
aa(lp59
F71.92150505324352
aF2.2758494094024977
aa(lp60
g6
a(lp61
F2.2758219964883097
aF2.275876822316686
aaaa(lp62
(lp63
F-1.5770533923779904e-10
aF-5.268782034481114e-12
aF-8.263595309828303e-12
aF2.7664430656590245e-13
aF6.165885923165421e-14
aF7.853745370547848e-16
aF-4.161737653826338e-16
aF1.2943411417515337e-32
aF1.0560896287361977e-10
aF1.967380604538049e-12
aF-2.472407703370917e-13
aF-3.0877266246296014e-15
aF-2.3221338825279855e-14
aF1.6184669939723006e-18
aF4.831208382132736e-17
aF-2.021102515873053e-11
aF-1.7203476366253838e-14
aF3.117404205125754e-13
aF1.1274961906380468e-16
aF-9.035827957842418e-16
aF-6.82628965580136e-32
aF1.792674635445422e-12
aF-1.9114185489004104e-15
aF-7.816571783645251e-15
aF-7.895041079023941e-18
aF-1.7417035331380664e-17
aF2.867484591452889e-15
aF-1.3080205461068605e-16
aF-9.658823840911192e-17
aF-2.622684765542574e-32
aF-8.784391374197075e-16
aF2.5289795268555082e-18
aF1.3523275072434275e-18
aF6.555907766388876e-18
aF-2.0602927166617164e-33
aF-4.425968780371278e-20
aa(lp64
F-6937950.039729477
aF-406509.46623994346
aF246902.97597264964
aF4405.605445081913
aF-4042.788393376616
aF-10.688914901449687
aF19.630389283778094
aF2.6025133132981955e-15
aF-2110138.3163428707
aF-53472.77957601187
aF52004.9122672166
aF243.81974454633914
aF-505.31084708505927
aF0.050630550725194054
aF0.8165760050899761
aF-267810.283223067
aF-1824.342568295071
aF4337.64113354487
aF-2.6063497435219305
aF-21.01777119687889
aF-2.7864464919671323e-15
aF-18630.969418106204
aF33.54156709495838
aF180.3496672409072
aF-0.21289458392888444
aF-0.29142922896635476
aF-773.9867980954749
aF2.9723827738628668
aF3.7505344366705695
aF4.972298644879406e-16
aF-19.2965464596991
aF0.043653520753868115
aF0.03120260513406798
aF-0.26770695006406164
aF-3.5491446019357055e-17
aF-0.0015908502785291134
aI7
aa(lp65
F71.9201870030724
aF2.2759042352308745
aa(lp66
g6
a(lp67
F2.275876822316686
aF2.275931648145063
aaaa(lp68
(lp69
F4.6232436074151334e-10
aF1.7072468700390865e-11
aF1.3801543740795455e-11
aF-4.1774363177673636e-13
aF1.4037668205517763e-13
aF7.439620164404785e-16
aF-3.406817720336962e-16
aF-3.219109795105833e-31
aF-1.779222788749079e-10
aF3.324069790408724e-14
aF2.413701123932606e-12
aF7.989429762288455e-16
aF2.1081829043323262e-14
aF1.5940119824687697e-20
aF-2.846117745690001e-17
aF1.433313985798828e-11
aF-6.876205409084603e-14
aF-1.1314449304443288e-13
aF1.3521193845791e-16
aF-1.5831701841382787e-15
aF2.938030446476256e-31
aF1.5574946158670085e-12
aF-2.953356286860299e-15
aF2.6838904078064466e-16
aF8.580249743915997e-18
aF-1.6466066184435572e-17
aF-3.459599250914758e-14
aF1.4206082343511583e-16
aF9.133949649408532e-17
aF4.0763580357037586e-32
aF-1.580460106626581e-15
aF-3.43752675692293e-18
aF-1.6337899580813605e-18
aF-4.395255261852463e-19
aF1.1724570042993941e-33
aF-4.065213016685264e-20
aa(lp70
F-6935496.740476116
aF-406390.96223901655
aF246839.73949241065
aF4404.746043074585
aF-4042.143649768166
aF-10.68785974149932
aF19.62915055856789
aF-4.491550393780486e-15
aF-2109534.3887848854
aF-53460.97029833751
aF51995.06393608751
aF243.7905193896067
aF-505.2638769334456
aF0.05062549089564159
aF0.8165787808131539
aF-267751.5557711336
aF-1824.0899857669576
aF4337.108467873372
aF-2.606011477194227
aF-21.017215213046352
aF4.809167925258139e-15
aF-18628.12559580113
aF33.536212260019695
aF180.339514041986
aF-0.2128918568288234
aF-0.2914409010135178
aF-773.9201420968855
aF2.9722442295915865
aF3.7505726834988633
aF-8.582076011495379e-16
aF-19.296167470568122
aF0.04365465918711779
aF0.031204998505712893
aF-0.26771949207573337
aF6.125968551046679e-17
aF-0.0015910306153146794
aI7
aa(lp71
F71.91886904055534
aF2.2759590610592513
aa(lp72
g6
a(lp73
F2.275931648145063
aF2.2759864739734392
aaaa(lp74
(lp75
F9.825319039955682e-11
aF-1.3369225684513808e-11
aF2.773518484158339e-12
aF1.8083668429939627e-13
aF-8.328758144098282e-14
aF4.443050555854445e-16
aF1.3099529081984211e-15
aF5.105586467120411e-32
aF2.251884663103998e-10
aF1.5268766090978957e-12
aF5.686122596728615e-13
aF7.027299287957524e-15
aF1.394676155365465e-14
aF-2.5531829802950333e-18
aF2.8034385063836845e-17
aF-8.396848046909578e-12
aF9.612319757642574e-15
aF3.369323300575586e-13
aF-2.218016250733623e-16
aF4.937574586981335e-16
aF-1.3409288021314556e-31
aF1.138855049259116e-13
aF-5.807125720909163e-16
aF1.3833954823936511e-14
aF-7.637890273157769e-18
aF-2.7497355624690693e-18
aF-4.488871824198184e-14
aF-7.523639216568546e-17
aF-9.96733688333733e-17
aF2.749662334200163e-32
aF-1.181193762482964e-15
aF9.303794855048803e-19
aF1.121791415211538e-18
aF-2.407712138232685e-17
aF-6.016332646676483e-34
aF9.042362405870008e-20
aa(lp76
F-6933044.4068969805
aF-406272.49758119
aF246776.5217409798
aF4403.886843571459
aF-4041.4990347269936
aF-10.686804728715426
aF19.627911960154844
aF-2.7764217767334563e-15
aF-2108930.6579571734
aF-53449.1640980138
aF51985.21785635221
aF243.76129886334712
aF-505.21691293669227
aF0.05062043155181251
aF0.8165815562589356
aF-267692.8434712267
aF-1823.8374470827107
aF4336.5758875769625
aF-2.605673256530124
aF-21.01665925888355
aF2.972863876657147e-15
aF-18625.282313091542
aF33.530858338268835
aF180.3293617347297
aF-0.21288912974169133
aF-0.29145257291116544
aF-773.8534940342613
aF2.9721056947018325
aF3.7506109267648853
aF-5.305341635046915e-16
aF-19.29578848905543
aF0.04365579756729047
aF0.03120739193977185
aF-0.2677320339201317
aF3.7871427730773765e-17
aF-0.0015912109635552653
aI7
aa(lp77
F71.91755116568282
aF2.276013886887627
aa(lp78
g6
a(lp79
F2.2759864739734392
aF2.2760412998018156
aaaa(lp80
(lp81
F1.20968607990181e-10
aF-5.673784752778797e-13
aF6.414183410080697e-12
aF-8.548860703949959e-14
aF-1.5894229256122987e-13
aF8.599598753216089e-17
aF5.804464858450467e-16
aF6.259765560862475e-32
aF1.0532507802657786e-10
aF-5.928916182077081e-13
aF-8.208342722927695e-13
aF-1.3961977836726134e-14
aF-6.004887575724408e-15
aF-1.5477158151053681e-18
aF-1.7328689266634268e-17
aF2.791355721434518e-12
aF-9.789401903639447e-14
aF3.9887673511670035e-13
aF1.4572550321922798e-16
aF-1.297579187919867e-15
aF-5.058738097773559e-32
aF-2.637023224817514e-13
aF1.1645420103246145e-15
aF-5.482182529516822e-15
aF1.3666485944336515e-17
aF-1.7615297617365563e-17
aF5.502829018640383e-15
aF1.6820692091809191e-16
aF-2.934503581761022e-17
aF8.315933332138613e-33
aF1.4320514049340508e-15
aF-1.1062824252618802e-18
aF-1.146707602780643e-18
aF9.028563532634764e-18
aF-8.122684225353533e-34
aF3.270342305223082e-20
aa(lp82
F-6930593.038572967
aF-406154.0722517745
aF246713.3227120509
aF4403.02784651606
aF-4040.8545482222294
aF-10.685749863067349
aF19.626673488520773
aF1.402099580123824e-15
aF-2108327.1237877673
aF-53437.360974109884
aF51975.37402740589
aF243.73208296657185
aF-505.1699550937475
aF0.05061537269397216
aF0.816584331427348
aF-267634.14631883847
aF-1823.5849522326655
aF4336.043392638623
aF-2.6053350815263645
aF-21.01610333438787
aF-1.5013583263724526e-15
aF-18622.439569854272
aF33.52550532954872
aF180.3192103190279
aF-0.2128864026676112
aF-0.2914642446592988
aF-773.7868539063711
aF2.97196716919347
aF3.7506491664689245
aF2.6794064845342237e-16
aF-19.29540951516131
aF0.04365693589440107
aF0.031209785436242036
aF-0.26774457559724923
aF-1.9127263580601204e-17
aF-0.0015913913232509418
aI7
aa(lp83
F71.91623337844526
aF2.276068712716004
aa(lp84
g6
a(lp85
F2.2760412998018156
aF2.2760961256301924
aaaa(lp86
(lp87
F4.324573723456396e-10
aF2.2578894425735033e-11
aF-8.970987684266104e-12
aF-2.762040425803537e-13
aF9.422645490122118e-14
aF-5.117251142345358e-16
aF-2.1526288004822405e-16
aF4.1943191783066153e-32
aF-5.398642565777403e-11
aF-1.6953780163867182e-12
aF1.5707636595055207e-12
aF1.38285046002816e-14
aF-1.524654223611333e-14
aF-4.592786852421474e-19
aF1.7191456598861016e-17
aF1.5762270883654825e-11
aF-7.092663226283878e-14
aF-3.067137135045816e-13
aF-4.420954903578448e-19
aF1.2485508385940063e-16
aF-2.2704376836891424e-31
aF-1.691551447641321e-12
aF3.453679926749276e-15
aF-2.9220343491170084e-16
aF1.3694995202531683e-17
aF2.0407373958206607e-17
aF2.3799783339875645e-15
aF1.7648216377843574e-16
aF-1.6972985842771603e-16
aF4.6793414090026954e-32
aF-1.2783403145763747e-15
aF1.3569466353125822e-18
aF-8.598834334878253e-20
aF-1.9661805494821622e-17
aF2.7965447964820355e-33
aF1.3135107023202627e-20
aa(lp88
F-6928142.635085316
aF-406035.686236074
aF246650.1423993237
aF4402.169051851518
aF-4040.210190223046
aF-10.684695144520118
aF19.62543514364755
aF-5.368605666022816e-15
aF-2107723.786204764
aF-53425.56092569116
aF51965.532448644415
aF243.70287169821881
aF-505.12300340356194
aF0.05061031432274985
aF0.8165871063184176
aF-267575.46430946543
aF-1823.3325012066894
aF4335.510983041365
aF-2.604996952184386
aF-21.01554743955674
aF5.748875692832476e-15
aF-18619.597365966318
aF33.520153233729346
aF180.3090597947705
aF-0.21288367560683574
aF-0.2914759162579185
aF-773.7202217119861
aF2.9718286530672082
aF3.7506874026112675
aF-1.0260135122485147e-15
aF-19.295030548886043
aF0.04365807416847834
aF0.03121217899512049
aF-0.2677571171070777
aF7.324588553055772e-17
aF-0.0015915716944017713
aI7
aa(lp89
F71.91491567883308
aF2.2761235385443808
aa(lp90
g6
a(lp91
F2.2760961256301924
aF2.2761509514585687
aaaa(lp92
(lp93
F-2.2868852415792363e-10
aF2.1416806890857687e-11
aF1.1907438991433931e-11
aF-3.9975811944666867e-14
aF-3.5520681851780275e-14
aF4.086740025414824e-16
aF-4.3929452911328796e-16
aF-1.4668923668084545e-31
aF-2.007180103380775e-10
aF-6.174214907633671e-13
aF-3.519080593679452e-12
aF3.8188503068260135e-15
aF2.8403235461918288e-14
aF-1.317610408339545e-18
aF-2.306499447035681e-17
aF3.7790157149413215e-12
aF-9.935869236169134e-14
aF-3.261538681772268e-13
aF-1.5997626372926903e-16
aF-5.779898628004738e-16
aF1.0700680700408212e-31
aF-1.6231990435906864e-12
aF-1.2275658090591638e-15
aF-2.6319937649810734e-15
aF8.021398368961834e-18
aF2.5896487109294555e-17
aF-5.069057042588822e-14
aF5.0726045523627143e-17
aF-2.3854290912202802e-17
aF3.174024134388974e-32
aF2.924648376692061e-16
aF2.0224882923209452e-18
aF-1.0935524931622124e-18
aF-1.3151639063101158e-17
aF-2.6722083456139697e-33
aF6.088346930840706e-20
aa(lp94
F-6925693.196015329
aF-405917.3395194856
aF246586.98079649807
aF4401.310459523123
aF-4039.565960698614
aF-10.68364057305958
aF19.624196925517058
aF-2.8655552865135776e-15
aF-2107120.645136269
aF-53413.76395184541
aF51955.69311946372
aF243.67366505758352
aF-505.07605786508674
aF0.05060525643704358
aF0.8165898809321711
aF-267516.7974386048
aF-1823.0800939969524
aF4334.978658768205
aF-2.6046588684833476
aF-21.014991574387597
aF3.0686412509304767e-15
aF-18616.755701304744
aF33.514802050553264
aF180.29891016184803
aF-0.21288094855899986
aF-0.291487587707025
aF-773.6535974498814
aF2.971690146319781
aF3.7507256351922087
aF-5.476867009121622e-16
aF-19.294651590230018
aF0.04365921238948488
aF0.03121457261640427
aF-0.26776965844961
aF3.910013557500001e-17
aF-0.001591752077007816
aI7
aa(lp95
F71.9135980668368
aF2.2761783643727567
aa(lp96
g6
a(lp97
F2.2761509514585687
aF2.276205777286945
aaaa(lp98
(lp99
F-4.442628101273655e-10
aF-6.129706207727452e-12
aF6.352163335240423e-12
aF-1.331092430110431e-13
aF1.1660218266018633e-13
aF4.062502969388162e-16
aF-1.3017405393552488e-15
aF4.210735474125949e-32
aF-1.567301045738034e-10
aF2.679934141346113e-12
aF-2.4507328610946654e-12
aF8.131985787164722e-15
aF-2.5249635836585538e-14
aF-3.106222749781279e-18
aF-5.024376936049729e-17
aF8.883811893500029e-12
aF1.1030955219156194e-13
aF-7.765095627794967e-14
aF1.4961929327419845e-16
aF-1.131271592111013e-15
aF7.757199335980601e-32
aF1.3934168480404135e-12
aF-2.876875982987424e-15
aF7.84828872171241e-15
aF5.659006746257116e-18
aF1.1984143100746762e-17
aF-1.8103505779514308e-14
aF-1.5974064570654121e-16
aF1.1259480610435336e-17
aF1.17292090638007e-32
aF5.931811944675499e-17
aF-3.3388980175294506e-18
aF-6.582308648086201e-19
aF-2.4638558591368816e-17
aF-2.6725488194561775e-34
aF-8.648380149846944e-20
aa(lp100
F-6923244.720944512
aF-405799.0320873288
aF246523.83789727528
aF4400.452069474227
aF-4038.9218596180917
aF-10.682586148652899
aF19.62295883411112
aF-9.88095950058567e-16
aF-2106517.700510405
aF-53401.97005164039
aF51945.856039259554
aF243.64446304364026
aF-505.0291184772706
aF0.050600199037301605
aF0.8165926552686352
aF-267458.1457017533
aF-1822.8277305935546
aF4334.446419802136
aF-2.6043208304223486
aF-21.014435738877836
aF1.0581624831346072e-15
aF-18613.914575746483
aF33.50945177987697
aF180.28876142015005
aF-0.2128782215242917
aF-0.2914992590066193
aF-773.5869811188261
aF2.9715516489514746
aF3.750763864212037
aF-1.8886624668505628e-16
aF-19.294272639193505
aF0.043660350557442586
aF0.031216966300090545
aF-0.26778219962483846
aF1.3483925089172886e-17
aF-0.0015919324710691467
aI7
aa(lp101
F71.9122805424468
aF2.2762331902011335
aa(lp102
g6
a(lp103
F2.276205777286945
aF2.276260603115322
aaaa(lp104
(lp105
F3.077632943687644e-10
aF-7.12741982646316e-12
aF-4.141197860097904e-12
aF-3.1152603523853887e-13
aF-1.0798660090987263e-13
aF4.611084676657249e-16
aF-5.97041936579263e-16
aF-9.156007189074958e-32
aF6.20319225643401e-11
aF-2.7748393100232653e-12
aF7.626810597064273e-13
aF4.28370881699748e-15
aF-1.6634970755288483e-14
aF-1.0442452736757766e-18
aF-3.668416581518817e-18
aF5.96726045343139e-12
aF7.809537342238617e-15
aF-4.096259797393171e-13
aF1.0025798499002056e-16
aF-1.7387485257938682e-15
aF1.977681895043756e-31
aF8.942317070838488e-13
aF1.3372360121568342e-15
aF3.5601515367050185e-15
aF-8.874407205674263e-18
aF3.575932802517565e-18
aF5.298944084152923e-14
aF9.266743237143905e-17
aF1.9957752230258885e-16
aF-1.9714336904411536e-32
aF-3.551320614469491e-16
aF-6.391876723501145e-19
aF-4.450193046957629e-19
aF-1.623443227974116e-17
aF1.9982342374982707e-33
aF7.031845975991118e-20
aa(lp106
F-6920797.209454669
aF-405680.7639249468
aF246460.71369536166
aF4399.593881648527
aF-4038.277886950674
aF-10.68153187127011
aF19.62172086941162
aF-5.086873963170655e-15
aF-2105914.952255352
aF-53390.17922414774
aF51936.02120742832
aF243.61526565541337
aF-504.98218523906496
aF0.050595142123738245
aF0.8165954293278365
aF-267399.50909441186
aF-1822.575410986921
aF4333.914266126183
aF-2.6039828379974903
aF-21.01387993302488
aF5.4477871440490004e-15
aF-18611.07398916863
aF33.50410242154001
aF180.27861356956674
aF-0.21287549450281595
aF-0.2915109301567021
aF-773.520372717593
aF2.9714131609620447
aF3.7508020896710406
aF-9.72384512955608e-16
aF-19.293893695776813
aF0.04366148867236435
aF0.031219360046176366
aF-0.2677947406327552
aF6.942500622982566e-17
aF-0.001592112876585826
aI7
aa(lp107
F71.91096310565354
aF2.2762880160295103
aa(lp108
g6
a(lp109
F2.276260603115322
aF2.2763154289436986
aaaa(lp110
(lp111
F-2.419115662445246e-10
aF8.239918566294712e-13
aF4.614334132530338e-13
aF2.9507820030085707e-13
aF-1.9708718172272235e-13
aF5.909306602445426e-17
aF-1.1643152009647533e-15
aF-9.573768785687952e-32
aF1.8034276157363376e-10
aF1.6218415729559745e-12
aF3.240139697581297e-13
aF-3.83959369943916e-16
aF2.3764923045771223e-14
aF-4.773186478860835e-19
aF-3.107206192824226e-18
aF-2.4226581277122066e-11
aF2.0756368592640933e-14
aF-1.8801875692922444e-13
aF7.927020281075167e-17
aF4.712052579674258e-16
aF9.580131628264736e-32
aF-7.531120992071709e-13
aF2.134386384702077e-15
aF-1.0020922906962151e-14
aF5.881651946264587e-18
aF2.683648707128757e-18
aF-6.946450508676764e-16
aF-2.111557997669994e-16
aF-3.354220767842653e-17
aF4.4556054664326466e-32
aF-6.880813939691439e-16
aF2.4609531437114777e-18
aF-1.3756543724881346e-18
aF-2.560103072757466e-18
aF-2.3570991080108448e-33
aF7.834388266665737e-20
aa(lp112
F-6918350.661127694
aF-405562.53501772875
aF246397.6081844638
aF4398.735895990759
aF-4037.6340426655515
aF-10.68047774089129
aF19.620483031400436
aF-4.262980438623982e-15
aF-2105312.4002992976
aF-53378.39146844988
aF51926.18862336638
aF243.5860728920994
aF-504.9352581494208
aF0.050590085695731445
aF0.8165982031098016
aF-267340.8876120815
aF-1822.323135168587
aF4333.382197723366
aF-2.603644891194109
aF-21.013324156826165
aF4.565605733949196e-15
aF-18608.2339414483
aF33.49875397532034
aF180.26846660998834
aF-0.21287276749437878
aF-0.291522601157274
aF-773.4537722449556
aF2.971274682349326
aF3.7508403115695126
aF-8.149523562204488e-16
aF-19.29351475998029
aF0.04366262673423112
aF0.031221753854658828
aF-0.2678072814733529
aF5.818700795565906e-17
aF-0.0015922932935579185
aI7
aa(lp113
F71.90964575644749
aF2.276342841857887
aa(lp114
g6
a(lp115
F2.2763154289436986
aF2.2763702547720754
aaaa(lp116
(lp117
F8.017491145225958e-11
aF-2.3108234584823288e-11
aF-8.774846563006223e-12
aF4.369417434956651e-14
aF1.6970192686940637e-13
aF-7.628259335550078e-16
aF2.674854332305258e-16
aF1.9287502757999646e-32
aF-7.334773083510908e-11
aF3.6093873284331864e-12
aF1.1393021645507472e-12
aF-2.428708160543424e-15
aF-1.7778537009062168e-14
aF3.4312592279592196e-18
aF5.036563515737739e-17
aF-1.1177172688812486e-11
aF2.1378620550837452e-14
aF-3.4235689250537373e-13
aF-9.811531346202804e-17
aF2.7902128560358663e-16
aF-1.8405954573928557e-32
aF-2.038647152290596e-13
aF2.9941220007171983e-15
aF3.2384698301362363e-15
aF-3.413723386728484e-18
aF1.097058801879905e-17
aF3.004888320042155e-14
aF-4.605844286199893e-17
aF1.7528970908904126e-16
aF-2.453760693532669e-33
aF6.576297389225418e-16
aF9.161384303265002e-19
aF-7.714142642329229e-19
aF2.7718886889364267e-17
aF2.3701550031355965e-34
aF-6.336475252074038e-20
aa(lp118
F-6915905.075545737
aF-405444.3453510369
aF246334.52135829162
aF4397.878112444865
aF-4036.990326731926
aF-10.67942375748861
aF19.619245320059434
aF-4.032278512616898e-16
aF-2104710.0445704674
aF-53366.60678362116
aF51916.35828647034
aF243.55688475275937
aF-504.88833720728906
aF0.05058502975331722
aF0.8166009766145571
aF-267282.2812502652
aF-1822.0709031292151
aF4332.850214576708
aF-2.60330699000601
aF-21.0127684102791
aF4.318684698067014e-16
aF-18605.394432462617
aF33.493406441044385
aF180.25832054130487
aF-0.21287004049902114
aF-0.2915342720083358
aF-773.387179699687
aF2.9711362131126626
aF3.750878529907742
aF-7.709056415192034e-17
aF-19.29313583180425
aF0.04366376474304901
aF0.031224147725535018
aF-0.2678198221466239
aF5.504412103917967e-18
aF-0.0015924737219854893
aI7
aa(lp119
F71.9083284948191
aF2.276397667686264
aa(lp120
g6
a(lp121
F2.2763702547720754
aF2.2764250806004522
aaaa(lp122
(lp123
F-3.1752460361479796e-10
aF4.200165568347343e-12
aF3.2120979486520656e-12
aF1.393038199014856e-13
aF3.939071342064824e-14
aF5.758691050590488e-16
aF-4.128524073381937e-16
aF-1.7675146542154083e-31
aF-1.2283202836880461e-10
aF2.933600144532169e-12
aF3.312614847361562e-12
aF7.149041632338615e-15
aF-1.4315482627512242e-14
aF3.045869864459699e-18
aF3.0281258378226376e-17
aF2.511015303272956e-11
aF1.3507959527138781e-14
aF2.9055968675536145e-13
aF-6.356984292916949e-17
aF1.6708899943783364e-16
aF-7.686276330553057e-32
aF-3.8707993563980804e-13
aF1.5135419337126255e-15
aF-5.16268467278348e-15
aF-1.770000025391436e-18
aF-2.5759528388761184e-17
aF9.630024688329293e-15
aF-2.1459104024601224e-19
aF1.244264323606731e-17
aF6.519176259371255e-33
aF1.6856899854167053e-15
aF-3.125222184137786e-18
aF7.079822591108271e-19
aF6.644651262229122e-18
aF-1.6317449276009896e-33
aF9.622278248801511e-20
aa(lp124
F-6913460.452291145
aF-405326.1949102367
aF246271.45321055735
aF4397.020530954728
aF-4036.3467391190075
aF-10.678369921033525
aF19.618007735370497
aF3.424499372564717e-15
aF-2104107.8849971173
aF-53354.825168735464
aF51906.53019613699
aF243.52770123644203
aF-504.8414224116211
aF0.05057997429659237
aF0.8166037498421298
aF-267223.69000446744
aF-1821.81871485939
aF4332.318316669236
aF-2.6029691344277834
aF-21.01221269338111
aF-3.6678703645806795e-15
aF-18602.55546208874
aF33.48805981854309
aF180.24817536340646
aF-0.2128673135168058
aF-0.29154594270988815
aF-773.3205950805595
aF2.970997753251539
aF3.7509167446860183
aF6.547561919634023e-16
aF-19.292756911248997
aF0.04366490269882644
aF0.03122654165880203
aF-0.26783236265256044
aF-4.675254338913109e-17
aF-0.0015926541618686038
aI7
aa(lp125
F71.90701132075883
aF2.2764524935146406
aa(lp126
g6
a(lp127
F2.2764250806004522
aF2.2764799064288286
aaaa(lp128
(lp129
F-2.122329444585512e-10
aF-2.5217947830893247e-11
aF-6.782511728070475e-12
aF-1.0943198336956544e-13
aF3.734155118984729e-14
aF1.9141735357300732e-16
aF1.433214196792007e-15
aF1.5328358460211299e-31
aF1.4747031659128756e-10
aF3.4865704460395077e-12
aF-1.9800228203162884e-12
aF-1.2450075268145087e-14
aF2.0110927191713962e-14
aF-2.382664369781803e-18
aF-1.6053606250879938e-17
aF-1.0805424802899084e-11
aF-2.99871154895797e-14
aF1.3170101711146344e-13
aF2.0282778058877796e-16
aF-1.2376154870298148e-15
aF-1.1439032417973468e-31
aF-8.547007503273927e-14
aF-4.2017862484606983e-16
aF-3.4330399366948837e-15
aF-9.258821638010644e-18
aF2.701039752476508e-17
aF-1.0288925432140751e-14
aF-2.0932718860504782e-16
aF1.4171279817318005e-16
aF3.282983708156528e-33
aF2.82033912842436e-16
aF-3.2075709513687217e-18
aF-1.5549476176962184e-18
aF-1.2242943040916559e-17
aF8.377338662886774e-35
aF4.6718249656137446e-20
aa(lp130
F-6911016.790946537
aF-405208.08368068316
aF246208.40373497718
aF4396.163151463819
aF-4035.7032797960287
aF-10.677316231493176
aF19.61677027731552
aF-2.8470613075375142e-15
aF-2103505.921507546
aF-53343.046622862625
aF51896.70435176351
aF243.49852234212258
aF-504.7945137613692
aF0.05057491932601396
aF0.8166065227925462
aF-267165.11387019523
aF-1821.566570349224
aF4331.786503983991
aF-2.6026313244586596
aF-21.01165700612961
aF3.049506867018656e-15
aF-18599.717030203905
aF33.48271410767404
aF180.23803107618323
aF-0.2128645865479241
aF-0.2915576132619317
aF-773.2540183863468
aF2.970859302766269
aF3.750954955904628
aF-5.443912820665175e-16
aF-19.292377998314823
aF0.04366604060158558
aF0.031228935654456922
aF-0.26784490299115443
aF3.887341539647218e-17
aF-0.0015928346132073237
aI7
aa(lp131
F71.90569423425713
aF2.2765073193430165
aa(lp132
g6
a(lp133
F2.2764799064288286
aF2.276534732257205
aaaa(lp134
(lp135
F7.5229974667357e-11
aF-6.207131424479497e-12
aF-5.738394531811266e-12
aF-3.910537379200405e-13
aF-1.048603470486021e-13
aF8.17702971080007e-16
aF1.5643582714958416e-15
aF4.9027559267978255e-32
aF-6.605189817843678e-13
aF-3.521900029264188e-13
aF-2.661961381519899e-12
aF4.802346914608708e-15
aF1.928224868269495e-14
aF2.6256469283197058e-18
aF-2.0940315714039972e-17
aF-4.203222730601843e-12
aF-1.9335676686440306e-14
aF1.5937929666312927e-13
aF1.0777074212975644e-16
aF-4.3199791383616343e-16
aF-8.153432922279152e-32
aF8.452210436787551e-13
aF2.759224292836736e-15
aF-8.22864202252571e-16
aF9.6282222785109e-18
aF1.3817316900798517e-17
aF-2.0909615389185344e-14
aF3.194537834876541e-17
aF-1.4894070609474676e-16
aF7.685566455557319e-33
aF2.4809561526808795e-16
aF-2.1154818487587795e-18
aF2.1859526345219767e-19
aF1.4688710774380925e-17
aF-7.509784315618578e-34
aF6.698785122051461e-20
aa(lp136
F-6908574.091094493
aF-405090.0116478038
aF246145.37292526473
aF4395.305973917357
aF-4035.0599487321906
aF-10.676262688851903
aF19.615532945876353
aF-1.404425473886877e-15
aF-2102904.1540300343
aF-53331.271145090446
aF51886.88075274664
aF243.46934806907078
aF-504.7476112554836
aF0.05056986484060402
aF0.8166092954658329
aF-267106.55284295377
aF-1821.3144695907256
aF4331.254776503992
aF-2.6022935600793917
aF-21.011101348522025
aF1.5043448500585672e-15
aF-18596.87913668526
aF33.47736930818898
aF180.22788767952528
aF-0.21286185959205503
aF-0.2915692836644674
aF-773.1874496158221
aF2.9707208616538647
aF3.7509931635638676
aF-2.6856218313416136e-16
aF-19.291999093002087
aF0.043667178451293816
aF0.031231329712496855
aF-0.26785744316239923
aF1.9177955428764575e-17
aF-0.00159301507600172
aI7
aa(lp137
F71.90437723530444
aF2.2765621451713933
aa(lp138
g6
a(lp139
F2.276534732257205
aF2.2765895580855817
aaaa(lp140
(lp141
F3.0589851958639204e-10
aF-1.0255934207454914e-11
aF-6.771610786260073e-13
aF-4.1191860509954124e-13
aF-2.3437808050423007e-14
aF7.575544631335905e-16
aF5.109291516502821e-16
aF6.546559769032158e-32
aF-9.297834634814835e-11
aF-3.4416965671374095e-13
aF-2.8917355294631437e-12
aF-1.40608898161379e-14
aF-4.04554082236797e-15
aF1.1951776847367803e-18
aF-5.479624795585794e-17
aF3.831413596704947e-12
aF-5.3726498537195e-14
aF2.470255320572505e-13
aF-8.82580356310164e-17
aF-1.1488154684491251e-15
aF2.7330291831325946e-31
aF-1.6056303582367702e-12
aF-2.298697391063141e-15
aF7.28753148421218e-15
aF-8.706189930602043e-18
aF1.2973099209870962e-17
aF2.219945025624376e-14
aF5.3074558204307956e-17
aF2.9867078700602095e-18
aF-6.477167300705133e-32
aF-6.1173161850884935e-16
aF-8.234100893793033e-19
aF1.6741263974474394e-18
aF-1.7620891472931143e-17
aF5.3159075865718724e-33
aF-1.0009715155241852e-19
aa(lp142
F-6906132.352318035
aF-404971.97879695985
aF246082.36077514105
aF4394.4489982586965
aF-4034.4167458967436
aF-10.675209293075403
aF19.6142957410349
aF-4.6769740039949076e-15
aF-2102302.5824929406
aF-53319.49873448785
aF51877.05939848394
aF243.44017841623725
aF-504.70071489291695
aF0.05056481084094121
aF0.8166120678620167
aF-267048.0069182532
aF-1821.0624125738502
aF4330.723134212286
aF-2.6019558412907773
aF-21.010545720555772
aF5.009905909555795e-15
aF-18594.0417814101
aF33.47202541995454
aF180.21774517332275
aF-0.21285913264943332
aF-0.29158095391749583
aF-773.1208887677589
aF2.97058242991492
aF3.751031367664022
aF-8.944229467302026e-16
aF-19.291620195311072
aF0.04366831624797797
aF0.031233723832918888
aF-0.2678699831662866
aF6.387284887819145e-17
aF-0.0015931955502518547
aI7
aa(lp143
F71.90306032389122
aF2.27661697099977
aa(lp144
g6
a(lp145
F2.2765895580855817
aF2.276644383913958
aaaa(lp146
(lp147
F-3.2183986619242926e-10
aF2.5179019017013848e-11
aF-7.452332317272776e-13
aF7.393502910365251e-14
aF-5.352353955005603e-14
aF-7.38780958452751e-16
aF-4.7169128572008476e-17
aF1.8175355449486882e-31
aF1.01550374517072e-10
aF5.88959388846713e-13
aF8.246308495756747e-13
aF-6.211365470034368e-15
aF-6.185204486319976e-16
aF-2.647122041337799e-18
aF3.067593764719787e-17
aF-1.1661719733748197e-11
aF1.4308260969600884e-14
aF-2.510818742394795e-13
aF1.8022512986917567e-17
aF1.9280692466022347e-16
aF-1.8176631556931414e-31
aF5.987182610596356e-13
aF7.52568496229987e-16
aF-5.592917745704181e-15
aF8.715445554689996e-18
aF-8.590521086759008e-18
aF-2.2763334729924894e-14
aF-1.736515295285549e-16
aF2.1702475630027187e-16
aF-4.169345674208544e-32
aF-1.8978967511779198e-16
aF-3.04651268589842e-18
aF-1.4158947939544321e-18
aF-4.884852132858412e-18
aF1.7044900097183972e-34
aF-4.2102092114417394e-20
aa(lp148
F-6903691.574200293
aF-404853.98511357536
aF246019.3672783281
aF4393.592224432612
aF-4033.7736712589394
aF-10.674156044142999
aF19.613058662773074
aF-3.060180225417857e-15
aF-2101701.206824639
aF-53307.72939013846
aF51867.240288373054
aF243.41101338280646
aF-504.6538246726223
aF0.0505597573264703
aF0.8166148399811238
aF-266989.4760916047
aF-1820.8103992900617
aF4330.191577091928
aF-2.6016181680790265
aF-21.00999012222829
aF3.2781402133009786e-15
aF-18591.204964255776
aF33.4666824427539
aF180.20760355746617
aF-0.21285640571988895
aF-0.29159262402101754
aF-773.0543358409332
aF2.9704440075474245
aF3.751069568205384
aF-5.852707175437479e-16
aF-19.29124130524213
aF0.04366945399162152
aF0.031236118015720078
aF-0.267882523002809
aF4.179709109748485e-17
aF-0.00159337603595779
aI7
aa(lp149
F71.90174350000798
aF2.276671796828146
aa(lp150
g6
a(lp151
F2.276644383913958
aF2.2766992097423344
aaaa(lp152
(lp153
F-1.611274763866952e-10
aF-9.358083844826363e-12
aF8.375395188753995e-12
aF-3.2572060463272053e-13
aF1.8368904424622716e-13
aF5.03415164061104e-16
aF4.89107908310382e-16
aF-9.238453189110968e-32
aF-4.892607695043099e-11
aF3.531441536449994e-12
aF2.420531852962517e-14
aF7.82327297169963e-15
aF-1.921879923903525e-14
aF1.7103787906251752e-18
aF-3.996248570326129e-17
aF-1.4573276296963845e-11
aF-9.156357001024528e-14
aF3.3211166001132427e-13
aF-2.14001936102329e-16
aF-1.3850523284366874e-15
aF1.881481504919098e-31
aF-2.875583174284848e-13
aF-1.7483698312162646e-15
aF1.330894863121739e-14
aF1.2118117118637896e-17
aF1.467811073858771e-17
aF2.5051580109548102e-14
aF-1.600128442684359e-17
aF8.97227292478811e-17
aF-6.506837706444206e-32
aF8.450910745145124e-16
aF3.471073667572101e-19
aF-8.73646752104525e-19
aF1.401339659760066e-17
aF-1.9017344237626715e-33
aF-7.689625953278913e-20
aa(lp154
F-6901251.756324552
aF-404736.0305830268
aF245956.3924285484
aF4392.735652382677
aF-4033.1307247880136
aF-10.67310294202251
aF19.611821711072725
aF-5.497291615841568e-15
aF-2101100.0269535137
aF-53295.963111113546
aF51857.423421811414
aF243.38185296776504
aF-504.60694059355046
aF0.05055470429759027
aF0.8166176118231814
aF-266930.9603585185
aF-1820.5584297295463
aF4329.660105125945
aF-2.6012805404426134
aF-21.009434553536977
aF5.8890494787398134e-15
aF-18588.36868509951
aF33.4613403764403
aF180.19746283184523
aF-0.21285367880359246
aF-0.2916042939750337
aF-772.9877908341164
aF2.970305594551552
aF3.751107765188242
aF-1.0514542489464437e-15
aF-19.29086242279554
aF0.04367059168224448
aF0.031238512260897588
aF-0.26789506267195906
aF7.509232460136205e-17
aF-0.0015935565331195965
aI7
aa(lp155
F71.90042676364511
aF2.276726622656523
aa(lp156
g6
a(lp157
F2.2766992097423344
aF2.276754035570711
aaaa(lp158
(lp159
F5.90042377005846e-11
aF6.235051564352417e-12
aF-1.0366287209063555e-11
aF4.4619000986146833e-13
aF1.0821238352408317e-13
aF3.836225074288516e-16
aF-3.1306989868768156e-16
aF3.1568256015831323e-31
aF1.2241276302929808e-10
aF-3.2403561953183895e-12
aF2.47642944022725e-12
aF1.7437955087048902e-15
aF1.65426231955873e-14
aF1.900096570769721e-18
aF-1.4090418383688568e-17
aF2.791688372365262e-11
aF-4.386189776846681e-14
aF6.801474044897709e-14
aF-8.230925415898413e-17
aF-1.1091682664168837e-15
aF2.740812160472192e-31
aF-1.394450052314972e-12
aF-3.2734343646455254e-15
aF1.0321267589294261e-14
aF2.7596132233455048e-18
aF-6.494078684576685e-18
aF1.6891472683012064e-14
aF-1.7347377418580685e-16
aF-1.1612591204796258e-16
aF3.8521824326690776e-32
aF9.623974941708905e-16
aF1.4313411380284253e-18
aF-6.6370203862527785e-19
aF-1.5296727636775148e-17
aF-2.8061367981088636e-33
aF2.752342800303895e-20
aa(lp160
F-6898812.898274346
aF-404618.1151907444
aF245893.4362195288
aF4391.879282053547
aF-4032.4879064532356
aF-10.672049986691809
aF19.610584885915774
aF-4.7444877169983065e-15
aF-2100499.042807999
aF-53284.19989649581
aF51847.60879819704
aF243.35269717027293
aF-504.5600626546549
aF0.05054965175386744
aF0.8166203833882156
aF-266872.459714509
aF-1820.3065038836112
aF4329.128718297401
aF-2.600942958369315
aF-21.00887901447927
aF5.082784068500041e-15
aF-18585.53294381872
aF33.45599922080596
aF180.18732299635047
aF-0.21285095190041714
aF-0.2916159637795447
aF-772.9212537460846
aF2.9701671909255727
aF3.751145958612887
aF-9.075336625012441e-16
aF-19.290483547971643
aF0.04367172931983497
aF0.031240906568448475
aF-0.26790760217372905
aF6.481623751653698e-17
aF-0.0015937370417373365
aI7
aa(lp161
F71.89911011479312
aF2.2767814484848996
aa(lp162
g6
a(lp163
F2.276754035570711
aF2.2768088613990876
aaaa(lp164
(lp165
F3.344877779894637e-10
aF-6.6399145072331305e-12
aF-9.069438209450336e-12
aF1.6897978103487293e-14
aF1.6905681030611102e-13
aF4.653008496421308e-16
aF-1.6239557303483462e-15
aF1.585401480798706e-31
aF-9.496021199659272e-11
aF3.405885141438629e-12
aF3.2613310853883242e-12
aF1.1804193732163074e-14
aF2.66023442928632e-14
aF2.9594986110524196e-18
aF2.4518070318878623e-17
aF4.9249378830321546e-12
aF3.803514230195531e-14
aF1.7019632758247756e-14
aF-1.3741230338471562e-16
aF-7.174944624216e-16
aF-6.965209006032447e-32
aF1.2548442604525583e-12
aF-3.4940092819241224e-15
aF-1.0765128632704984e-14
aF-4.220352517995672e-18
aF4.79566888711491e-18
aF2.8139600974220562e-14
aF-7.771297104947987e-17
aF-3.627085733460545e-17
aF1.3424684596069662e-33
aF-1.4262549228807823e-15
aF-1.5208223397498224e-18
aF-1.1542568479738445e-18
aF-4.669337358925321e-18
aF-2.5423578873756416e-33
aF8.851619244070813e-20
aa(lp166
F-6896374.999633413
aF-404500.23892216105
aF245830.49864499862
aF4391.023113389829
aF-4031.845216223885
aF-10.67099717812805
aF19.60934818728414
aF5.267310387354453e-15
aF-2099898.254316557
aF-53272.43974536755
aF51837.796416928155
aF243.32354598947774
aF-504.5131908548893
aF0.05054459969492861
aF0.8166231546762532
aF-266813.97415509186
aF-1820.0546217434846
aF4328.59741658936
aF-2.600605421847687
aF-21.008323505052605
aF-5.643092241629075e-15
aF-18582.697740290845
aF33.450658975647606
aF180.1771840508724
aF-0.21284822501025788
aF-0.29162763343455117
aF-772.8547245756145
aF2.9700287966678935
aF3.75118414847961
aF1.0076138707648982e-15
aF-19.290104680770774
aF0.04367286690438342
aF0.031243300938369793
aF-0.26792014150811144
aF-7.196662178002771e-17
aF-0.0015939175618110717
aI7
aa(lp167
F71.89779355344248
aF2.2768362743132755
aa(lp168
g6
a(lp169
F2.2768088613990876
aF2.276863687227464
aaaa(lp170
(lp171
F-2.655918656675887e-10
aF-8.659165520726715e-13
aF-4.124047739069407e-12
aF2.346345583551142e-13
aF-1.200006333070451e-13
aF-1.351036932856197e-16
aF-8.441565747264841e-16
aF6.32363925745462e-33
aF1.9374383718125353e-10
aF3.324655109280843e-12
aF9.763527169753124e-13
aF5.6052700986031644e-15
aF1.9728542109128637e-14
aF-2.182703922585618e-18
aF1.2403293888155993e-17
aF-1.0563549638003376e-11
aF-6.425505191160295e-14
aF3.1663533873252157e-13
aF-6.410414745242909e-17
aF-1.429874466331099e-15
aF-2.3307197995661163e-32
aF-6.019599151576668e-13
aF-1.5153377370604352e-15
aF6.4193212492282646e-15
aF1.0776349159135663e-17
aF2.0474351485661352e-18
aF3.544316827739118e-14
aF-1.7921463108493445e-17
aF-2.1581728771455355e-16
aF5.3048063682477025e-33
aF1.369685764327423e-15
aF2.9117295505118407e-18
aF-7.074072031823911e-19
aF-1.4204172368875003e-17
aF4.0490499830497574e-35
aF5.882365660511402e-20
aa(lp172
F-6893938.05998569
aF-404382.4017626326
aF245767.5796986884
aF4390.167146334183
aF-4031.202654069227
aF-10.66994451628971
aF19.608111615159686
aF4.444857883061833e-16
aF-2099297.661407671
aF-53260.68265679104
aF51827.986277402815
aF243.29439942420618
aF-504.4663251932049
aF0.050539548121952264
aF0.816625925687321
aF-266755.5036757823
aF-1819.802783298326
aF4328.066199984863
aF-2.6002679308862358
aF-21.007768025254368
aF-4.762138503964537e-16
aF-18579.863074393194
aF33.44531964087594
aF180.16704599530053
aF-0.21284549813356365
aF-0.2916393029400542
aF-772.7882033214762
aF2.969890411780479
aF3.7512223347886953
aF8.50344515226657e-17
aF-19.289725821193176
aF0.04367400443593967
aF0.031245695370658712
aF-0.2679326806750983
aF-6.073622545619628e-18
aF-0.0015940980933408727
aI7
aa(lp173
F71.8964770795836
aF2.2768911001416523
aa(lp174
g6
a(lp175
F2.276863687227464
aF2.2769185130558407
aaaa(lp176
(lp177
F-1.8218254164132422e-10
aF7.109503114430287e-14
aF-1.1692331538971546e-11
aF2.1064780102125348e-13
aF1.9332959937341643e-13
aF1.7587785523687053e-16
aF-5.425559772712859e-16
aF2.515391248143631e-32
aF2.1115036928438983e-10
aF2.1780168072815952e-12
aF1.0302863136344907e-12
aF-5.811396093220497e-15
aF-1.6946220820733803e-14
aF-5.775105222805512e-19
aF-2.988179764378145e-17
aF-1.6609369950893136e-11
aF-1.824256458674022e-14
aF3.457801193688055e-13
aF-1.1224235365240074e-16
aF1.3434661720275339e-15
aF-6.00027794248068e-32
aF-7.870548403434394e-13
aF2.1613551992780686e-15
aF8.389457520668193e-15
aF-8.337492628695086e-18
aF5.959591008714718e-18
aF-4.066358493344431e-14
aF-1.0990738942080561e-16
aF-9.675910406775805e-17
aF4.4995674261603986e-32
aF-8.058835991422953e-16
aF2.0713630346349904e-18
aF5.715884214578259e-19
aF2.1771721043654154e-18
aF5.2491664797827655e-34
aF9.04411429556807e-21
aa(lp178
F-6891502.078915273
aF-404264.6036976279
aF245704.67937433164
aF4389.311380831835
aF-4030.5602199585555
aF-10.66889200115967
aF19.60687516952434
aF-3.898461506994799e-15
aF-2098697.2640098548
aF-53248.92862985523
aF51818.17837901956
aF243.26525747370437
aF-504.419465668556
aF0.050534497034089486
aF0.8166286964214453
aF-266697.04827209894
aF-1819.55098854
aF4327.535068466983
aF-2.5999304854674
aF-21.007212575082008
aF4.176892487208154e-15
aF-18577.028946003287
aF33.439981216252754
aF180.15690882952558
aF-0.2128427712700594
aF-0.2916509722960543
aF-772.7216899824476
aF2.9697520362606453
aF3.751260517540436
aF-7.458682020412722e-16
aF-19.289346969239205
aF0.043675141914475954
aF0.031248089865312287
aF-0.26794521967468227
aF5.327591040660234e-17
aF-0.0015942786363268018
aI7
aa(lp179
F71.89516069320699
aF2.276945925970029
aa(lp180
g6
a(lp181
F2.2769185130558407
aF2.276973338884217
aaaa(lp182
(lp183
F-4.226161851466676e-10
aF-1.0353683436897849e-11
aF5.159870627180875e-12
aF2.1181140686602808e-13
aF9.60035465115651e-14
aF-8.048793163155163e-16
aF-7.459346882799659e-16
aF-3.345707986282658e-31
aF-1.7157034679517298e-10
aF-2.3647900330458498e-12
aF-3.2617644411144054e-12
aF-7.711829065420886e-15
aF-8.139898323623975e-15
aF2.2252904238980454e-18
aF2.591141054171049e-17
aF2.8200308220048086e-11
aF1.1933335071869638e-14
aF1.3358566123542569e-13
aF-2.202636216466666e-16
aF5.441044337263085e-16
aF-3.3832102918717737e-32
aF6.956997415542431e-13
aF2.18708661195155e-15
aF8.297468610624839e-16
aF6.906696957853246e-18
aF-1.863805558815402e-17
aF-2.1440396439946994e-14
aF2.7166789399419413e-19
aF9.782071738411909e-17
aF9.509809106149653e-32
aF9.66396428583927e-16
aF-2.945543057299026e-18
aF2.7043864536803264e-18
aF5.4962813194052575e-18
aF-2.5786072152994036e-33
aF2.88077770909612e-20
aa(lp184
F-6889067.056006504
aF-404146.844712589
aF245641.7976656649
aF4388.455816827216
aF-4029.917913861176
aF-10.667839632712914
aF19.605638850360034
aF-5.2260216447007284e-15
aF-2098097.062051661
aF-53237.17766364103
aF51808.37272117719
aF243.23612013708313
aF-504.3726122798968
aF0.05052944643114892
aF0.8166314668786527
aF-266638.60793956224
aF-1819.2992374595005
aF4327.004022018798
aF-2.5995930855820797
aF-21.006657154532952
aF5.599472978682388e-15
aF-18574.195354998665
aF33.43464370158829
aF180.14677255343804
aF-0.212840044419705
aF-0.291662641502552
aF-772.6551845573057
aF2.969613670107218
aF3.7512986967351223
aF-9.99935188774294e-16
aF-19.288968124909196
aF0.04367627933998965
aF0.03125048442232757
aF-0.2679577585068556
aF7.142603495405115e-17
aF-0.0015944591907689207
aI7
aa(lp185
F71.89384439430313
aF2.277000751798405
aa(lp186
g6
a(lp187
F2.276973338884217
aF2.2770281647125934
aaaa(lp188
(lp189
F-4.0139925445811597e-10
aF2.296149888242103e-11
aF-1.0189066887375806e-11
aF-2.8819996495719105e-14
aF-1.8666409152424042e-13
aF-3.10364270559405e-16
aF-1.0939445826875629e-15
aF2.761993568888606e-31
aF1.5194837419805564e-10
aF9.613810494434951e-13
aF-2.7108821094433647e-12
aF-8.628770818698232e-15
aF-1.211650714498091e-14
aF6.151067236961743e-20
aF-4.759740364385547e-18
aF-2.1361210053636916e-11
aF-7.34967677067034e-14
aF3.4321601484010546e-13
aF-7.662563519788082e-17
aF1.4925828397222704e-15
aF8.877805395450771e-33
aF-1.0307021695246065e-12
aF2.8066715323896597e-15
aF8.424591598835105e-15
aF-7.46677473379909e-18
aF-8.251760647503104e-18
aF-4.2369605215529625e-14
aF4.039152015021126e-17
aF1.04351813451122e-16
aF-1.5300945998116502e-33
aF-5.198430317647381e-16
aF-3.452840097325118e-20
aF-2.6805197458334818e-18
aF-8.137006899270861e-18
aF-2.2332428412494426e-34
aF-9.222902010321717e-20
aa(lp190
F-6886632.990843788
aF-404029.1247929702
aF245578.93456642388
aF4387.600454265028
aF-4029.275735746371
aF-10.666787410927258
aF19.60440265764864
aF3.639746353337936e-15
aF-2097497.0554616395
aF-53225.429757232116
aF51798.56930327417
aF243.2069874135013
aF-504.3257650261797
aF0.050524396312700164
aF0.8166342370589701
aF-266580.182673691
aF-1819.0475300481285
aF4326.473060623364
aF-2.5992557312180877
aF-21.00610176360462
aF-3.899985305703559e-15
aF-18571.36230125676
aF33.429307096675
aF180.13663716692798
aF-0.21283731758237473
aF-0.29167431055954846
aF-772.5886870448245
aF2.969475313318468
aF3.751336872373047
aF6.964718558274905e-16
aF-19.288589288203468
aF0.043677416712469046
aF0.031252879041701744
aF-0.2679702971716113
aF-4.9751269088156863e-17
aF-0.0015946397566673001
aI7
aa(lp191
F71.89252818286246
aF2.277055577626782
aa(lp192
g6
a(lp193
F2.2770281647125934
aF2.27708299054097
aaaa(lp194
(lp195
F-3.641420444402639e-10
aF-5.793860081634209e-12
aF-3.5466544821143444e-12
aF4.0620089303640404e-13
aF-1.4967063373887417e-13
aF5.122461658274965e-16
aF-6.544653232287513e-17
aF-5.1470449911037546e-33
aF4.7517244944113074e-11
aF1.97270262274965e-12
aF1.0038114656124066e-12
aF7.063194388902224e-15
aF-5.449323127855896e-15
aF-2.35392381156206e-18
aF-3.3866034602162443e-19
aF1.3071697129072308e-11
aF4.941819257974065e-14
aF-4.137014569108588e-13
aF1.954786065532987e-16
aF-1.2948625705387899e-15
aF2.7301823168826168e-33
aF-2.0738421142233609e-13
aF1.7831731716942282e-15
aF1.3161061352500385e-14
aF5.748599279515765e-18
aF1.2554679284779087e-18
aF2.2136351370923538e-14
aF-8.959701043617305e-17
aF-9.015088408917996e-17
aF-5.4429379896114765e-33
aF-8.025279257318835e-16
aF2.0141885075671123e-18
aF2.0486684311939107e-18
aF-2.522060661814154e-17
aF-7.887076612109855e-36
aF-1.1207203620360217e-20
aa(lp196
F-6884199.883011965
aF-403911.4439241598
aF245516.09007035155
aF4386.7452930881145
aF-4028.6336855834716
aF-10.66573533576191
aF19.603166591372098
aF-3.3383086772705033e-16
aF-2096897.2441684161
aF-53213.68490969332
aF51788.76812470977
aF243.17785930179923
aF-504.2789239063591
aF0.05051934667986725
aF0.8166370069624238
aF-266521.7724700095
aF-1818.7958662951382
aF4325.942184263764
aF-2.598918422383247
aF-21.005546402294417
aF3.5771260474035227e-16
aF-18568.529784655155
aF33.42397140141994
aF180.12650266988558
aF-0.21283459075849825
aF-0.29168597946704417
aF-772.5221974437789
aF2.9693369658962414
aF3.751375044454493
aF-6.388380063101787e-17
aF-19.28821045912228
aF0.04367855403196186
aF0.03125527372343184
aF-0.26798283566894093
aF4.563596506224273e-18
aF-0.0015948203340220022
aI7
aa(lp197
F71.89121205887545
aF2.2771104034551586
aa(lp198
g6
a(lp199
F2.27708299054097
aF2.2771378163693465
aaaa(lp200
(lp201
F1.1516760964130076e-10
aF-2.6328576643852053e-11
aF1.3467657407315648e-11
aF-2.3968562630106464e-13
aF1.2262330526684725e-13
aF7.862080935627453e-16
aF-6.671252080833653e-16
aF-3.7692464460455e-31
aF5.932132717624583e-11
aF3.2655467151388165e-12
aF-2.7025522017549256e-12
aF4.040364683789557e-15
aF-1.84646146777796e-14
aF2.873969160171863e-18
aF4.6383923334424806e-17
aF2.5424922640543184e-11
aF-9.081375703118739e-14
aF-2.9873388522123727e-13
aF-1.2426135428078634e-16
aF7.33950431221269e-16
aF1.2784166766367215e-32
aF-6.330220860293168e-13
aF3.49565637774178e-15
aF-9.272754057347363e-15
aF-3.922631661157085e-18
aF-2.6336579269148292e-17
aF4.604741642153568e-14
aF-2.1932221653729235e-16
aF2.6386234411761574e-17
aF3.682710904933386e-32
aF-9.666084461507816e-16
aF-7.488648986386378e-19
aF-4.381953922757796e-20
aF2.101870847346686e-17
aF4.5431174250591426e-34
aF-1.6762175548072635e-20
aa(lp202
F-6881767.732095891
aF-403793.80209166853
aF245453.26417119036
aF4385.89033324221
aF-4027.9917633418036
aF-10.66468340720403
aF19.601930651512347
aF5.0673633950448536e-15
aF-2096297.628100618
aF-53201.943120119344
aF51778.969184883266
aF243.14873580129694
aF-504.2320889193902
aF0.050514297531446484
aF0.8166397765890404
aF-266463.3773240421
aF-1818.5442461928728
aF4325.411392923087
aF-2.5985811590554384
aF-21.004991070599807
aF-5.43007343290388e-15
aF-18565.697805071504
aF33.41863661555901
aF180.1163690622017
aF-0.21283186394767373
aF-0.29169764822503963
aF-772.4557157529481
aF2.9691986278370397
aF3.7514132129797546
aF9.697909013709598e-16
aF-19.287831637666013
aF0.04367969129842673
aF0.03125766846751494
aF-0.2679953739988374
aF-6.928041795404918e-17
aF-0.0015950009228330884
aI7
aa(lp203
F71.88989602233262
aF2.2771652292835345
aa(lp204
g6
a(lp205
F2.2771378163693465
aF2.277192642197723
aaaa(lp206
(lp207
F2.3018572654594482e-10
aF-1.0271043017397749e-11
aF-7.684059254261556e-12
aF-1.2971826234171813e-13
aF2.2612015352180707e-13
aF-2.0816234692817286e-16
aF-1.2692412152585214e-15
aF2.282368215416635e-32
aF-6.215827193724254e-11
aF1.0922132235872742e-12
aF1.956286900556417e-12
aF-1.4678288578497997e-15
aF2.291947660171285e-14
aF1.8720999175251735e-18
aF5.1831876344696235e-17
aF-1.682546439216257e-11
aF7.325608857111976e-14
aF1.970871769237855e-13
aF-2.0263519594959203e-16
aF8.595121119464489e-16
aF-4.0623448076119214e-33
aF-3.0962874315176075e-13
aF-1.510675712645484e-16
aF-3.958980796529543e-16
aF1.0826839107673922e-17
aF2.6948982868759798e-17
aF-4.929935847086356e-14
aF1.0274167275738191e-16
aF5.456682272019689e-17
aF-4.225598991464417e-34
aF1.4984929354796007e-15
aF3.2736106274037605e-18
aF4.166286159746226e-19
aF-1.0969917868487976e-17
aF3.7068237273881527e-34
aF-4.865734675117298e-20
aa(lp208
F-6879336.537680667
aF-403676.19928090007
aF245390.4568626848
aF4385.03557467037
aF-4027.3499689906826
aF-10.663631625214927
aF19.60069483805127
aF2.697100815503619e-16
aF-2095698.207186898
aF-53190.20438757734
aF51769.17248319379
aF243.1196169108705
aF-504.18526006422576
aF0.05050924886838368
aF0.8166425459388467
aF-266404.99723131285
aF-1818.2926697308158
aF4324.880686584399
aF-2.598243941240182
aF-21.004435768518174
aF-2.890258805034081e-16
aF-18562.86636238332
aF33.413302738986005
aF180.10623634376603
aF-0.2128291371502671
aF-0.29170931683353607
aF-772.3892419711044
aF2.969060299142293
aF3.751451377949118
aF5.1620836171309385e-17
aF-19.28745282383492
aF0.04368082851190461
aF0.031260063273948195
aF-0.26800791216129277
aF-3.687850682968499e-18
aF-0.0015951815231006296
aI7
aa(lp209
F71.88858007322438
aF2.2772200551119113
aa(lp210
g6
a(lp211
F2.277192642197723
aF2.2772474680260997
aaaa(lp212
(lp213
F4.498789651557176e-10
aF-1.6535491821007176e-11
aF-8.034584270218852e-12
aF-9.104716493415975e-14
aF-1.1749059778627756e-13
aF2.3606645183240674e-16
aF1.653470365913009e-15
aF2.2130757815882572e-32
aF-3.3998960815353694e-11
aF-2.583026134861502e-12
aF2.1355503471652758e-13
aF9.43909716786898e-15
aF2.811914564078422e-15
aF2.8119496720652214e-18
aF1.652570298384655e-17
aF2.298510457970242e-11
aF8.378681397363171e-14
aF-2.0971259927468393e-13
aF1.2536092152649832e-16
aF1.7188079956392712e-15
aF3.5749970416359797e-31
aF-7.475971990009847e-13
aF1.2617131249864716e-15
aF-1.1712842939010383e-14
aF5.326156180760249e-18
aF1.3177246640482642e-17
aF-5.517257164871702e-14
aF-8.852465172114914e-17
aF-1.8130326924145693e-16
aF-2.588603703092715e-32
aF-1.6951888200668903e-15
aF-3.101723700720383e-18
aF6.349072990851968e-19
aF8.844003010196047e-18
aF9.111758176286198e-34
aF7.453097014374341e-20
aa(lp214
F-6876906.299351552
aF-403558.63547737093
aF245327.66813858214
aF4384.181017318214
aF-4026.708302499452
aF-10.662579989780317
aF19.599459150970816
aF5.1307718258708204e-15
aF-2095098.9813559426
aF-53178.468711161084
aF51759.378019040996
aF243.0905026298153
aF-504.13843733982117
aF0.05050420068959645
aF0.8166453150118691
aF-266346.6321873495
aF-1818.0411369011533
aF4324.3500652308
aF-2.5979067689169235
aF-21.00388049604697
aF-5.498423066319024e-15
aF-18560.03545646832
aF33.40796977144582
aF180.09610451446946
aF-0.21282641036591984
aF-0.2917209852925339
aF-772.3227760970277
aF2.968921979808783
aF3.7514895393628778
aF9.820697951585433e-16
aF-19.287074017629365
aF0.04368196567235878
aF0.03126245814272867
aF-0.2680204501563
aF-7.016274091170738e-17
aF-0.0015953621348246878
aI7
aa(lp215
F71.88726421154124
aF2.277274880940288
aa(lp216
g6
a(lp217
F2.2772474680260997
aF2.2773022938544765
aaaa(lp218
(lp219
F-2.376299719094229e-10
aF7.173472033182541e-12
aF3.089421079164337e-13
aF2.5919057669550186e-13
aF-1.2205401951588578e-14
aF8.937398446955411e-17
aF-5.395110621255733e-16
aF2.6943248662544386e-32
aF3.689754685955751e-11
aF-2.718857788471561e-12
aF8.122385158047834e-13
aF-8.977805760978385e-15
aF-1.5947823564505846e-14
aF-1.8014914340318985e-18
aF-1.7485227486143145e-17
aF-2.1901759489709942e-11
aF9.754694977028963e-14
aF2.3981771978942643e-13
aF-6.09619848736122e-17
aF1.1089736784058003e-15
aF1.1758337010525777e-31
aF1.5488277587904333e-12
aF3.602983493573663e-16
aF3.7363988643602195e-15
aF-9.955770809755339e-18
aF-1.639103140728978e-17
aF-5.058641807253472e-14
aF1.669234413322023e-16
aF1.0189182162540183e-16
aF1.0922835358623273e-32
aF9.180980508211003e-16
aF-4.5997196039283833e-20
aF2.0467164584218485e-18
aF2.0111359256327356e-17
aF1.5951066670112021e-34
aF1.2304655972174235e-20
aa(lp220
F-6874477.0166941285
aF-403441.11066649464
aF245264.89799263375
aF4383.326661128714
aF-4026.066763837468
aF-10.661528500860099
aF19.598223590252918
aF-2.284058785430027e-15
aF-2094499.9505364834
aF-53166.73608993722
aF51749.58579182473
aF243.0613929569839
aF-504.0916207451312
aF0.05049915299615218
aF0.8166480838081343
aF-266288.28218768095
aF-1817.7896476932208
aF4323.819528845379
aF-2.5975696420927554
aF-21.003325253183604
aF2.4478151984977565e-15
aF-18557.20508720417
aF33.40263771284143
aF180.08597357420203
aF-0.21282368359504134
aF-0.2917326536020338
aF-772.2563181294926
aF2.9687836698382224
aF3.7515276972213165
aF-4.372186977131966e-16
aF-19.286695219049616
aF0.043683102779834816
aF0.03126485307385345
aF-0.2680329879838508
aF3.1237683260948795e-17
aF-0.0015955427580053273
aI7
aa(lp221
F71.88594843727365
aF2.277329706768665
aa(lp222
g6
a(lp223
F2.2773022938544765
aF2.2773571196828533
aaaa(lp224
(lp225
F-2.2241665485534574e-10
aF-2.2370869779686135e-11
aF-2.198302918680339e-12
aF-2.0406761994658198e-13
aF-6.578911338642358e-14
aF-1.4521582558377411e-16
aF3.035405390201776e-16
aF-2.3720305813162054e-32
aF1.0014661703619127e-10
aF-3.2121590346310417e-12
aF3.606160065401966e-12
aF-7.318835633729323e-15
aF-2.4271016657371658e-14
aF-3.3147082483375442e-18
aF-1.1492332211262717e-17
aF-2.0091154428506756e-11
aF6.561833486104054e-14
aF1.6187692173637876e-13
aF-9.239478946387157e-17
aF2.0801356352996133e-16
aF2.719194509480197e-32
aF5.595708416828242e-13
aF-2.4258696494381093e-16
aF1.2113175953944632e-15
aF7.08951912649097e-19
aF-1.0842328658835119e-17
aF-2.35396327547123e-14
aF-1.4000830208024296e-16
aF-8.037854598759473e-18
aF-9.613405781947178e-34
aF1.059511123153077e-15
aF-4.118781992222512e-19
aF-7.202169183637693e-19
aF1.5538802648330578e-17
aF-5.648650910465754e-34
aF9.296455162684816e-20
aa(lp226
F-6872048.689293996
aF-403323.62483380665
aF245202.14641859042
aF4382.472506047728
aF-4025.425352974079
aF-10.66047715844211
aF19.596988155879504
aF1.3343155399668743e-15
aF-2093901.1146572528
aF-53155.00652300221
aF51739.79580094482
aF243.03228789170814
aF-504.04481027911106
aF0.05049410578679094
aF0.8166508523276687
aF-266229.9472278369
aF-1817.5382020994402
aF4323.289077411236
aF-2.59723256074484
aF-21.00277003992552
aF-1.4300321163492374e-15
aF-18554.375254468607
aF33.397306562904696
aF180.07584352285454
aF-0.21282095683720964
aF-0.2917443217620367
aF-772.1898680672784
aF2.9686453692269836
aF3.751565851524731
aF2.5543581366081866e-16
aF-19.286316428096043
aF0.04368423983428921
aF0.03126724806731965
aF-0.2680455256439382
aF-1.8250626445267882e-17
aF-0.0015957233926426131
aI7
aa(lp227
F71.88463275041214
aF2.2773845325970417
aa(lp228
g6
a(lp229
F2.2773571196828533
aF2.27741194551123
aaaa(lp230
(lp231
F4.685993250513409e-12
aF-1.495286896524677e-11
aF7.500731465031958e-12
aF-4.235297380365966e-13
aF-1.9263229317573937e-13
aF-7.901561799431568e-16
aF-7.669873945406052e-16
aF-1.576887214248455e-31
aF-2.474430502580152e-11
aF1.788941247865742e-12
aF-2.6115897635848135e-12
aF7.011179886366977e-16
aF-4.668580278387943e-15
aF3.236163916176807e-18
aF-4.114957518935625e-17
aF-1.5207267877938083e-11
aF1.971330596322725e-15
aF-3.888026912562583e-13
aF1.6939471152847179e-16
aF-4.137080888212248e-16
aF-7.437948149052788e-32
aF-1.4566948890128074e-12
aF-1.0850783376574519e-15
aF-1.242911922485968e-15
aF6.140759734801867e-18
aF2.4878562287748265e-17
aF2.0749280307652058e-14
aF1.7391744655522102e-16
aF2.3818261102835903e-17
aF2.4733206056134965e-33
aF1.6130701632551144e-15
aF3.26613354773728e-19
aF9.705378798685812e-19
aF3.431648718592406e-18
aF-1.2403190898899072e-33
aF1.2566151071355838e-20
aa(lp232
F-6869621.316737095
aF-403206.17796475627
aF245139.4134102076
aF4381.618552018849
aF-4024.7840698786545
aF-10.659425962491973
aF19.595752847832518
aF3.302270367246576e-15
aF-2093302.4736470343
aF-53143.28000942935
aF51730.00804580146
aF243.00318743293897
aF-503.998005940716
aF0.05048905906210424
aF0.816653620570499
aF-266171.62730334915
aF-1817.2868001097822
aF4322.758710911469
aF-2.596895524874152
aF-21.002214856270133
aF-3.5392869212513055e-15
aF-18551.545958139373
aF33.39197632150366
aF180.06571436031723
aF-0.21281823009266412
aF-0.2917559897725432
aF-772.1234259091614
aF2.968507077975687
aF3.7516040022734067
aF6.322191763977799e-16
aF-19.28593764476893
aF0.043685376835749315
aF0.03126964312312434
aF-0.2680580631365543
aF-4.517306405480953e-17
aF-0.0015959040387366098
aI7
aa(lp233
F71.88331715094715
aF2.2774393584254184
aa(lp234
g6
a(lp235
F2.27741194551123
aF2.2774667713396064
aaaa(lp236
(lp237
F2.3468783355482005e-10
aF-1.5677571893194263e-11
aF6.848253847001121e-12
aF4.3886775188428047e-13
aF-1.7749167916215107e-13
aF-7.178132103463639e-16
aF7.185057906376727e-16
aF-2.977688041057439e-31
aF-9.362077410302275e-11
aF-3.550880098504455e-12
aF2.9336519784317317e-12
aF7.09013000526374e-15
aF1.858654404004076e-14
aF2.2071305350603168e-18
aF-8.244828702513181e-18
aF-1.3289372528709949e-12
aF-5.949735835786754e-14
aF1.324682864203645e-14
aF2.124146575221643e-16
aF1.0852328777714458e-15
aF2.6861372996294067e-32
aF-1.3819441305237708e-12
aF-7.901698684313658e-16
aF7.797874133117848e-15
aF-2.9964636629946397e-18
aF-3.057863906000176e-18
aF3.4947464747785065e-15
aF-3.5639717314544825e-18
aF-8.529455181800739e-18
aF-2.7372118165656436e-32
aF3.500564995442245e-16
aF-2.504473818868777e-18
aF-2.098414611170349e-18
aF7.387456309438824e-18
aF-1.2310877226154718e-33
aF2.693954823882519e-20
aa(lp238
F-6867194.8986095805
aF-403088.77004481247
aF245076.69896124388
aF4380.764798985997
aF-4024.142914520581
aF-10.658374912978198
aF19.594517666093914
aF-4.433423513320021e-15
aF-2092704.0274346475
aF-53131.556548295455
aF51720.22252579514
aF242.97409157967712
aF-503.95120772890215
aF0.05048401282244546
aF0.8166563885366516
aF-266113.322409752
aF-1817.0354417145397
aF4322.2284293291905
aF-2.596558534478609
aF-21.001659702214877
aF4.751801168530929e-15
aF-18548.717198094295
aF33.386646988488984
aF180.0555860864806
aF-0.21281550336155913
aF-0.2917676576335538
aF-772.0569916539191
aF2.9683687960844107
aF3.7516421494676306
aF-8.488404155920163e-16
aF-19.285558869068566
aF0.043686513784233376
aF0.03127203824126459
aF-0.26807060046169107
aF6.065321553554705e-17
aF-0.0015960846962873793
aI7
aa(lp239
F71.88200163886918
aF2.2774941842537944
aa(lp240
g6
a(lp241
F2.2774667713396064
aF2.2775215971679827
aaaa(lp242
(lp243
F-2.6368394418753303e-10
aF-1.552120237234057e-11
aF9.308076063443668e-13
aF-7.637714633539465e-14
aF1.1307571053471731e-13
aF1.5907836275674522e-16
aF4.399710100449356e-16
aF1.158158567108766e-31
aF-7.136109875233307e-11
aF4.429203181095488e-13
aF-2.2012849072916368e-12
aF-2.074546119569405e-15
aF2.231946326439157e-14
aF-1.1846182372904574e-18
aF-1.645111938508086e-17
aF-1.4571202841278792e-12
aF-3.2087888855129854e-14
aF-6.923065712281696e-14
aF-9.636879448201593e-17
aF7.900662065933517e-16
aF1.3713959804948949e-31
aF-9.530819916255215e-13
aF2.3137423771473882e-15
aF-1.7646714118749262e-15
aF1.3726265265850566e-17
aF2.1271146331634967e-17
aF3.447343220891996e-14
aF3.360116735657751e-17
aF7.434155003121828e-17
aF5.9393689617097695e-33
aF1.1266492015048092e-15
aF-3.4481995790601712e-18
aF2.4516790876758243e-19
aF-1.352855019135062e-17
aF-2.382968105141882e-33
aF8.691457258539463e-20
aa(lp244
F-6864769.434497574
aF-402971.4010595159
aF245014.00306545527
aF4379.9112468948315
aF-4023.501886869215
aF-10.657324009886418
aF19.593282610645602
aF-2.101889025469217e-15
aF-2092105.7759488944
aF-53119.83613869525
aF51710.43924032597
aF242.94500033121665
aF-503.90441564262386
aF0.05047896706673664
aF0.8166591562261533
aF-266055.03254257765
aF-1816.7841269058918
aF4321.6982326474945
aF-2.5962215895377083
aF-21.00110457775717
aF2.2529145376964805e-15
aF-18545.888974211113
aF33.38131856360587
aF180.04545870123508
aF-0.21281277664353765
aF-0.2917793253450697
aF-771.9905653003294
aF2.968230523549939
aF3.7516802931076985
aF-4.0246526280735226e-16
aF-19.28518010099532
aF0.04368765067970487
aF0.03127443342173756
aF-0.2680831376193419
aF2.8758887220321773e-17
aF-0.001596265365294992
aI7
aa(lp245
F71.8806862141687
aF2.277549010082171
aa(lp246
g6
a(lp247
F2.2775215971679827
aF2.2775764229963595
aaaa(lp248
(lp249
F-3.6945004938650275e-10
aF-2.321949529652774e-11
aF-4.0113009762709685e-12
aF-4.4476766608465534e-13
aF-1.7336078945396497e-13
aF3.8210602937575364e-16
aF-1.2678019405761137e-15
aF-3.983821707872093e-33
aF-4.391787691581593e-11
aF-2.5502959874818673e-12
aF-2.2422342568402952e-12
aF-4.3016725015475935e-15
aF1.0991233619818957e-14
aF1.1570421032564446e-18
aF2.5761418845611386e-17
aF7.308380759175279e-12
aF-8.603565859876646e-14
aF3.835349859096777e-13
aF9.095957572316063e-17
aF1.7304953527314923e-15
aF-6.435686155211189e-33
aF1.7077039392077862e-12
aF-3.199551707819137e-15
aF1.1173246529066472e-14
aF1.1004050734038295e-17
aF3.3445311435573386e-18
aF2.8599850915146714e-14
aF-1.7577801728187294e-16
aF-1.7679037736985406e-16
aF1.2194899594267221e-33
aF1.6075337541570517e-15
aF-6.238356519047659e-19
aF-9.53293519536002e-19
aF2.7548793452987713e-17
aF4.523582604408902e-35
aF5.0998263187419147e-20
aa(lp250
F-6862344.923987636
aF-402854.0709943415
aF244951.32571660518
aF4379.057895689157
aF-4022.8609868939598
aF-10.656273253183697
aF19.59204768146955
aF-1.1032944156655127e-16
aF-2091507.7191186536
aF-53108.118779704644
aF51700.65818879481
aF242.91591368653374
aF-503.85762968083776
aF0.050473921795452244
aF0.8166619236390305
aF-265996.75769736344
aF-1816.532855673975
aF4321.1681208495
aF-2.595884690050929
aF-21.00054948289445
aF1.1826119120922236e-16
aF-18543.061286367716
aF33.375991046713985
aF180.03533220447116
aF-0.21281004993879724
aF-0.2917909929070913
aF-771.9241468471703
aF2.968092260372628
aF3.7517184331938966
aF-2.112719437900898e-17
aF-19.284801340549475
aF0.04368878752218666
aF0.03127682866454032
aF-0.26809567460949874
aF1.50973734583394e-18
aF-0.0015964460457595097
aI7
aa(lp251
F71.8793708768362
aF2.277603835910548
aa(lp252
g6
a(lp253
F2.2775764229963595
aF2.277631248824736
aaaa(lp254
(lp255
F2.735612899043704e-10
aF-1.5313311404644734e-11
aF1.0876594528349993e-11
aF3.58314552222711e-14
aF-9.133498382309369e-14
aF-3.000956337904672e-16
aF-1.0082579004866149e-16
aF-7.501897245470513e-32
aF-1.7918707761777766e-11
aF1.5396308162613216e-12
aF-3.1120216220315348e-12
aF-2.2889442732314714e-15
aF-1.3045041783822377e-14
aF2.6670932942327152e-18
aF-1.544210500031304e-17
aF2.2076814113664076e-11
aF4.0535561707842533e-16
aF4.2173572758581176e-13
aF-1.1015806229921476e-16
aF-1.5447756586941678e-15
aF-5.953763364480879e-32
aF-1.1253341636967651e-12
aF2.3640539098026794e-15
aF1.3035128148440975e-15
aF-7.406645289510276e-18
aF1.4818110819934797e-17
aF-2.1619037557213986e-14
aF-2.1507139010101202e-16
aF2.1866389343903998e-16
aF1.1852924541804628e-32
aF1.5715934564168773e-15
aF-2.0033346694635123e-18
aF-6.437332137398439e-19
aF-2.3302953323966543e-17
aF-5.3189594500764974e-34
aF1.3549659073441228e-20
aa(lp256
F-6859921.366666479
aF-402736.7798347971
aF244888.66690845866
aF4378.204745313456
aF-4022.2202145642264
aF-10.655222642843546
aF19.59081287854772
aF1.567934625535227e-15
aF-2090909.8568728259
aF-53096.40447040668
aF51690.8793706027
aF242.8868316447153
aF-503.8108498425008
aF0.050468877008530116
aF0.8166646907753098
aF-265938.4978696479
aF-1816.2816280096401
aF4320.638093918334
aF-2.595547836010848
aF-20.99999441762414
aF-1.6807173131388836e-15
aF-18540.234134442024
aF33.37066443763352
aF180.02520659607956
aF-0.21280732324734378
aF-0.2918026603196193
aF-771.857736293221
aF2.9679540065516
aF3.751756569726513
aF3.0026875703023616e-16
aF-19.284422587731353
aF0.043689924311681075
aF0.031279223969669916
aF-0.2681082114321537
aF-2.1457820596873367e-17
aF-0.001596626737680994
aI7
aa(lp257
F71.87805562686219
aF2.277658661738924
aa(lp258
g6
a(lp259
F2.277631248824736
aF2.2776860746531122
aaaa(lp260
(lp261
F-2.4293407918581066e-10
aF2.2773264411860306e-11
aF-1.3378986060448748e-13
aF-8.525207862471062e-14
aF-5.3208009786532945e-14
aF-6.258787600882701e-16
aF8.713746418781502e-16
aF-2.985672301176515e-31
aF-3.124490445181504e-13
aF3.4536262694620742e-12
aF-7.244514942939709e-13
aF-1.0738472711426495e-14
aF3.8438178481950734e-15
aF2.5976733581806902e-18
aF-3.17312328745345e-17
aF-2.5834358070490915e-11
aF-7.292538079884045e-14
aF1.5648006305242946e-13
aF-1.0686236823194334e-16
aF-1.2683921373238128e-16
aF-3.6499429583947305e-31
aF-4.451371359048401e-13
aF-2.4719902054641647e-16
aF8.697897548085282e-16
aF-6.903803622892799e-18
aF4.05506309696073e-18
aF4.9710782132797086e-14
aF1.6663511359459176e-16
aF-2.756690284082666e-17
aF-2.7496232511740017e-32
aF3.5930410569742437e-16
aF3.0654182960094882e-18
aF-2.1329508154285436e-18
aF-1.1433144566856159e-17
aF-6.6019369061175535e-34
aF-2.0907547274539897e-20
aa(lp262
F-6857498.762120919
aF-402619.5275663727
aF244826.0266347806
aF4377.351795711749
aF-4021.579569849404
aF-10.654172178835113
aF19.589578201862032
aF-4.042264886149676e-15
aF-2090312.1891403166
aF-53084.69320987956
aF51681.10278515039
aF242.85775420477296
aF-503.7640761265678
aF0.05046383270626793
aF0.8166674576350178
aF-265880.25305496843
aF-1816.0304439032502
aF4320.1081518370975
aF-2.595211027414658
aF-20.99943938194366
aF4.3331865325406034e-15
aF-18537.407518311862
aF33.36533873621098
aF180.01508187595033
aF-0.21280459656931172
aF-0.29181432758265474
aF-771.7913336372575
aF2.9678157620867984
aF3.7517947027058374
aF-7.741742997482526e-16
aF-19.284043842541234
aF0.04369106104820426
aF0.03128161933712353
aF-0.2681207480872995
aF5.532610626289316e-17
aF-0.0015968074410595155
aI7
aa(lp263
F71.8767404642371
aF2.2777134875673006
aa(lp264
g6
a(lp265
F2.2776860746531122
aF2.277740900481489
aaaa(lp266
(lp267
F-3.0912777329680633e-10
aF-8.46357663502657e-12
aF8.922932200714062e-12
aF3.468059119376947e-14
aF-8.211001788280451e-14
aF-6.959289351744318e-16
aF-3.047741550343795e-16
aF3.3825493285066333e-31
aF-8.389517805615638e-11
aF-2.7068705248983162e-12
aF-5.014250342226578e-13
aF-7.689306238315143e-15
aF2.3732468074119014e-15
aF2.8813878091597582e-18
aF-5.259756449738316e-17
aF-1.7389418361574363e-11
aF-6.172491102015188e-14
aF1.615382115010485e-13
aF9.809650913205883e-17
aF1.3390706975600808e-15
aF-2.7411120883562054e-31
aF-1.3772721663334713e-12
aF-4.745102179752574e-16
aF-9.400974532963717e-15
aF1.0775332448063058e-17
aF-1.3491080189388408e-17
aF5.004976523549549e-14
aF9.107506570934676e-17
aF-1.862782224659098e-16
aF1.9120971746222758e-33
aF-1.5462305041506723e-15
aF3.3833920260574313e-18
aF-1.0809444824809355e-19
aF-1.7114860946143114e-17
aF-4.904767053429617e-35
aF7.833329810244838e-20
aa(lp268
F-6855077.109937978
aF-402502.3141746414
aF244763.40488933938
aF4376.499046829874
aF-4020.9390527189134
aF-10.653121861144788
aF19.588343651394467
aF3.944151262903197e-15
aF-2089714.715850071
aF-53072.98499722053
aF51671.32843183919
aF242.8286813660147
aF-503.7173085319962
aF0.05045878888753085
aF0.816670224218181
aF-265822.02324886614
aF-1815.7793033470807
aF4319.578294588927
aF-2.5948742642411466
aF-20.998884375850455
aF-4.228166393470064e-15
aF-18534.58143785524
aF33.360013942187805
aF180.0049580439745
aF-0.21280186990432365
aF-0.29182599469619813
aF-771.7249388780614
aF2.967677526974885
aF3.7518328321321635
aF7.554388705041079e-16
aF-19.283665104979498
aF0.043692197731717466
aF0.031284014766898204
aF-0.26813328457492897
aF-5.3989160686758836e-17
aF-0.001596988155895136
aI7
aa(lp269
F71.87542538895147
aF2.2777683133956774
aa(lp270
g6
a(lp271
F2.277740900481489
aF2.277795726309866
aaaa(lp272
(lp273
F-4.407771752463818e-10
aF1.9566096448624044e-11
aF1.991736286003021e-12
aF-1.6640242327199393e-14
aF8.070652044557312e-14
aF-2.0546634291841814e-16
aF2.833483694257271e-17
aF-3.341791131205993e-31
aF8.712984762463949e-11
aF-1.3292968507979227e-12
aF6.450009778776409e-13
aF-1.0400414871973482e-14
aF-1.2344195373195806e-14
aF-3.1397067550625627e-18
aF4.498299764050293e-17
aF-1.645173173857424e-11
aF9.626267223401287e-14
aF4.2362682657238443e-13
aF1.818977289757824e-16
aF4.722840133330063e-16
aF1.3856649323593259e-31
aF-4.492471687909927e-13
aF-2.634356556625893e-15
aF-6.933014368581269e-15
aF-1.2963011298433284e-17
aF1.031784915474351e-17
aF-4.895010996391239e-14
aF-1.5839999826220236e-16
aF9.296707405762673e-17
aF-3.046010466780437e-33
aF-1.6555543595538726e-15
aF-8.47289684656951e-19
aF1.1057494149352357e-18
aF2.299502216256942e-17
aF-4.99737019081589e-33
aF-8.162863718090614e-20
aa(lp274
F-6852656.409705
aF-402385.13964507345
aF244700.8016659075
aF4375.646498611029
aF-4020.298663142187
aF-10.652071689733164
aF19.58710922712698
aF4.610478059924083e-15
aF-2089117.4369310807
aF-53061.27983149974
aF51661.556310070606
aF242.79961312730606
aF-503.67054705774274
aF0.05045374555333371
aF0.8166729905248259
aF-265763.80844688363
aF-1815.5282063305585
aF4319.048522156948
aF-2.5945375464967393
aF-20.998329399341937
aF-4.942655696055725e-15
aF-18531.755892950117
aF33.354690055463436
aF179.99483510004234
aF-0.2127991432527702
aF-0.29183766166025027
aF-771.6585520144096
aF2.967539301217454
aF3.7518709580057745
aF8.831277007224414e-16
aF-19.2832863750464
aF0.043693334362264274
aF0.031286410258991044
aF-0.2681458208950339
aF-6.311704344736644e-17
aF-0.0015971688821879194
aI7
aa(lp275
F71.87411040099576
aF2.277823139224054
aa(lp276
g6
a(lp277
F2.277795726309866
aF2.2778505521382426
aaaa(lp278
(lp279
F-1.3317843021630516e-10
aF5.591755282426956e-13
aF1.4169333230504105e-11
aF1.5485755271930417e-13
aF3.184078225336725e-14
aF-6.845748149370096e-16
aF-4.387823521278634e-16
aF-7.642678441651919e-32
aF-1.0402456996233444e-10
aF-1.319702640264068e-12
aF-2.101162741691463e-12
aF-1.6309593333632055e-16
aF2.500188445890438e-15
aF1.8507942523539404e-18
aF4.763173147398817e-17
aF-2.6827416125770264e-12
aF-7.158129857453356e-14
aF3.8220076398829706e-13
aF-1.224849145153782e-16
aF-1.3434412065691001e-15
aF8.750296060994373e-32
aF-6.537413601979035e-14
aF3.670865736014219e-16
aF-5.826463567482377e-16
aF8.118613748545809e-18
aF1.2251111986332795e-17
aF-2.8423770078554205e-15
aF1.1444797570460575e-17
aF-7.927458402282879e-17
aF-7.188614723251259e-33
aF-2.7576266011117075e-16
aF1.0355569186402773e-18
aF-2.6856300095587217e-18
aF-7.793682763377863e-18
aF5.086997016907121e-34
aF-8.070085713160162e-21
aa(lp280
F-6850236.661009437
aF-402268.00396320136
aF244638.2169582583
aF4374.794150999824
aF-4019.6584010886572
aF-10.651021664574433
aF19.585874929041537
aF-9.241588347352329e-16
aF-2088520.3523123506
aF-53049.577711802005
aF51651.786419246244
aF242.77054948774588
aF-503.6237917027645
aF0.05044870270355808
aF0.8166757565549791
aF-265705.6086445645
aF-1815.277152844613
aF4318.518834524294
aF-2.5942008741732905
aF-20.997774452415538
aF9.907792651735887e-16
aF-18528.93088347451
aF33.34936707585403
aF179.9847130440444
aF-0.2127964166146372
aF-0.2918493284748118
aF-771.5921730450816
aF2.967401084813497
aF3.751909080326961
aF-1.7703370088237279e-16
aF-19.28290765274226
aF0.04369447093984486
aF0.03128880581339915
aF-0.2681583570476067
aF1.265304285213049e-17
aF-0.0015973496199379311
aI7
aa(lp281
F71.87279550036047
aF2.277877965052431
aa(lp282
g6
a(lp283
F2.2778505521382426
aF2.2779053779666194
aaaa(lp284
(lp285
F-2.7685678744030964e-10
aF1.0553634415508702e-11
aF3.782125938051542e-12
aF-3.85203802578307e-13
aF-1.9743823732829165e-13
aF-9.976387501950238e-18
aF-4.282837456067812e-17
aF5.666257559417274e-34
aF3.653088715567361e-12
aF-8.85924416798365e-13
aF1.0246850621490223e-12
aF-5.74829437553535e-15
aF-2.6095423355609005e-14
aF1.8457792783740359e-19
aF-3.9320851291478594e-17
aF1.9874968901588326e-11
aF-6.999611993209019e-14
aF2.331431991500006e-13
aF1.0759681155277329e-16
aF-5.451382866426791e-16
aF-4.942893727369112e-32
aF-1.2836158484185253e-12
aF-4.949323121234716e-16
aF-4.305449557362556e-16
aF-2.879425299399783e-18
aF-1.5757414652112272e-17
aF5.656670581230485e-14
aF4.680476626920327e-17
aF-1.6309607001327576e-16
aF2.0871786566109094e-33
aF8.586225895042439e-16
aF7.108341183026219e-19
aF-1.6677850374574834e-18
aF-2.2935129726098506e-17
aF1.0037419901171316e-33
aF-5.736885494805767e-20
aa(lp286
F-6847817.863438894
aF-402150.90711459046
aF244575.6507601669
aF4373.942003941547
aF-4019.018266527764
aF-10.649971785649226
aF19.584640757120106
aF-1.109901842440417e-15
aF-2087923.4619229098
aF-53037.878637219226
aF51642.01875876783
aF242.7414904465436
aF-503.5770424660187
aF0.0504436603375492
aF0.8166785223086673
aF-265647.42383745365
aF-1815.0261428808867
aF4317.989231674103
aF-2.5938642472557616
aF-20.997219535068698
aF1.1899555849461296e-15
aF-18526.10640930647
aF33.3440450031364
aF179.9745918758715
aF-0.21279368998971865
aF-0.2918609951398835
aF-771.525801968858
aF2.9672628777607755
aF3.7519471990960147
aF-2.1263055884759473e-16
aF-19.28252893806742
aF0.04369560746443887
aF0.031291201430119604
aF-0.2681708930326402
aF1.5197795658192477e-17
aF-0.0015975303691452352
aI7
aa(lp287
F71.8714806870361
aF2.277932790880808
aa(lp288
g6
a(lp289
F2.2779053779666194
aF2.2779602037949958
aaaa(lp290
(lp291
F3.052858067262098e-10
aF-1.452964173772943e-11
aF1.2391557443680598e-11
aF3.3642726872700015e-13
aF-2.631706978221529e-14
aF-5.549848015139094e-16
aF1.817267572886122e-16
aF4.664579915651367e-32
aF8.520093877923525e-11
aF-5.988452004652491e-14
aF1.254703688338358e-12
aF-1.2123631411775512e-14
aF-7.198361686324183e-15
aF-9.779085671943128e-19
aF-3.663295668800789e-17
aF2.819350155565539e-12
aF-9.121603905574263e-14
aF-4.1375212154846585e-13
aF1.5406432181703435e-16
aF9.723407021049539e-16
aF1.5571162386058346e-31
aF-6.51730620514136e-13
aF2.177343057491207e-15
aF8.906053178242559e-15
aF1.1254407809553914e-17
aF-4.146279831503049e-18
aF-1.0465902468481436e-14
aF7.309121926327029e-17
aF9.70134291560786e-17
aF4.7278196548074694e-32
aF1.1559499996444426e-15
aF-1.984194173601366e-18
aF3.0496682869146353e-18
aF1.3106400976746973e-17
aF-4.0416535982206235e-35
aF-2.4472994786257593e-20
aa(lp292
F-6845400.016581286
aF-402033.8490847663
aF244513.10306541287
aF4373.090057380342
aF-4018.378259428971
aF-10.648922052926745
aF19.583406711344676
aF-2.9650554062917855e-15
aF-2087326.7656918361
aF-53026.18260683173
aF51632.253328037536
aF242.71243600271288
aF-503.5302993464637
aF0.05043861845560723
aF0.8166812877859168
aF-265589.2540210987
aF-1814.7751764297636
aF4317.459713589525
aF-2.593527665741396
aF-20.99666464729885
aF3.1790318683676204e-15
aF-18523.28247032412
aF33.33872383715763
aF179.9644715954143
aF-0.21279096337814996
aF-0.29187266165546594
aF-771.4594387845186
aF2.9671246800592455
aF3.751985314313222
aF-5.680750292586825e-16
aF-19.282150231022175
aF0.04369674393606249
aF0.03129359710914947
aF-0.2681834288501264
aF4.0604718949603827e-17
aF-0.0015977111298098934
aI7
aa(lp293
F71.87016596101316
aF2.2779876167091837
aa(lp294
g6
a(lp295
F2.2779602037949958
aF2.278015029623372
aaaa(lp296
(lp297
F-3.356671780178994e-11
aF-2.2722306704340485e-11
aF-5.724211865742363e-12
aF1.3754258924775435e-13
aF-1.7942885640253732e-13
aF-1.1544308909274413e-16
aF3.972369792322109e-16
aF1.0630052594798573e-31
aF-2.4943491645039467e-11
aF-1.271782249020214e-12
aF-1.1437564357543592e-12
aF8.497712843610788e-15
aF-4.230727714666384e-15
aF-1.799339324470916e-18
aF3.293596740352254e-17
aF-1.0123015933530676e-11
aF-7.643816469395453e-14
aF1.5238393670809182e-13
aF-3.768120801068215e-17
aF1.089834022562558e-15
aF6.718534578055876e-32
aF2.6945546271373864e-13
aF-2.8583002479198774e-15
aF2.9242057616914647e-15
aF-1.527642557646111e-18
aF-6.602664645856455e-18
aF-7.444656252562754e-15
aF-1.111924631215014e-16
aF5.8651125411951174e-18
aF-1.8330296336032483e-32
aF4.561101259573108e-16
aF-6.459822686899731e-19
aF2.018389833461479e-18
aF1.1202712358291628e-17
aF2.795344427061638e-33
aF-1.4357450111882572e-20
aa(lp298
F-6842983.120024538
aF-401916.8298592962
aF244450.57386777413
aF4372.238311261354
aF-4017.738379761714
aF-10.64787246638613
aF19.582172791697182
aF2.6821194079365935e-15
aF-2086730.2635481972
aF-53014.48961973012
aF51622.49012645716
aF242.6833861554374
aF-503.48356234305567
aF0.0504335770571996
aF0.8166840529867541
aF-265531.0991910458
aF-1814.52425348272
aF4316.930280253685
aF-2.59319112961672
aF-20.99610978910341
aF-2.8757826904887106e-15
aF-18520.459066405485
aF33.333403577703436
aF179.95435220256323
aF-0.21278823677976874
aF-0.29188432802156017
aF-771.3930834908424
aF2.966986491706945
aF3.7520234259788765
aF5.139049152971192e-16
aF-19.281771531606857
aF0.04369788035470007
aF0.03129599285048592
aF-0.2681959645000584
aF-3.6734105513606574e-17
aF-0.001597891901931976
aI7
aa(lp299
F71.86885132228211
aF2.2780424425375605
aa(lp300
g6
a(lp301
F2.278015029623372
aF2.278069855451749
aaaa(lp302
(lp303
F-1.553176734077613e-10
aF-2.0118154642137164e-11
aF-2.3174071286391123e-12
aF1.6804668851048445e-13
aF8.194419689918208e-15
aF8.698822225111495e-16
aF-1.7425445494975982e-15
aF2.640884077226928e-31
aF-1.103995279112885e-10
aF2.209959525726578e-12
aF1.311917315252794e-12
aF-4.395178494239495e-15
aF6.572360790393282e-15
aF9.3780866824899e-19
aF8.888291343028652e-18
aF2.6120653430499618e-11
aF-3.612972123228528e-14
aF-3.0403885918430713e-13
aF-5.64582652195928e-17
aF1.0642448892918887e-15
aF2.8454355092729516e-31
aF1.336803045512131e-13
aF1.8372057254492008e-15
aF1.763509073288938e-16
aF1.2588470699262162e-17
aF-9.766568748174879e-18
aF-4.834932884433977e-14
aF1.2900418218186523e-16
aF2.4280379960812326e-17
aF-9.382451674070808e-32
aF-5.849418530064385e-16
aF-1.2673217991331794e-18
aF1.3303830249509094e-18
aF9.577009006771102e-18
aF2.293399658532473e-33
aF-2.4834808932231945e-21
aa(lp304
F-6840567.173357013
aF-401799.84942368214
aF244388.06316103585
aF4371.386765527881
aF-4017.0986274954785
aF-10.646823025987992
aF19.580938998159624
aF-5.142531377571522e-15
aF-2086133.9554211379
aF-53002.79967498628
aF51612.72915342929
aF242.65434090358386
aF-503.43683145475313
aF0.050428536143344034
aF0.8166868179112059
aF-265472.959342846
aF-1814.2733740291956
aF4316.400931649741
aF-2.5928546388882054
aF-20.995554960479804
aF5.514051199686733e-15
aF-18517.636197428732
aF33.3280842246737
aF179.9442336972088
aF-0.21278551019496686
aF-0.29189599423816676
aF-771.3267360866083
aF2.9668483127054763
aF3.7520615340932606
aF-9.854018835086126e-16
aF-19.281392839821724
aF0.04369901672039531
aF0.031298388654126014
aF-0.2682084999824278
aF7.043945272597303e-17
aF-0.0015980726855115447
aI7
aa(lp305
F71.86753677083345
aF2.2780972683659373
aa(lp306
g6
a(lp307
F2.278069855451749
aF2.2781246812801252
aaaa(lp308
(lp309
F-2.764523120831166e-10
aF-1.0406111486147893e-11
aF-1.103991263435329e-12
aF1.0780172099103939e-13
aF1.7909616126465901e-13
aF6.8575572378773635e-16
aF1.0807532458522576e-15
aF-7.517459119478087e-32
aF-3.2034891522653673e-11
aF1.3008817647467985e-12
aF-7.521662167982781e-13
aF5.4856635276856614e-15
aF-3.124265028914696e-15
aF-1.4846010448234028e-18
aF-5.054430791695734e-17
aF-4.164623678839399e-12
aF1.8899197933147847e-16
aF8.182913673079706e-14
aF-2.111931682460356e-18
aF-1.5691116658088229e-15
aF1.6654759370114873e-31
aF-7.26841832620593e-13
aF9.753302635184188e-16
aF1.2353693765488741e-14
aF6.672748588437082e-18
aF-6.339344553620571e-19
aF-3.684486184237324e-14
aF1.4432284730469145e-17
aF-1.8724059454510913e-16
aF-6.87022035378533e-33
aF2.49181127402199e-16
aF1.3526145509902703e-18
aF2.655706466169875e-19
aF-1.2883912006769949e-17
aF7.690188709314697e-34
aF5.468396783777815e-20
aa(lp310
F-6838152.176167084
aF-401682.9077635476
aF244325.57093898268
aF4370.535420126098
aF-4016.459002599744
aF-10.645773731720846
aF19.579705330713995
aF-2.1594866894240125e-15
aF-2085537.841239803
aF-52991.11277170182
aF51602.97040835651
aF242.62530024649743
aF-503.39010668051515
aF0.05042349571273144
aF0.8166895825592987
aF-265414.8344720507
aF-1814.0225380617107
aF4315.871667760856
aF-2.592518193532411
aF-20.995000161425487
aF2.315582519106278e-15
aF-18514.813863272106
aF33.322765777797414
aF179.9341160792422
aF-0.21278278362330444
aF-0.29190766030528625
aF-771.2603965706004
aF2.966710143051102
aF3.7520996386566696
aF-4.138269238588309e-16
aF-19.281014155667165
aF0.04370015303310274
aF0.03130078452006681
aF-0.2682210352972275
aF2.95826594815648e-17
aF-0.001598253480548661
aI7
aa(lp311
F71.86622230665773
aF2.278152094194313
aa(lp312
g6
a(lp313
F2.2781246812801252
aF2.2781795071085016
aaaa(lp314
(lp315
F3.005172541320028e-10
aF-1.3702687336336869e-11
aF-9.060134339653708e-12
aF-4.462921354145223e-13
aF-1.323273732650352e-13
aF3.200301746201784e-16
aF3.1996558067295033e-16
aF-4.0538847952690615e-32
aF-6.607384863551311e-12
aF2.374504701635175e-12
aF2.357904446596135e-12
aF-3.319040265076738e-15
aF2.1322717702700048e-14
aF2.450099595788518e-18
aF4.389683753002888e-17
aF2.203151034567908e-11
aF-1.8282210476849083e-14
aF-4.0132057207244785e-13
aF-1.2012957509803102e-16
aF-1.6303175893088473e-15
aF3.200981560292794e-31
aF-9.463332118748114e-14
aF-1.4868311943953871e-15
aF-9.699374387270407e-15
aF-2.6312296397462396e-18
aF2.1594970961891658e-17
aF1.935738960852303e-14
aF-1.8538998672925937e-16
aF-1.3059188231017724e-16
aF5.549920482727218e-32
aF4.455323657210237e-16
aF2.7905541815435085e-18
aF-3.2868859868420575e-18
aF7.094956835321129e-20
aF2.8977321029829106e-33
aF1.0581789323742538e-19
aa(lp316
F-6835738.128043326
aF-401566.00486443914
aF244263.0971954005
aF4369.684275000246
aF-4015.8195050439767
aF-10.644724583554519
aF19.57847178934225
aF5.668111121418561e-15
aF-2084941.920933356
aF-52979.428908958434
aF51593.21389064123
aF242.5962641832025
aF-503.3433880192986
aF0.0504184557656075
aF0.8166923469310589
aF-265356.72457421094
aF-1813.7717455707186
aF4315.342488570171
aF-2.5921817935458726
aF-20.994445391937873
aF-6.078045860496426e-15
aF-18511.99206381372
aF33.317448236917585
aF179.9239993485537
aF-0.2127800570648973
aF-0.2919193262229198
aF-771.1940649415965
aF2.9665719827436465
aF3.752137739669392
aF1.0862713842094448e-15
aF-19.280635479143463
aF0.04370128929283653
aF0.031303180448305476
aF-0.2682335704444503
aF-7.765558518217089e-17
aF-0.001598434287043395
aI7
aa(lp317
F71.8649079297454
aF2.27820692002269
aa(lp318
g6
a(lp319
F2.2781795071085016
aF2.2782343329368784
aaaa(lp320
(lp321
F6.281317020839793e-11
aF1.4700893084882822e-11
aF2.053349065278076e-12
aF2.36799164633995e-13
aF1.063931979102273e-13
aF-8.827416325643139e-16
aF5.439837490864929e-16
aF6.380100290997277e-32
aF-1.1130826755797652e-10
aF2.937599654289429e-12
aF-3.4359365012322907e-12
aF-1.4209634858296413e-15
aF1.8434178624511337e-14
aF2.727730239742388e-18
aF1.0707225561959632e-17
aF-1.4913913615115004e-11
aF-6.630433213846684e-15
aF-3.4838235883421784e-14
aF7.677717503659463e-17
aF-1.6061404227774351e-15
aF4.64042375409364e-33
aF1.0841157615486415e-12
aF-3.263171674582419e-16
aF9.48894366399816e-15
aF2.56366774710975e-18
aF1.3723173181204558e-17
aF-3.4764131341027797e-14
aF6.076207352753445e-18
aF6.766690175542569e-17
aF1.810869234638415e-32
aF-9.068310258415836e-16
aF3.1779080324104406e-18
aF-2.845474942847113e-18
aF1.989382465065541e-17
aF7.5599456683555305e-34
aF1.392994891040416e-20
aa(lp322
F-6833325.02857465
aF-401449.1407118973
aF244200.64192408102
aF4368.833330094186
aF-4015.1801347976857
aF-10.643675581454627
aF19.577238374026386
aF5.453662920353974e-15
aF-2084346.1944310225
aF-52967.74808583421
aF51583.459599686576
aF242.56723271265184
aF-503.2966754700626
aF0.05041341630257408
aF0.8166951110265132
aF-265298.62964488193
aF-1813.5209965462163
aF4314.81339406085
aF-2.591845438929719
aF-20.99389065201439
aF-5.848302033996701e-15
aF-18509.170798931846
aF33.312131601903666
aF179.91388350503397
aF-0.21277733051998865
aF-0.2919309919910678
aF-771.1277411983771
aF2.966433831783758
aF3.752175837131712
aF1.045249684488812e-15
aF-19.280256810250897
aF0.04370242549962444
aF0.03130557643883907
aF-0.26824610542408794
aF-7.472575093234848e-17
aF-0.0015986151049958083
aI7
aa(lp323
F71.86359364008696
aF2.2782617458510668
aa(lp324
g6
a(lp325
F2.2782343329368784
aF2.2782891587652547
aaaa(lp326
(lp327
F-3.357427752657618e-10
aF2.891749753521239e-11
aF4.59680785723456e-12
aF-3.712587564297084e-14
aF1.174601833998543e-13
aF7.938816449862019e-16
aF-3.768290422208132e-16
aF-2.2701724399513523e-31
aF2.6762310466371336e-11
aF3.3399567823013706e-12
aF3.5842676232452243e-12
aF7.522151249264556e-15
aF-1.7790192103912715e-14
aF-1.9200531685334203e-18
aF9.157881548495916e-18
aF-2.1156257307836127e-11
aF-6.012411725436887e-14
aF5.450834399241685e-15
aF-2.932502884456932e-17
aF1.7461935269539562e-15
aF5.596406116534539e-32
aF-3.2661435061088727e-13
aF-3.1918719173265906e-15
aF2.0536608536505613e-15
aF-5.6737362381692085e-18
aF-1.2290884163925285e-17
aF-4.795851647804961e-14
aF1.120301442218128e-16
aF-6.399435374026168e-17
aF-7.403254595690955e-32
aF9.419134872095319e-16
aF-2.3843763503025138e-18
aF1.2592205481162557e-18
aF-9.868950861826672e-19
aF4.8124788449746675e-33
aF9.470389149885663e-20
aa(lp328
F-6830912.8773501245
aF-401332.3152914952
aF244138.20511881763
aF4367.982585352459
aF-4014.5408918303838
aF-10.642626725393232
aF19.57600508474842
aF-5.2524297158887016e-15
aF-2083750.6616620505
aF-52956.07030141432
aF51573.70753489577
aF242.53820583390888
aF-503.2499690317668
aF0.05040837732369639
aF0.8166978748456879
aF-265240.5496796204
aF-1813.2702909789132
aF4314.28438421607
aF-2.59150912967818
aF-20.99333594165248
aF5.632713163804682e-15
aF-18506.3500685048
aF33.30681587258573
aF179.90376854857388
aF-0.21277460398862982
aF-0.2919426576097309
aF-771.0614253397242
aF2.9662956901708544
aF3.752213931043919
aF-1.0067549465003588e-15
aF-19.279878148989784
aF0.04370356165347368
aF0.03130797249166465
aF-0.2682586402361326
aF7.197636327842566e-17
aF-0.0015987959344059626
aI7
aa(lp329
F71.86227943767294
aF2.2783165716794427
aa(lp330
g6
a(lp331
F2.2782891587652547
aF2.278343984593631
aaaa(lp332
(lp333
F2.1923884642700987e-10
aF-2.8883803131384996e-11
aF6.803995484667604e-12
aF4.2666131993017355e-13
aF-1.3081264662836256e-13
aF8.675235605419271e-16
aF9.240342584633232e-16
aF-4.4300877294675735e-32
aF5.853182153437143e-11
aF2.2515203621679725e-12
aF3.062859095641945e-12
aF1.2966684528678082e-14
aF1.8477925551179814e-14
aF1.0282500095237838e-18
aF-3.558749541018759e-18
aF4.7576011481167364e-12
aF-1.1011335364637737e-13
aF2.5886698930499545e-13
aF1.4603640337976666e-16
aF-1.1705339033651357e-15
aF9.430099230873116e-33
aF-1.5210079026603924e-12
aF-3.2327207380011113e-15
aF3.0593376343575907e-16
aF-1.1002764212332649e-17
aF-1.1599269955362521e-18
aF-1.7985969505812075e-14
aF-2.052450894750813e-16
aF-1.8007350890329564e-16
aF-1.1304323346840939e-32
aF-7.958890818707077e-16
aF-2.064479106509488e-18
aF3.7602932087280585e-19
aF-7.430804154061307e-18
aF1.0784012855539028e-33
aF-8.323550785686877e-20
aa(lp334
F-6828501.673958781
aF-401215.52858887706
aF244075.7867734012
aF4367.132040721333
aF-4013.9017761115538
aF-10.641578015359457
aF19.574771921490303
aF-1.1227340639009454e-15
aF-2083155.3225556698
aF-52944.39555480173
aF51563.95769567168
aF242.50918354632924
aF-503.2032687033689
aF0.050403338827611416
aF0.8167006383886097
aF-265182.48467398103
aF-1813.0196288613968
aF4313.755459018984
aF-2.5911728657671165
aF-20.992781260849565
aF1.2040656571687311e-15
aF-18503.529872410818
aF33.30150104868873
aF179.8936544790642
aF-0.2127718774703616
aF-0.2919543230789103
aF-770.9951173644197
aF2.966157557901067
aF3.752252021406309
aF-2.152148274151287e-16
aF-19.27949949536049
aF0.04370469775433674
aF0.031310368606779396
aF-0.2682711748805779
aF1.538700872782487e-17
aF-0.0015989767752739277
aI7
aa(lp335
F71.86096532249383
aF2.2783713975078195
aa(lp336
g6
a(lp337
F2.278343984593631
aF2.278398810422008
aaaa(lp338
(lp339
F-1.5148341619459363e-10
aF-1.3637117637001486e-11
aF4.727805620106145e-12
aF-2.351033446090022e-13
aF6.65082399965538e-14
aF8.385407243026239e-16
aF9.963596567259414e-16
aF9.449244853330355e-33
aF-1.0850948389406623e-10
aF-2.5964737102188555e-12
aF3.0720498291958497e-12
aF8.336202569115191e-15
aF-2.1349432083294673e-15
aF1.704842127292753e-18
aF1.414002608009798e-17
aF2.4213013026917417e-11
aF7.812799299912827e-14
aF4.1978590069535196e-13
aF-1.680096702766215e-16
aF-4.106747359252331e-16
aF4.5609229667389575e-32
aF5.954426098997808e-13
aF1.6731443304774348e-15
aF-3.6011114044866365e-15
aF3.123260563247735e-18
aF2.87387465166048e-18
aF5.073844087679906e-15
aF6.795892305320501e-17
aF-1.0201282079060923e-16
aF-9.112114015330437e-33
aF-1.3118234926880038e-16
aF3.0469554776987237e-18
aF1.3759269696463823e-18
aF1.113693891088937e-17
aF9.326243424849887e-34
aF4.894278645651948e-20
aa(lp340
F-6826091.41799013
aF-401098.7805895925
aF244013.3868816307
aF4366.281696144504
aF-4013.2627876107313
aF-10.640529451316773
aF19.573538884234054
aF1.439991232404333e-15
aF-2082560.1770411942
aF-52932.723845073175
aF51554.21008141796
aF242.4801658488293
aF-503.1565744838287
aF0.050398300815101785
aF0.8167034016553051
aF-265124.4346235237
aF-1812.7690101834323
aF4313.226618452772
aF-2.5908366471999833
aF-20.992226609603087
aF-1.544361622354438e-15
aF-18500.710210528276
aF33.29618713009551
aF179.8835412963956
aF-0.21276915096549182
aF-0.2919659883986064
aF-770.9288172712444
aF2.9660194349754594
aF3.752290108219166
aF2.7604946091916393e-16
aF-19.27912084936329
aF0.043705833802248316
aF0.03131276478418036
aF-0.2682837093574156
aF-1.9737166158684047e-17
aF-0.0015991576275997657
aI7
aa(lp341
F71.85965129454013
aF2.2784262233361963
aa(lp342
g6
a(lp343
F2.278398810422008
aF2.278453636250384
aaaa(lp344
(lp345
F2.894830520450898e-11
aF1.3486939571471755e-11
aF7.593888816492562e-12
aF1.7708798845745214e-14
aF-4.2559273378520216e-14
aF-4.48688891032426e-16
aF1.4422284990287697e-15
aF-2.3036880030655096e-31
aF4.010159737839021e-11
aF2.5908948378484567e-12
aF-6.854073802120147e-13
aF5.115740952284163e-15
aF2.481004063117106e-16
aF-2.826455891500165e-18
aF-1.9273233073553675e-17
aF1.6082187013968757e-11
aF5.122970534474601e-14
aF2.8478941972284514e-13
aF-1.1001217176212309e-16
aF1.606795419714563e-15
aF1.008966088705971e-31
aF-1.0418827737843066e-12
aF-1.997548248923857e-15
aF-1.098022155224158e-14
aF-2.3245407789287516e-18
aF2.1143523083123045e-17
aF-1.7995751491952728e-15
aF-8.482532224834648e-17
aF-1.0163884493602558e-16
aF5.524002446703394e-32
aF8.559607456248267e-16
aF9.63510973571874e-20
aF9.489307453608986e-19
aF2.566763591731067e-17
aF-5.004759057200291e-33
aF2.726093135271761e-20
aa(lp346
F-6821273.746679532
aF-400865.4006434233
aF243888.64243422743
aF4364.581606932939
aF-4011.9851921412373
aF-10.638432761101376
aF19.571073187655184
aF5.77201646267821e-15
aF-2081370.4665052854
aF-52909.389532621266
aF51534.7215254365
aF242.42214422046814
aF-503.06320436716044
aF0.05038822624036483
aF0.8167089273601225
aF-265008.37937039783
aF-1812.2679031099437
aF4312.16919114569
aF-2.5901643460653814
aF-20.99111739576917
aF-6.190824285242321e-15
aF-18495.072488911053
aF33.28556200808928
aF179.86331759114503
aF-0.21276369799590086
aF-0.29198931858955157
aF-770.7962407264104
aF2.96574321715283
aF3.7523662711974373
aF1.106670016696462e-15
aF-19.27836358026644
aF0.04370810573921887
aF0.0313175573258293
aF-0.26830877780823775
aF-7.913120899098559e-17
aF-0.0015995193666253134
aI7
aa(lp347
F71.85702350027104
aF2.278535874992949
aa(lp348
g6
a(lp349
F2.278453636250384
aF2.2786181137355137
aaaa(lp350
(lp351
F-2.465055458115903e-10
aF-1.9062993251817084e-12
aF8.518787286946648e-12
aF1.5195752733847045e-14
aF1.442254505958765e-13
aF7.727637317144337e-16
aF-1.10852293274718e-15
aF1.0459376219064968e-31
aF-1.4935362268131597e-11
aF-1.439014882299771e-12
aF-1.140143865789665e-12
aF-1.2116238876492649e-14
aF-2.1199590539347308e-14
aF1.393414246022968e-18
aF2.2859016625866933e-17
aF-2.6956131700167814e-11
aF4.0396939261206196e-14
aF-2.973092133681585e-13
aF1.474794731454511e-16
aF-6.717871462867226e-16
aF-2.5376256105803285e-32
aF-6.713742427287615e-13
aF1.4389470412259277e-15
aF-8.209575738709535e-15
aF-4.702052490328941e-18
aF-2.0789027203044554e-17
aF1.4181853537002475e-14
aF-2.0697464761206214e-16
aF1.9854309727105521e-16
aF2.0716371595515984e-32
aF-1.454625369404855e-15
aF3.332503681831436e-18
aF-2.4914164127524e-18
aF-2.5043250084122278e-18
aF2.7784012517442664e-33
aF4.807443309261943e-20
aa(lp352
F-6816459.860137472
aF-400632.17533779505
aF243763.97172702925
aF4362.882317275208
aF-4010.708105178223
aF-10.636336654529602
aF19.568607994867836
aF-2.0434745877078175e-15
aF-2080181.5294892446
aF-52886.06735675588
aF51515.241862182535
aF242.36414094143962
aF-502.9698586734395
aF0.05037815359950275
aF0.816714451960352
aF-264892.38388474105
aF-1811.7669696848332
aF4311.112102160279
aF-2.5894922262217444
aF-20.990008300130167
aF2.1919059632826917e-15
aF-18489.436902680434
aF33.27494050517126
aF179.84309743194825
aF-0.21275824508008725
aF-0.2920126481825725
aF-770.6636956954774
aF2.965467036697128
aF3.7524424199810418
aF-3.918531522057747e-16
aF-19.277606341701684
aF0.04371037746442373
aF0.03132235011658828
aF-0.26833384558853857
aF2.8021073068963353e-17
aF-0.0015998811514831234
aI7
aa(lp353
F71.85439605478972
aF2.2786455266497017
aa(lp354
g6
a(lp355
F2.2786181137355137
aF2.27867293956389
aaaa(lp356
(lp357
F4.568408947335859e-10
aF-1.577340126969016e-11
aF1.5651111105696403e-13
aF2.0337889478199602e-13
aF2.2992449926596158e-17
aF1.7296013112104398e-16
aF6.574012773463051e-16
aF-1.4180984795271853e-32
aF-3.193902907000008e-11
aF-1.2937206054182249e-12
aF3.280839688497145e-12
aF8.30972864494449e-15
aF1.3542661049310758e-14
aF-2.910893111979808e-18
aF3.9228226839735567e-17
aF-2.813157892185977e-11
aF-7.025370041613798e-14
aF-3.002085206915163e-13
aF-1.745964869361462e-16
aF-2.852510671587722e-16
aF-1.0593994898076892e-32
aF-1.588943467654183e-12
aF1.3902980759015914e-15
aF1.3768498463735449e-14
aF1.3278717983052892e-17
aF-1.003008915761293e-17
aF-5.573109686662905e-14
aF5.5371234129221646e-17
aF-8.376341687330246e-17
aF-2.0203793533885665e-32
aF-1.332300622556944e-15
aF-2.9762114228124e-18
aF-3.029937513762382e-18
aF-7.555444431860928e-18
aF-2.637784173269386e-34
aF-7.826097302957497e-20
aa(lp358
F-6814054.335130159
aF-400515.62063924957
aF243701.66401052283
aF4362.032972141739
aF-4010.0697523105264
aF-10.635288820051267
aF19.567375587351
aF1.2469420983718602e-15
aF-2079587.3508747017
aF-52874.410817771975
aF51505.5053638388
aF242.33514618077425
aF-502.92319498258445
aF0.05037311800351884
aF0.8167172138463126
aF-264834.40854362526
aF-1811.5165680684302
aF4310.583684496172
aF-2.5891562342578105
aF-20.989453796627352
aF-1.337564838166881e-15
aF-18486.619910031277
aF33.26963111037841
aF179.83298868184718
aF-0.2127555186421467
aF-0.29202431275486335
aF-770.5974349946807
aF2.9653289604783013
aF3.75248048905057
aF2.3912894574073205e-16
aF-19.277227733869655
aF0.04371151324759684
aF0.0313247466053768
aF-0.26834637922722504
aF-1.7100525091386884e-17
aF-0.0016000620610992888
aI7
aa(lp359
F71.85308246282075
aF2.2787003524780785
aa(lp360
g6
a(lp361
F2.27867293956389
aF2.278727765392267
aaaa(lp362
(lp363
F-3.654127604612841e-11
aF2.21852466181705e-11
aF-5.875855447859068e-12
aF4.1974784910781874e-13
aF-1.588230840901376e-13
aF8.520708930452151e-16
aF-8.781702685749866e-17
aF-3.7063838605824685e-31
aF-1.4731736912639052e-12
aF4.700914549713754e-13
aF3.463748581410795e-12
aF5.478610708628464e-15
aF-1.1441921950410666e-14
aF-1.83933510836724e-18
aF-2.0856269502788418e-17
aF2.2221627874289338e-11
aF1.904049280234878e-14
aF-3.648868754070971e-14
aF8.253082899156174e-17
aF9.668212106811731e-17
aF-5.722254705365914e-32
aF-2.549402839409381e-13
aF-2.7534601101599407e-15
aF-9.352712428243832e-15
aF-1.1669090671020391e-17
aF-2.5208093962973926e-17
aF-3.2807648763644577e-14
aF1.0311451131983955e-17
aF7.44840137484847e-18
aF-5.6270999917429304e-33
aF-1.1926391096053192e-15
aF1.6655524979155118e-18
aF-2.3749134380988042e-18
aF1.7431890274262343e-17
aF1.0221910876076254e-33
aF-1.3548938135409757e-20
aa(lp364
F-6811649.755086088
aF-400399.1045576811
aF243639.37471049314
aF4361.1838267307785
aF-4009.431526478136
aF-10.63424113140114
aF19.566143305728083
aF-4.131304943892936e-15
aF-2078993.3654284338
aF-52862.75731019725
aF51495.77108689002
aF242.30615600465345
aF-502.8765373943471
aF0.05036808289111102
aF0.8167199754562058
aF-264776.44813107484
aF-1811.2662098364012
aF4310.05535136206
aF-2.5888202875981903
aF-20.988899322665564
aF4.431713607720237e-15
aF-18483.80345086426
aF33.26432261984195
aF179.82288081793206
aF-0.21275279221777285
aF-0.2920359771776753
aF-770.531182168707
aF2.9651908935992504
aF3.7525185545722963
aF-7.923277579192619e-16
aF-19.27684913367157
aF0.043712648977846776
aF0.03132714315643412
aF-0.2683589126982584
aF5.666280193519174e-17
aF-0.0016002429821737128
aI7
aa(lp365
F71.85176895802026
aF2.2787551783064552
aa(lp366
g6
a(lp367
F2.278727765392267
aF2.2787825912206436
aaaa(lp368
(lp369
F5.947128203809334e-11
aF1.1759365679744374e-13
aF1.2446348545183223e-12
aF-4.2922658211614274e-13
aF1.196026307948397e-13
aF6.746313048310159e-16
aF-1.5446257271773906e-15
aF-1.610728665424897e-31
aF-3.3794693997809486e-12
aF-1.3652660847138881e-12
aF2.7334577214463116e-12
aF-4.234915063678404e-15
aF-1.6185276216462603e-14
aF1.7360206385793738e-18
aF1.6688197029318533e-17
aF-2.7451793090620716e-11
aF-3.468166128182242e-14
aF1.4588531740524946e-14
aF-2.021293930955958e-16
aF-1.08094751442181e-15
aF-1.9069526540047782e-31
aF-1.440544242073049e-12
aF1.307165920037323e-15
aF3.916188010400486e-15
aF4.635366973168915e-18
aF-2.4413088245434054e-17
aF-4.2330620097860445e-14
aF9.414455829857869e-17
aF-3.501037279436689e-17
aF7.189509216523659e-33
aF5.575933401351391e-16
aF2.4764958994792215e-18
aF-2.4964378283914633e-18
aF7.479126614332323e-18
aF4.0617729115522195e-34
aF-3.9067996048203506e-20
aa(lp370
F-6809246.119595962
aF-400282.62707876123
aF243577.10382075235
aF4360.334880988174
aF-4008.7934276506276
aF-10.63319358856267
aF19.56491114998111
aF-2.1849010830681477e-15
aF-2078399.5730799248
aF-52851.10683313145
aF51486.03903074085
aF242.27717041233674
aF-502.82988590768844
aF0.05036304826139658
aF0.8167227367900579
aF-264718.5026426583
aF-1811.015894980724
aF4309.527102741145
aF-2.5884843862249385
aF-20.98834487824225
aF2.34386229023706e-15
aF-18480.987525057957
aF33.259015033322605
aF179.8127738400939
aF-0.21275006580667816
aF-0.2920476414510092
aF-770.4649372163409
aF2.9650528360572137
aF3.752556616546514
aF-4.1906477125887388e-16
aF-19.276470541107784
aF0.04371378465514441
aF0.03132953976975734
aF-0.2683714460016315
aF2.9970238992580137e-17
aF-0.0016004239147064594
aI7
aa(lp371
F71.85045554037877
aF2.278810004134832
aa(lp372
g6
a(lp373
F2.2787825912206436
aF2.2788374170490204
aaaa(lp374
(lp375
F-8.754891486864589e-11
aF1.2715832645526185e-11
aF1.1985176062244176e-11
aF-1.347930842512698e-13
aF7.397001688957384e-14
aF-4.521339439147946e-16
aF-1.0160662385093165e-16
aF5.174136229104927e-32
aF4.913146013180379e-11
aF-9.565247086770646e-13
aF-2.1974176445919594e-12
aF-6.050935470617616e-15
aF1.4731092549946195e-14
aF2.4564457868489685e-18
aF-1.0448801833175418e-17
aF-2.801799415381157e-11
aF8.647297492103958e-14
aF4.013719109423245e-13
aF-1.6616003980945244e-16
aF-8.527019585362846e-16
aF-5.52051666311969e-32
aF-1.4376054792609121e-12
aF-2.259257470309398e-15
aF-2.450215274557328e-15
aF-1.095770353986476e-17
aF-2.159161985696011e-17
aF-3.693122143464756e-14
aF-7.863209833112935e-17
aF-1.6693544834579407e-16
aF3.519448413121987e-33
aF1.0647458083135804e-15
aF-3.320249618793967e-18
aF1.7050747183993575e-18
aF-2.4963382460919012e-17
aF-5.635809165967446e-34
aF1.5815996255055517e-20
aa(lp376
F-6806843.428250774
aF-400166.18818810576
aF243514.85133511657
aF4359.486134858249
aF-4008.15545579759
aF-10.632146191504296
aF19.5636791200921
aF-1.3042351381857408e-15
aF-2077805.973758703
aF-52839.45938565883
aF51476.30919479626
aF242.2481894028265
aF-502.7832405215694
aF0.050358014114746115
aF0.8167254978478956
aF-264660.5720739466
aF-1810.765623491723
aF4308.998938616633
aF-2.58814853013622
aF-20.987790463354838
aF1.3991751565315035e-15
aF-18478.172132490963
aF33.253708350673215
aF179.80266774822357
aF-0.21274733940902305
aF-0.2920593055748657
aF-770.398700136365
aF2.9649147878523086
aF3.7525946749735097
aF-2.501710340077439e-16
aF-19.276091956178586
aF0.04371492027950867
aF0.03133193644534355
aF-0.2683839791373365
aF1.7892126218607458e-17
aF-0.001600604858697593
aI7
aa(lp377
F71.84914220988681
aF2.278864829963209
aa(lp378
g6
a(lp379
F2.2788374170490204
aF2.2788922428773972
aaaa(lp380
(lp381
F-1.4752027223841325e-10
aF1.8840509715126742e-11
aF1.1644086829065125e-11
aF-3.691872553268175e-13
aF-1.2218440517472464e-13
aF-3.204232781595199e-18
aF1.1530744773527834e-15
aF5.523699032762058e-33
aF1.0058457144312553e-10
aF2.6405351100796707e-12
aF-1.1191759060953305e-12
aF-1.3982502748295134e-14
aF-1.7990268708877995e-14
aF1.5467544216387626e-18
aF-4.58587406791438e-17
aF-1.9646278109912798e-11
aF-2.733494639820993e-15
aF-3.2245707136168374e-13
aF-1.6657107986567051e-16
aF-1.1800650287854502e-15
aF-5.634842427260688e-33
aF1.3725299227235622e-12
aF1.788233751278458e-15
aF-5.429535475701518e-16
aF2.6977397194673645e-18
aF2.447563417666503e-17
aF-2.6620572401779802e-15
aF4.3688377211428244e-17
aF1.992517721398099e-16
aF-2.1530997186003816e-33
aF-4.0916624806563036e-16
aF3.1082523489504307e-18
aF1.5822019073301338e-18
aF2.438865811789045e-17
aF3.2911198687044894e-34
aF-9.371357539799217e-20
aa(lp382
F-6804441.68064167
aF-400049.78787136276
aF243452.61724740357
aF4358.637588286008
aF-4007.51761088862
aF-10.631098940200895
aF19.562447216043083
aF5.55635229456771e-16
aF-2077212.5673943188
aF-52827.81496687072
aF51466.58157846132
aF242.2192129752355
aF-502.7366012349511
aF0.05035298045099387
aF0.8167282586297453
aF-264602.65642051166
aF-1810.5153953604336
aF4308.470858971732
aF-2.5878127193233076
aF-20.987236078000766
aF-5.961037290007375e-16
aF-18475.35727304191
aF33.24840257170724
aF179.79256254221195
aF-0.2127446130247763
aF-0.2920709695492456
aF-770.3324709275633
aF2.96477674898342
aF3.752632729853572
aF1.0658661081059432e-16
aF-19.27571337888429
aF0.04371605585093789
aF0.031334333183189865
aF-0.26839651210536614
aF-7.62330785827045e-18
aF-0.0016007858141471774
aI7
aa(lp383
F71.84782896653488
aF2.2789196557915856
aa(lp384
g6
a(lp385
F2.2788922428773972
aF2.2789470687057736
aaaa(lp386
(lp387
F-4.25009972486387e-10
aF-2.9014442162900116e-11
aF-1.3198732680258708e-11
aF-4.1402379173349144e-13
aF1.6518717718807257e-13
aF-8.399607760345201e-17
aF6.552333757251868e-16
aF-5.010736196032689e-32
aF-2.5427443312574852e-11
aF-1.988399314334589e-12
aF2.2583405517890105e-12
aF3.082914899530496e-15
aF-7.252356852425286e-15
aF9.866190047522337e-19
aF2.9846135837637204e-17
aF-2.0644252586458477e-11
aF1.8563511623928916e-14
aF-7.813242858963417e-14
aF1.384735007032762e-16
aF-8.020458587488532e-16
aF-3.011174786213963e-32
aF-1.0658586435295346e-12
aF-4.090338862409968e-16
aF4.446651605513337e-15
aF2.9915579578130273e-18
aF1.0548631305568686e-17
aF3.389043823404059e-14
aF8.906062007073316e-17
aF3.7299481560794635e-17
aF-2.301747564141919e-33
aF-1.346721968292368e-15
aF-2.1264353301196716e-18
aF-1.638112095699046e-18
aF-8.606262594510232e-18
aF9.585222904515858e-34
aF-4.773296322981027e-20
aa(lp388
F-6802040.876360055
aF-399933.42611417046
aF243390.4015514349
aF4357.789241216047
aF-4006.8798928933343
aF-10.630051834623089
aF19.56121543781611
aF-1.4984626542607723e-15
aF-2076619.3539163643
aF-52816.17357585443
aF51456.856181141506
aF242.19024112860393
aF-502.6899680467958
aF0.05034794727033076
aF0.8167310191356333
aF-264544.7556779281
aF-1810.2652105774264
aF4307.942863789663
aF-2.5874769537820628
aF-20.986681722177476
aF1.6076587315093264e-15
aF-18472.542946589496
aF33.24309769626447
aF179.7824582219501
aF-0.21274188665403412
aF-0.29208263337414936
aF-770.2662495887203
aF2.9646387194502544
aF3.7526707811869886
aF-2.8746869217918605e-16
aF-19.275334809225203
aF0.04371719136944412
aF0.031336729983293336
aF-0.26840904490571227
aF2.056114207910977e-17
aF-0.0016009667810552744
aI7
aa(lp389
F71.84651581031352
aF2.2789744816199615
aa(lp390
g6
a(lp391
F2.2789470687057736
aF2.27900189453415
aaaa(lp392
(lp393
F2.8620022602584568e-11
aF2.8024057352072706e-11
aF-1.1113117530848823e-11
aF2.255742982770089e-14
aF1.7504289644192487e-13
aF-4.131517506570923e-16
aF1.681439465791734e-15
aF9.642480067119579e-32
aF9.79454758562534e-11
aF2.360651253714996e-13
aF-6.015961293213325e-14
aF-1.042109869449023e-15
aF-4.043062455124998e-15
aF1.9468857729218324e-18
aF2.279815043626474e-17
aF-2.0859151717232726e-11
aF2.092877180403367e-14
aF-1.0190742107137157e-13
aF9.752473312965034e-17
aF1.3416772160905567e-15
aF-1.2780636831255852e-31
aF-1.7439746031260586e-13
aF-8.799888548681433e-16
aF-4.47371446034768e-15
aF-1.0290817965157392e-17
aF-1.2173525848715652e-17
aF4.366622014187769e-14
aF-1.7395499221577478e-16
aF1.825639451988044e-17
aF4.700670074519949e-32
aF1.366336750972941e-15
aF2.21807844879546e-18
aF-1.135466205133661e-18
aF-2.2914802034510692e-17
aF1.9640168209608298e-33
aF-6.323973551195738e-20
aa(lp394
F-6799641.014997348
aF-399817.10290220863
aF243328.20424103027
aF4356.941093593954
aF-4006.242301781322
aF-10.629004874751388
aF19.55998378539317
aF3.773137934964273e-15
aF-2076026.3332544223
aF-52804.53521170751
aF51447.13300224192
aF242.16127386214106
aF-502.6433409560637
aF0.050342914572118355
aF0.8167337793655863
aF-264486.8698417688
aF-1810.015069134357
aF4307.414953053627
aF-2.587141233497678
aF-20.986127395882395
aF-4.048242281495592e-15
aF-18469.72915301234
aF33.237793724123605
aF179.7723547873288
aF-0.21273916029659617
aF-0.2920942970495781
aF-770.2000361186189
aF2.9645006992506087
aF3.752708828974052
aF7.239008067098317e-16
aF-19.274956247201658
aF0.04371832683500758
aF0.031339126845651134
aF-0.2684215775383682
aF-5.177875645936344e-17
aF-0.0016011477594219537
aI7
aa(lp395
F71.84520274121323
aF2.2790293074483383
aa(lp396
g6
a(lp397
F2.27900189453415
aF2.2790567203625267
aaaa(lp398
(lp399
F1.480440254248347e-10
aF-9.93438505672383e-12
aF1.2635546377103412e-12
aF2.807133650623095e-13
aF-1.7413053542575734e-13
aF5.5630727139873225e-18
aF1.3305883988175183e-15
aF-1.7887041213704145e-31
aF-6.018482501800906e-11
aF-5.280011545939615e-13
aF1.9734878450389094e-12
aF4.015126854769923e-15
aF-2.352801843461344e-14
aF-8.776444527475495e-19
aF4.573197997039549e-17
aF1.8041214940249882e-11
aF5.0539767425683086e-14
aF-1.951787495840008e-13
aF2.0219665043119305e-16
aF-1.0010412736553063e-15
aF1.5767086941598162e-31
aF-1.2215447594113726e-12
aF2.907183765737141e-15
aF-7.556763293526012e-16
aF-4.234141790573245e-18
aF1.8914782378893144e-17
aF2.5099023558590104e-14
aF1.0320970107677852e-16
aF2.1005073355127716e-16
aF-3.348676520362914e-32
aF8.083883043850647e-16
aF-1.1923095993332232e-18
aF-2.359266557419623e-18
aF-1.3260872711094493e-17
aF1.3633928317257363e-33
aF-8.844627838897343e-22
aa(lp400
F-6797242.096145397
aF-399700.81822109176
aF243266.02531001682
aF4356.093145363482
aF-4005.6048375222213
aF-10.627958060547845
aF19.55875225875633
aF-2.471195144182933e-15
aF-2075433.5053381508
aF-52792.89987350886
aF51437.41204116845
aF242.1323111747404
aF-502.59671996171727
aF0.0503378823572644
aF0.8167365393196307
aF-264428.99890761176
aF-1809.7649710208543
aF4306.887126746852
aF-2.5868055584752288
aF-20.985573099112948
aF2.6514700761244503e-15
aF-18466.915892189194
aF33.232490655177116
aF179.7622522382389
aF-0.2127364339528151
aF-0.2921059605755325
aF-770.1338305160427
aF2.9643626883858345
aF3.7527468732150444
aF-4.741493592100128e-16
aF-19.27457769281391
aF0.04371946224766782
aF0.031341523770260324
aF-0.2684341100033257
aF3.391591960454977e-17
aF-0.0016013287492472768
aI7
aa(lp401
F71.84388975922452
aF2.279084133276715
aa(lp402
g6
a(lp403
F2.2790567203625267
aF2.279111546190903
aaaa(lp404
(lp405
F-5.1831892321585214e-11
aF-1.985313723018867e-11
aF9.954500531942554e-12
aF-1.278998109987899e-13
aF5.162625825636901e-14
aF-1.923816859844181e-17
aF-1.4728486820507594e-15
aF-2.547908420186912e-31
aF-1.0564107097966185e-10
aF-3.003297779940695e-12
aF1.380849164563996e-12
aF1.267861597515098e-14
aF-9.711252954065465e-16
aF-3.163015595735391e-19
aF-1.396792081612127e-17
aF-1.0606733716172661e-11
aF-1.7920810516828637e-14
aF-2.396522409392967e-13
aF4.251635683875276e-18
aF-1.6230767094157297e-15
aF1.4341337213858053e-31
aF-3.2793164018956694e-13
aF1.7327388702283538e-15
aF8.337954953181351e-15
aF-4.242500097922177e-18
aF-4.68966163466756e-19
aF-3.155557402702618e-15
aF-5.215025469860012e-17
aF-1.1074024356807781e-16
aF5.249407521036032e-32
aF8.924795318207406e-17
aF-5.2895425497863515e-19
aF3.2455946092248053e-18
aF1.5572867170704333e-17
aF4.952673059761893e-34
aF8.080769907322236e-20
aa(lp406
F-6794844.119396108
aF-399584.57205652614
aF243203.8647522218
aF4355.245396470522
aF-4004.967500085669
aF-10.62691139199523
aF19.557520857887642
aF-5.419118502050421e-15
aF-2074840.870097216
aF-52781.26756035951
aF51427.69329732702
aF242.10335306565074
aF-502.5501050627195
aF0.050332850624947134
aF0.8167392989977931
aF-264371.14287103544
aF-1809.5149162288328
aF4306.359384852573
aF-2.586469928697568
aF-20.985018831866597
aF5.8146584449010516e-15
aF-18464.10316399888
aF33.22718848919058
aF179.75215057457174
aF-0.212733707622425
aF-0.29211762395201296
aF-770.067632779779
aF2.9642246868533144
aF3.752784913910259
aF-1.0398447895805193e-15
aF-19.274199146062323
aF0.04372059760739798
aF0.031343920757117956
aF-0.26844664230057735
aF7.438285131715279e-17
aF-0.0016015097505313047
aI7
aa(lp407
F71.84257686433797
aF2.279138959105091
aa(lp408
g6
a(lp409
F2.279111546190903
aF2.2791663720192794
aaaa(lp410
(lp411
F3.1812300986011233e-10
aF2.896044725822645e-11
aF-3.7664519779690565e-12
aF-4.2301983569586815e-13
aF-1.4017891032923896e-13
aF-1.9498818894440786e-16
aF-8.266291865717453e-16
aF-8.191218818922265e-32
aF-5.346280908171697e-11
aF7.595019203008171e-13
aF2.6836123549553138e-12
aF-1.864665185582734e-15
aF3.0394200154943618e-15
aF-1.0377454017335187e-18
aF-2.7099628427184936e-17
aF5.753422611009448e-12
aF6.687283452599677e-14
aF1.0703880514085668e-13
aF4.8742188245078285e-17
aF-1.2437262402490273e-15
aF-1.8672137832888398e-31
aF9.172090062922887e-13
aF1.0054688607934104e-15
aF7.717934260336227e-15
aF3.135286223136687e-18
aF-2.0146146493088186e-17
aF3.6124092970215335e-14
aF-1.9989584027011245e-16
aF3.1561948607789224e-17
aF-3.566003970317504e-32
aF-1.4344862556579302e-15
aF-3.2356374036048402e-18
aF2.0811674450108716e-18
aF-1.8270732623285074e-17
aF-6.027067495284192e-34
aF1.8395388916960208e-20
aa(lp412
F-6792447.084341494
aF-399468.3643942002
aF243141.7225614722
aF4354.397846860492
aF-4004.330289441281
aF-10.625864869071904
aF19.55628958276911
aF2.652082030782665e-15
aF-2074248.427461288
aF-52769.638271355645
aF51417.97677012331
aF242.0743995340448
aF-502.50349625803125
aF0.050327819374708975
aF0.8167420584000997
aF-264313.3017276174
aF-1809.264904749716
aF4305.831727354003
aF-2.5861343441522173
aF-20.984464594140768
aF-2.845760758459558e-15
aF-18461.290968320103
aF33.2218872259561
aF179.74204979621817
aF-0.2127309813052901
aF-0.29212928717902065
aF-770.0014429086114
aF2.9640866946512596
aF3.752822951059987
aF5.089306062426223e-16
aF-19.273820606947215
aF0.04372173291418526
aF0.03134631780622122
aF-0.26845917443011624
aF-3.640648444540197e-17
aF-0.0016016907632741073
aI7
aa(lp413
F71.84126405654406
aF2.279193784933468
aa(lp414
g6
a(lp415
F2.2791663720192794
aF2.279221197847656
aaaa(lp416
(lp417
F-1.844233101763031e-10
aF9.397805205076667e-12
aF1.1033599297038121e-11
aF2.0365793796708743e-13
aF-1.1932561649161384e-13
aF1.9208795470294198e-16
aF-5.781648996190835e-16
aF1.6667237626256077e-32
aF-8.879186236763157e-11
aF1.7558488450274154e-12
aF-1.2849895661085505e-12
aF4.8356536731447574e-15
aF2.1479791128442673e-14
aF-2.179440620145708e-18
aF-1.9062313945611352e-18
aF-2.0459432163555474e-11
aF4.9723759060060765e-14
aF-1.1864650616105156e-13
aF-1.2328255543684505e-16
aF-7.945379953902554e-16
aF-3.1591792914800666e-32
aF1.7085531210534797e-12
aF3.1886070600050957e-15
aF-2.4948785503482974e-15
aF-1.5948399028173577e-18
aF2.144679859573283e-17
aF1.9642307455488527e-14
aF7.6857982537228e-17
aF1.240983658106659e-16
aF-6.42560270175037e-33
aF-2.6376895222681326e-16
aF1.8674168369209494e-18
aF2.965072976322884e-18
aF-1.5000029894887053e-17
aF-6.471926130759474e-34
aF6.44982605316497e-21
aa(lp418
F-6790050.990573997
aF-399352.1952197374
aF243079.5987316023
aF4353.550496476976
aF-4003.6932055587217
aF-10.624818491737782
aF19.555058433382804
aF-6.054772202733375e-16
aF-2073656.1773601125
aF-52758.012005574834
aF51408.26245896376
aF242.04545057877985
aF-502.4568935466156
aF0.05032278860763779
aF0.8167448175265771
aF-264255.47547294
aF-1809.014936572902
aF4305.304154234382
aF-2.585798804846569
aF-20.983910385932887
aF6.497183209255996e-16
aF-18458.479305031713
aF33.21658686537948
aF179.73194990306902
aF-0.21272825500182752
aF-0.2921409502565562
aF-769.9352609013234
aF2.9639487117814363
aF3.75286098466451
aF-1.1619867282973137e-16
aF-19.273442075468843
aF0.04372286816807609
aF0.03134871491756717
aF-0.2684717063919341
aF8.312606329558687e-18
aF-0.001601871787475746
aI7
aa(lp419
F71.83995133583332
aF2.2792486107618446
aa(lp420
g6
a(lp421
F2.279221197847656
aF2.2792760236760325
aaaa(lp422
(lp423
F1.3033846167034486e-10
aF1.2094663275945682e-11
aF-1.0182840760798669e-11
aF-9.784445947306742e-14
aF-5.378193551303222e-14
aF6.65177937124269e-16
aF8.006811791222785e-16
aF-3.6022407085099236e-31
aF8.780587308663239e-11
aF-2.1608547230026358e-13
aF1.5200299915177484e-12
aF-7.270017896809779e-15
aF-3.0699041597254548e-15
aF2.5353289393749767e-18
aF5.006517466552582e-17
aF2.8798950893672487e-11
aF-9.655352166898927e-14
aF-1.465252781489969e-13
aF1.9716179066108248e-16
aF5.945745021573104e-16
aF1.9207725373059817e-31
aF-4.809137698821057e-13
aF3.2745812049048297e-15
aF7.929986831327544e-16
aF-1.207133425007637e-17
aF1.89854931646869e-17
aF-4.119663354416525e-14
aF-6.079343703180715e-17
aF1.9572338508618578e-16
aF2.3243251371024998e-32
aF-6.321991175541256e-16
aF-2.7914506292162406e-18
aF9.638559775214236e-19
aF3.9213342777840415e-18
aF1.1680626264341165e-33
aF4.166257138189705e-20
aa(lp424
F-6787655.837686117
aF-399236.06451885286
aF243017.49325644659
aF4352.703345265698
aF-4003.0562484076545
aF-10.623772259973494
aF19.55382740971079
aF-3.8847323444730976e-15
aF-2073064.1197234436
aF-52746.38876211676
aF51398.55036325487
aF242.01650619906832
aF-502.41029692743615
aF0.05031775832309202
aF0.8167475763772517
aF-264197.66410258657
aF-1808.7650116900738
aF4304.776665476955
aF-2.585463310765797
aF-20.983356207240412
aF4.168734889896055e-15
aF-18455.66817401262
aF33.21128740723965
aF179.72185089501565
aF-0.21272552871183573
aF-0.29215261318462
aF-769.8690867567028
aF2.9638107382416408
aF3.7528990147241195
aF-7.455833521778866e-16
aF-19.27306355162755
aF0.04372400336905056
aF0.03135111209115286
aF-0.2684842381860234
aF5.3339399096081665e-17
aF-0.0016020528231362819
aI7
aa(lp425
F71.8386387021963
aF2.2793034365902205
aa(lp426
g6
a(lp427
F2.2792760236760325
aF2.279330849504409
aaaa(lp428
(lp429
F2.680650465306265e-10
aF-2.14421686352442e-11
aF8.706079101848094e-12
aF-2.692992673043151e-13
aF2.2388155967670324e-13
aF8.31410773849752e-16
aF1.1733788814761859e-15
aF-9.634841350094952e-32
aF-8.972575963849075e-11
aF2.494404450811447e-12
aF-1.5833379264015311e-12
aF-1.339170588895969e-14
aF-2.667077438222363e-14
aF-3.6624957726744913e-19
aF2.5979455163854214e-17
aF2.453896437670926e-11
aF3.782125821058012e-14
aF1.166227662474488e-13
aF-1.5962105980206854e-16
aF4.2306942766559684e-16
aF-1.99458172716225e-32
aF8.600308142220372e-13
aF5.448381409659194e-16
aF4.428457490399613e-15
aF-1.227676925646908e-18
aF2.1628709931394302e-17
aF3.697169066249872e-14
aF1.357237905359168e-16
aF1.946905864775958e-16
aF3.985421526852062e-32
aF1.575759120397815e-16
aF2.9928789224318483e-18
aF-3.2443609591261645e-18
aF-4.170997716873901e-18
aF2.9088387026664256e-33
aF1.4133195605413326e-20
aa(lp430
F-6785261.625270459
aF-399119.9722772437
aF242955.40612983916
aF4351.856393171906
aF-4002.419417957722
aF-10.622726173755254
aF19.55259651173509
aF-2.978058154949777e-15
aF-2072472.2544810383
aF-52734.76854007626
aF51388.84048240288
aF241.9875663940465
aF-502.3637063994544
aF0.05031272852079476
aF0.8167503349521501
aF-264139.8676121389
aF-1808.5151300924238
aF4304.249261064947
aF-2.5851278618997466
aF-20.982802058060763
aF3.1958929211882795e-15
aF-18452.85757514163
aF33.2059888513421
aF179.71175277194885
aF-0.21272280243524364
aF-0.29216427596321326
aF-769.8029204735335
aF2.963672774030499
aF3.752937041239106
aF-5.716102592291163e-16
aF-19.272685035423653
aF0.04372513851710276
aF0.03135350932697548
aF-0.2684967698123772
aF4.089477294933792e-17
aF-0.0016022338702557848
aI7
aa(lp431
F71.83732615562351
aF2.2793582624185973
aa(lp432
g6
a(lp433
F2.279330849504409
aF2.2793856753327857
aaaa(lp434
(lp435
F-4.025299548428515e-10
aF-2.8428055181715732e-11
aF-1.2215234617108612e-11
aF-4.3160461855811216e-13
aF-1.353485826895833e-13
aF3.038222609082452e-16
aF7.224572819134918e-16
aF-7.352728304463072e-33
aF-5.299037517673179e-11
aF2.750122886639284e-13
aF-1.3783273861544358e-13
aF4.355166707321503e-15
aF-1.0063527617016011e-15
aF3.3986092647661298e-18
aF1.866520200495294e-17
aF-2.6290920761225862e-11
aF-4.402033087666763e-14
aF-4.517854065314492e-13
aF1.2678909543280383e-16
aF-8.483771799339757e-16
aF-4.16702395920789e-32
aF-1.1719506526378334e-12
aF2.4943044431364856e-15
aF6.4139376171626415e-15
aF-8.153255604921068e-18
aF-2.1123733243283417e-17
aF-5.0301539692183475e-14
aF-2.1629629116136431e-16
aF-8.762700386094652e-17
aF4.7281133104261603e-33
aF-9.174795580423848e-16
aF-1.910977647669613e-18
aF-4.5276232664465295e-19
aF-2.376971915129694e-18
aF6.630868485248814e-34
aF-4.3200972544626347e-20
aa(lp436
F-6782868.352919964
aF-399003.91848060134
aF242893.3373456201
aF4351.00964014048
aF-4001.782714178608
aF-10.621680233055121
aF19.551365739437774
aF-5.242106682372094e-16
aF-2071880.5815627163
aF-52723.15133854459
aF51379.132815814686
aF241.95863116278014
aF-502.31712196163426
aF0.05030769920082111
aF0.8167530932512986
aF-264082.0859971835
aF-1808.265291770693
aF4303.7219409816125
aF-2.5847924582428035
aF-20.982247938391385
aF5.625754415056661e-16
aF-18450.0475082977
aF33.20069119751842
aF179.70165553375983
aF-0.21272007617210603
aF-0.2921759385923365
aF-769.7367620506018
aF2.9635348191474535
aF3.7529750642097572
aF-1.0062466185257678e-16
aF-19.272306526857452
aF0.04372627361224029
aF0.03135590662503208
aF-0.26850930127098765
aF7.199263832666568e-18
aF-0.0016024149288343158
aI7
aa(lp437
F71.8360136961055
aF2.279413088246974
aa(lp438
g6
a(lp439
F2.2793856753327857
aF2.279440501161162
aaaa(lp440
(lp441
F4.0548300221540025e-10
aF4.201327538640553e-12
aF-5.56913040248161e-13
aF3.195660726153598e-14
aF9.69459413889283e-14
aF-6.561766873919939e-16
aF-6.945615578654685e-16
aF1.7863445471553328e-32
aF2.5996676593588783e-11
aF3.384785334613217e-12
aF4.2691273346691837e-13
aF-6.713670021098452e-15
aF2.514271250812173e-14
aF1.998418270246286e-19
aF6.626306669928883e-18
aF1.4421232080977222e-13
aF-3.2937681102225327e-14
aF-3.6014742723589936e-14
aF-8.671509990128547e-17
aF1.3810435241230857e-15
aF1.537729108370688e-32
aF-1.0073935931349981e-12
aF1.5496050005094942e-15
aF5.422391474371747e-15
aF1.339590100634452e-17
aF6.407164299093163e-18
aF-4.1520340676059833e-14
aF-2.084137819507078e-17
aF1.3220356019096716e-16
aF1.1067921636190264e-33
aF1.3293363715450817e-16
aF3.464767339458412e-18
aF-2.144517310128599e-18
aF2.2060801895016632e-17
aF-3.7652084243089046e-34
aF-7.844690000495149e-20
aa(lp442
F-6780476.020227774
aF-398887.9031146202
aF242831.28689763168
aF4350.16308611624
aF-4001.146137040006
aF-10.620634437844448
aF19.550135092800925
aF-3.261094234298684e-16
aF-2071289.1008983257
aF-52711.53715661259
aF51369.42736289741
aF241.92970050432302
aF-502.2705436129399
aF0.05030267036330599
aF0.8167558512747237
aF-264024.31925330847
aF-1808.0154967155472
aF4303.194705210207
aF-2.5844570997901197
aF-20.981693848229728
aF3.499887878497478e-16
aF-18447.23797335983
aF33.19539444560464
aF179.6915591803398
aF-0.2127173499224992
aF-0.2921876010719903
aF-769.6706114866946
aF2.9633968735920817
aF3.753013083636359
aF-6.260278647793527e-17
aF-19.27192802592926
aF0.04372740865447299
aF0.03135830398531972
aF-0.268521832561847
aF4.479125058696967e-18
aF-0.0016025959988719362
aI7
aa(lp443
F71.8347013236328
aF2.27946791407535
aa(lp444
g6
a(lp445
F2.279440501161162
aF2.2794953269895384
aaaa(lp446
(lp447
F-1.9326851785701067e-10
aF-6.9407699570965635e-12
aF1.8146248861381305e-12
aF1.2921577730900799e-14
aF2.4525652343298027e-16
aF-5.570471023734253e-17
aF9.5135975451256e-16
aF5.9097758406336625e-33
aF7.96646715586589e-11
aF1.8471536010520194e-12
aF-1.2657826342481252e-12
aF-1.1491645188961744e-14
aF-2.6662480222363016e-14
aF-1.6865149617308574e-18
aF-1.1937665616094231e-17
aF-2.8700519786303768e-11
aF9.540316426189016e-14
aF2.890670225084536e-13
aF1.02955985359938e-16
aF-7.244446247192871e-16
aF5.47951963453595e-32
aF1.4976818614865355e-12
aF-1.3878819811119091e-15
aF-9.75364859028709e-15
aF-5.009275152469889e-19
aF-1.417250566685268e-17
aF1.1902410764096563e-14
aF1.646413421511934e-16
aF2.1955503729001562e-16
aF-2.2571126926771258e-32
aF-1.317620477796297e-15
aF2.1415817361238407e-18
aF-3.043709254706982e-19
aF1.0135891600647733e-17
aF-6.066556514845383e-34
aF6.886107894316236e-20
aa(lp448
F-6778084.626787083
aF-398771.9261650062
aF242769.25477971535
aF4349.31673104427
aF-4000.509686511585
aF-10.619588788097307
aF19.548904571806563
aF-1.6892382600603472e-15
aF-2070697.8124177116
aF-52699.92599337374
aF51359.72412305785
aF241.90077441777507
aF-502.2239713523333
aF0.050297642008153
aF0.8167586090224519
aF-263966.56737610017
aF-1807.7657449179467
aF4302.667553733967
aF-2.584121786533866
aF-20.981139787573206
aF1.8129989810251443e-15
aF-18444.42897020692
aF33.19009859541963
aF179.68146371157954
aF-0.21271462368641647
aF-0.2921992634021758
aF-769.6044687805961
aF2.9632589373634257
aF3.7530510995192015
aF-3.243044890818408e-16
aF-19.27154953263937
aF0.04372854364380194
aF0.031360701407835576
aF-0.268534363684948
aF2.3204293601789987e-17
aF-0.001602777080368716
aI7
aa(lp449
F71.83338903819592
aF2.279522739903727
aa(lp450
g6
a(lp451
F2.2794953269895384
aF2.279550152817915
aaaa(lp452
(lp453
F-4.079147607030905e-10
aF-2.8260766041885364e-11
aF1.892239429361192e-12
aF4.1330772759810593e-13
aF1.9646430473813668e-13
aF-4.9866144955272253e-17
aF-1.5075140377744303e-15
aF-1.0794188977517481e-32
aF1.0934093792127378e-10
aF1.614862159117611e-12
aF9.69446900808831e-13
aF1.1857382316176695e-14
aF-1.8746860555508147e-14
aF-1.1860843306685321e-18
aF4.585609298846957e-17
aF2.2598565652337044e-12
aF-2.021499765458878e-15
aF-3.6607787485087073e-13
aF-8.992524748684435e-18
aF2.0391980186520893e-16
aF4.7980939074956205e-32
aF5.830683327996522e-13
aF-2.644536620116432e-15
aF-1.2796777495392632e-14
aF-2.0239238936834986e-18
aF-2.3381434480242252e-17
aF-3.954279483985598e-15
aF1.4741713395971895e-16
aF-1.7119077356775608e-16
aF1.0777669551535079e-32
aF7.544710095755401e-16
aF1.1365163176814446e-18
aF7.858541283018976e-19
aF-1.3386776618360766e-17
aF2.785187366684436e-34
aF5.317072597333288e-20
aa(lp454
F-6775694.1721913805
aF-398655.987617489
aF242707.2409857175
aF4348.47057487001
aF-3999.873362563053
aF-10.618543283790759
aF19.547674176436782
aF8.523440870643369e-16
aF-2070106.7160507734
aF-52688.317847925486
aF51350.02309570343
aF241.87185290228808
aF-502.1774051787793
aF0.05029261413502087
aF0.8167613664945095
aF-263908.83036114945
aF-1807.516036369189
aF4302.14048653616
aF-2.583786518463081
aF-20.980585756419277
aF-9.148238328110877e-16
aF-18441.62049871803
aF33.18480364676454
aF179.6713691273704
aF-0.2127118974637638
aF-0.29221092558289347
aF-769.5383339310943
aF2.9631210104599712
aF3.7530891118585745
aF1.6364725971206617e-16
aF-19.27117104698812
aF0.0437296785802187
aF0.03136309889257671
aF-0.26854689464028314
aF-1.1709544351933661e-17
aF-0.0016029581733247157
aI7
aa(lp455
F71.83207683978542
aF2.2795775657321036
aa(lp456
g6
a(lp457
F2.279550152817915
aF2.2796049786462915
aaaa(lp458
(lp459
F2.654881046654809e-11
aF2.4312245280812494e-11
aF2.801941373183729e-12
aF-3.507591806299967e-13
aF-4.447688282471249e-14
aF-8.24593144127195e-16
aF1.4826342981718015e-15
aF1.8167448156954753e-34
aF8.982817137302268e-11
aF1.0033459650128132e-12
aF-2.3115595017495092e-12
aF-4.803844179591211e-15
aF-7.452157044979532e-15
aF1.57991396115616e-18
aF3.754499558704721e-17
aF-1.3650050199103571e-11
aF6.151253984158088e-16
aF4.4797309129960494e-13
aF1.1109821508134752e-17
aF-1.2570215207905436e-16
aF1.95459509053994e-34
aF-7.879752683924116e-13
aF-1.304660541903164e-15
aF-3.057010796546723e-15
aF9.814076073757609e-18
aF-1.7603527172514258e-17
aF5.1469763254814416e-14
aF6.931219574428246e-17
aF5.225346119224475e-17
aF-4.104140502848072e-35
aF-5.700074036847731e-16
aF-2.6016248966122413e-18
aF-3.0289823658274734e-18
aF3.0952494859518364e-18
aF3.6420255141130944e-36
aF-1.843869437121996e-20
aa(lp460
F-6773304.656034397
aF-398540.08745777194
aF242645.2455094877
aF4347.624617538115
aF-3999.2371651641283
aF-10.61749792489402
aF19.546443906673662
aF-5.7259313718482376e-18
aF-2069515.8117274467
aF-52676.71271935732
aF51340.324280241824
aF241.84293595687964
aF-502.1308450912425
aF0.05028758674422441
aF0.816764123690923
aF-263851.1082040487
aF-1807.2663710597092
aF4301.613503600052
aF-2.5834512955752325
aF-20.98003175476538
aF6.1458863095791936e-18
aF-18438.812558772253
aF33.17950959948873
aF179.6612754276036
aF-0.21270917125468172
aF-0.29222258761414394
aF-769.4722069369762
aF2.9629830928817102
aF3.7531271206547627
aF-1.0994403086974943e-18
aF-19.270792568975796
aF0.04373081346374006
aF0.031365496439540196
aF-0.26855942542784456
aF7.867174441576063e-20
aF-0.0016031392777399968
aI7
aa(lp461
F71.83076472839184
aF2.2796323915604795
aa(lp462
g6
a(lp463
F2.2796049786462915
aF2.279659804474668
aaaa(lp464
(lp465
F8.523808527861296e-11
aF-1.5934744062198875e-11
aF-1.0604981951922474e-11
aF2.230009278932697e-13
aF-1.7832145130811548e-13
aF3.2301972326146827e-16
aF-4.91823527484605e-16
aF3.1942390910184185e-32
aF-1.1164650611490831e-10
aF2.7968262478039233e-12
aF-2.2010515693383424e-12
aF1.885567195074003e-15
aF1.767386000584965e-14
aF-1.6595575106434775e-18
aF-4.865414766740603e-17
aF1.6398497908239893e-11
aF-6.230748509720193e-14
aF7.413824437994233e-14
aF4.6687922839997526e-17
aF9.151787930641592e-16
aF4.0046558130034914e-32
aF-1.3310841530886932e-12
aF-3.056747616445005e-15
aF8.101295781100963e-15
aF1.0912098662180677e-17
aF-5.228992097488934e-18
aF-2.3366295125369906e-14
aF-1.1286544723444904e-16
aF1.1564099383216172e-16
aF-3.732638026243192e-32
aF-8.45544773626028e-16
aF2.298364569657525e-18
aF-3.335433086295568e-18
aF-1.1350408954413175e-17
aF3.0649746900013745e-33
aF6.800887678074786e-20
aa(lp466
F-6770916.077909874
aF-398424.22567159904
aF242583.26834487374
aF4346.778858994226
aF-3998.601094284504
aF-10.616452711386158
aF19.545213762499248
aF4.526892960523441e-15
aF-2068925.0993776568
aF-52665.11060676888
aF51330.62767608034
aF241.81402358073555
aF-502.08429108868586
aF0.05028255983525137
aF0.816766880611719
aF-263793.40090038883
aF-1807.0167489810226
aF4301.086604908895
aF-2.583116117857153
aF-20.97947778260895
aF-4.859084758221969e-15
aF-18436.005150248588
aF33.17421645338067
aF179.65118261217012
aF-0.21270644505901487
aF-0.2922342494959283
aF-769.4060877970276
aF2.9628451846267296
aF3.7531651259080587
aF8.692755676458115e-16
aF-19.27041409860273
aF0.043731948294351085
aF0.03136789404872319
aF-0.2685719560476253
aF-6.220430802136909e-17
aF-0.001603320393614629
aI7
aa(lp467
F71.8294527040057
aF2.2796872173888563
aa(lp468
g6
a(lp469
F2.279659804474668
aF2.2797146303030447
aaaa(lp470
(lp471
F7.144931747105895e-11
aF-8.803725213661148e-12
aF1.968305506758464e-12
aF-3.3602201433634497e-13
aF4.0160887246502764e-14
aF6.970326711561047e-16
aF1.4839918507849321e-15
aF2.52579664502979e-31
aF-5.76425851183399e-11
aF3.256979548152652e-14
aF3.524172367677365e-12
aF-8.301654425882738e-15
aF-2.3714743952677994e-14
aF-6.124343477535603e-19
aF-2.8777175501490525e-17
aF-1.0661088569525455e-11
aF2.998643816880401e-14
aF-4.362150876409341e-13
aF-1.007112611018297e-16
aF2.1225630451528076e-16
aF-3.462043247014017e-31
aF1.4158969661736167e-12
aF1.1850128778543843e-15
aF-5.776055237101002e-15
aF-8.075887343386627e-18
aF1.6672141374710165e-17
aF2.097874404848699e-14
aF-2.0253624941768974e-16
aF-1.596450138090308e-17
aF-8.807311574341563e-32
aF-4.7546950596148704e-17
aF2.4519084056265463e-18
aF2.912677890475021e-18
aF2.3681503606500816e-18
aF-5.932911405889746e-35
aF2.2137264986478484e-20
aa(lp472
F-6768528.437411936
aF-398308.4022446795
aF242521.30948572993
aF4345.933299182888
aF-3997.965149893918
aF-10.615407643234963
aF19.543983743895627
aF4.809177700745569e-15
aF-2068334.578931398
aF-52653.511509248776
aF51320.93328262701
aF241.7851157728492
aF-502.0377431700744
aF0.0502775334085366
aF0.8167696372569236
aF-263735.70844576525
aF-1806.7671701234108
aF4300.559790445965
aF-2.5827809853078545
aF-20.97892383994742
aF-5.162272648135371e-15
aF-18433.198273026188
aF33.168924208298584
aF179.64109068096116
aF-0.21270371887694675
aF-0.2922459112282471
aF-769.3399765100357
aF2.962707285695297
aF3.7532031276187476
aF9.235487004204191e-16
aF-19.270035635869203
aF0.04373308307207317
aF0.03137029172012276
aF-0.2685844864996174
aF-6.609044195729028e-17
aF-0.0016035015209486733
aI7
aa(lp473
F71.82814076661755
aF2.279742043217233
aa(lp474
g6
a(lp475
F2.2797146303030447
aF2.2797694561314215
aaaa.