(lp0
(lp1
(lp2
F0.0
aF0.0
aF0.0
aa(lp3
F-1.0
aF-1.7763568394002505e-15
aF1.0
aI1
aa(lp4
F15.497175940350315
aF16.497175940350317
aa(lp5
(lp6
F15.488294156153314
aF15.506057724547317
aa(lp7
F16.479412371956315
aF16.51493950874432
aaaa.