(lp0
(lp1
(lp2
F0.0
aF0.0
aF4.868079332834773e-27
aF1.3894718862720074e-21
aF-2.742668935503071e-16
aF-3.9671658778869963e-20
aF-3.241153790552678e-63
aF1.4825567775636548e-16
aF4.1945484530501544e-11
aF1.7218448826923333e-06
aF0.06251269523231388
aF0.0
aF3.720799410327938e-11
aF5.196068415469512e-06
aF-0.08699281295703029
aF0.0
aF7.870336693715793e-07
aF0.02679298068373254
aF0.0
aF0.0
aF0.0
aa(lp3
F0.0
aF0.0
aF6.337768826005308e-10
aF-0.0001510495537032004
aF7.9999999489979325
aF0.0012750801407661089
aF-5.838743601353404e-47
aF2.666666664765336
aF-635553.0165998336
aF50490954655.64354
aF-1337069940537758.8
aF-3.9999999990493347
aF953329.525352899
aF-75736432012.46532
aF2005604911203858.8
aF-317776.5085264911
aF25245477342.82177
aF-668534970507211.8
aF0.0
aF0.0
aF0.0
aI5
aa(lp4
F-1.9999999997623337
aF-79444.12713162278
aa(lp5
(lp6
F-2.002220445573917
aF-1.9988897767377083
aa(lp7
F-79516.88670776461
aF-79371.36755548095
aaaa.