(lp0
(lp1
(lp2
F-1.0507728889836591e-12
aF8.739107076148002e-13
aF1.7310785060963168e-13
aF-2.5334036492358762e-14
aF-7.341589876627938e-16
aF3.0618327343385027e-16
aF1.8567389752966574e-16
aF1.415763467997023e-34
aF-9.440961496695109e-14
aF4.550951394217566e-15
aF1.4797457885854065e-14
aF-6.574632727045641e-16
aF-6.82351514225781e-16
aF-2.7546689698835603e-18
aF-2.7452401381961793e-18
aF-2.6455095400325712e-14
aF-2.724101061080739e-16
aF-6.456456983336299e-16
aF8.937010507667601e-19
aF6.46758094358607e-18
aF-9.968408098855695e-20
aF1.5401232089519895e-16
aF-2.357796821208144e-17
aF-7.692233328885096e-18
aF1.965146770873296e-19
aF4.86724387178779e-20
aF1.166823808076811e-17
aF-1.2050313075635651e-19
aF1.7386870674813482e-19
aF1.9833393524558087e-21
aF-5.845513893584878e-20
aF1.204379043608756e-22
aF-4.404717781173429e-22
aF-2.133611035107968e-22
aF1.0732986677651911e-23
aF1.269645583526362e-24
aa(lp3
F39064.10890482118
aF10488.929993754102
aF-4058.1713878085825
aF-478.02246213720196
aF187.02220206784895
aF5.957850463500995
aF-2.340682458650148
aF-1.984641520611851e-18
aF7745.045369516695
aF243.92012869123627
aF-454.2498866427201
aF-9.749563118557688
aF10.774237773994729
aF0.10897325439443589
aF-0.042812720222788044
aF444.00081406668465
aF-19.41596175073888
aF-16.993803524641795
aF-0.0163298068635337
aF0.19694954680954663
aF0.0018860466054569384
aF12.881021370438507
aF-0.7363965709973995
aF-0.3100509974588255
aF-0.002919421879770623
aF0.0011469639302365137
aF0.2342077261602315
aF-0.006885969998444374
aF-0.0027696282376905856
aF-5.0527679996673e-05
aF0.002681445813512884
aF2.1320457699553103e-05
aF-8.376246039315868e-06
aF1.5714599661437414e-05
aF3.6900225742990693e-07
aF2.725995605459091e-08
aI7
aa(lp4
F22.699714895123538
aF0.41519367112377503
aa(lp5
(lp6
F22.668470721089896
aF22.7039978578779
aa(lp7
F0.4151628315953132
aF0.4152245106522368
aaaa(lp8
(lp9
F2.3578293639534835e-12
aF-5.033322864774186e-13
aF9.438708471272878e-14
aF-4.150065013763028e-15
aF1.097181233219298e-14
aF3.3734496447879523e-16
aF4.3110824824573906e-17
aF9.609446982932827e-34
aF-3.9940050548293264e-13
aF2.006670222961592e-15
aF-1.9923080326822258e-14
aF-4.2415969648912467e-16
aF-6.399427240083048e-16
aF-6.503360277340898e-18
aF5.669589953150673e-19
aF-1.5695858456210416e-14
aF4.635085067228931e-16
aF-1.2990206609164501e-15
aF3.2406526511860547e-19
aF3.0049484420515146e-18
aF-8.937617664894646e-20
aF7.996379882084644e-16
aF1.592996475993926e-17
aF1.6028836126625312e-18
aF-1.9147016762416995e-19
aF-3.330421270931925e-20
aF-7.433971592688517e-18
aF2.371136222685413e-19
aF1.4671664742497183e-19
aF-2.492339813319493e-21
aF1.2828880056540307e-19
aF-1.4610351914428029e-21
aF3.190065607584352e-22
aF1.377326457706163e-21
aF2.165967025187272e-23
aF4.920034205583189e-25
aa(lp10
F39022.94581390123
aF10479.68334723867
aF-4055.1136131625517
aF-477.74228590880085
aF186.93716859843204
aF5.956124517216062
aF-2.340315037283582
aF2.0725737425631617e-17
aF7739.240957440549
aF243.7919379349912
aF-454.0437771243711
aF-9.74702305261599
aF10.772544120850746
aF0.10897405567702911
aF-0.042818718856121964
aF443.80081755901585
aF-19.40934584011349
aF-16.991144415027968
aF-0.016337673524679124
aF0.19697706623943909
aF0.0018865910864850005
aF12.879043333670847
aF-0.7363777508846505
aF-0.31009437540867363
aF-0.0029203108060337074
aF0.0011474654824874116
aF0.2342409464761707
aF-0.006887844194715655
aF-0.0027708373276210427
aF-5.0557284504098425e-05
aF0.002682617904569262
aF2.1333286420232415e-05
aF-8.382398799695292e-06
aF1.5726127954969077e-05
aF3.6932816490857476e-07
aF2.72880855707513e-08
aI7
aa(lp11
F22.69634324197914
aF0.4152553501806986
aa(lp12
g6
a(lp13
F0.4152245106522368
aF0.4152861897091604
aaaa(lp14
(lp15
F-2.4503748163397386e-12
aF1.476915151463727e-13
aF-1.2339700646799425e-13
aF-2.5539861326930626e-14
aF7.868332303009374e-16
aF2.235471993586932e-16
aF-2.1950903771409443e-16
aF1.951347325394179e-34
aF-1.0325124299894988e-13
aF1.2230034601790855e-14
aF1.3643744474385082e-14
aF-4.504516387084803e-16
aF4.2604614520045276e-16
aF-2.0963592490664218e-18
aF2.271062530564334e-19
aF1.7075346846086194e-14
aF-1.3868532269922748e-15
aF-1.3578027277557978e-15
aF2.622910395405323e-19
aF-1.2244402384831383e-17
aF-8.56533733228601e-21
aF-7.720036971375996e-16
aF-3.817679416545208e-17
aF1.0917854229917297e-17
aF3.478466529357665e-20
aF-1.4112421216655706e-20
aF-3.29508101166535e-18
aF-1.5333348032330416e-19
aF-1.30636955062878e-19
aF2.1888296905863872e-21
aF5.902389891074661e-20
aF-1.2136760398190039e-21
aF5.532860228641914e-22
aF1.6485875205115897e-21
aF2.30978776605335e-23
aF-8.09768837134399e-25
aa(lp16
F38981.83202424227
aF10470.446248358287
aF-4052.0585825506078
aF-477.462316423434
aF186.8521859052797
aF5.954399338217648
aF-2.3399477223480893
aF4.84420051762744e-17
aF7733.441739519837
aF243.66383700398367
aF-453.8377905972094
aF-9.744484108903382
aF10.770850957929413
aF0.10897485704897603
aF-0.04282471733266203
aF443.600940133501
aF-19.402732893936246
aF-16.98848607622067
aF-0.016345541163340613
aF0.19700458491603268
aF0.001887135639118032
aF12.877065874340598
aF-0.7363589283469153
aF-0.31013775219328776
aF-0.0029211998763056
aF0.001147967176674265
aF0.2342741660987046
aF-0.0068897185707499425
aF-0.0027720467582255885
aF-5.0586901830813565e-05
aF0.002683790326956149
aF2.1346120992669692e-05
aF-8.388555143954403e-06
aF1.5737662948272212e-05
aF3.696543108479459e-07
aF2.7316239861691376e-08
aI7
aa(lp17
F22.692972590288427
aF0.41531702923762226
aa(lp18
g6
a(lp19
F0.4152861897091604
aF0.41534786876608404
aaaa(lp20
(lp21
F-2.1390021098947434e-12
aF6.357645419806105e-13
aF3.1584972077958305e-14
aF-2.064974230417273e-14
aF-5.280641492576418e-15
aF-3.282394712921534e-16
aF-1.6185672497354617e-17
aF-3.922199433613085e-34
aF7.620127073033993e-14
aF-9.071068428658437e-15
aF-1.011069115645613e-14
aF3.642392640582041e-16
aF3.0900766006862823e-16
aF4.837071950390564e-19
aF-3.0345093926436158e-18
aF1.6532482815511982e-14
aF-1.4351311440264207e-15
aF1.2302838831332692e-15
aF-4.5106187413180787e-20
aF-1.0454287021764808e-17
aF2.5890353287916337e-20
aF7.915665111224785e-16
aF5.206310863922338e-17
aF-2.0104915076426706e-18
aF1.5314737492119226e-19
aF-9.795169425089079e-20
aF-6.263970942354131e-18
aF2.9809587634027417e-19
aF2.1122562896119933e-19
aF2.0096163131492907e-21
aF9.891685346186608e-20
aF1.2047086633481565e-21
aF4.900149181098036e-22
aF-8.453930644282113e-22
aF2.9424711077103766e-24
aF7.239985636007002e-25
aa(lp22
F38940.767469616665
aF10461.218685822118
aF-4049.006293109403
aF-477.18255349751314
aF186.76725395062135
aF5.9526749260498795
aF-2.3395805137963603
aF1.3446503841896697e-17
aF7727.6477103433845
aF243.53582582059124
aF-453.6319269697687
aF-9.741946286752258
aF10.769158285012807
aF0.10897565851026483
aF-0.04283071565238802
aF443.4011817016527
aF-19.396122910448693
aF-16.985828507877013
aF-0.016353409779439172
aF0.1970321028392309
aF0.001887680263352068
aF12.875088992190374
aF-0.7363401033843497
aF-0.3101811278125164
aF-0.0029220890905909576
aF0.001148469012814064
aF0.23430738502773588
aF-0.006891593126506276
aF-0.0027732565295441247
aF-5.0616531980353904e-05
aF0.0026849630807129735
aF2.135896141869632e-05
aF-8.394715073626633e-06
aF1.5749204644200035e-05
aF3.6998069538596614e-07
aF2.734441894545727e-08
aI7
aa(lp23
F22.6896029396053
aF0.4153787082945458
aa(lp24
g6
a(lp25
F0.41534786876608404
aF0.41540954782300765
aaaa(lp26
(lp27
F2.6228563683528468e-12
aF9.050198396414172e-13
aF1.0906732687235282e-13
aF-3.573946915348341e-15
aF-2.602763141582106e-15
aF2.4231143003417363e-16
aF-8.77639623081445e-17
aF9.390791152953986e-34
aF3.3968972462330615e-13
aF-1.399450251814304e-14
aF-2.367286410800829e-14
aF7.170765381289139e-16
aF4.911426420502209e-16
aF-1.6614974103640267e-18
aF-4.81074490083555e-19
aF2.4737524564186357e-14
aF-1.0074299250838481e-15
aF2.984381237304217e-16
aF1.4486153249485531e-18
aF-1.2575665636250346e-17
aF-8.867385665912285e-20
aF3.93659438812327e-16
aF-5.033083057376661e-17
aF2.466625702642752e-17
aF-6.719486537422926e-20
aF-1.5284635097394613e-20
aF-3.8627455089002966e-18
aF-1.0523112143933109e-19
aF1.3156223300747369e-19
aF-9.244543933759128e-22
aF1.91984654224811e-19
aF7.262082594271215e-22
aF-2.1056567035402465e-22
aF-1.2096649742522332e-21
aF5.580672942671673e-24
aF-9.059965041864623e-25
aa(lp28
F38899.75208389516
aF10452.000648354278
aF-4045.9567419789764
aF-476.9029969476371
aF186.68237269671954
aF5.950951280257178
aF-2.3392134115811096
aF-3.9132276002294025e-17
aF7721.8588645064065
aF243.4079043072674
aF-453.4261861506629
aF-9.739409585495396
aF10.767466101883118
aF0.1089764600608827
aF-0.04283671381527977
aF443.2015421750605
aF-19.389515887893733
aF-16.983171709654275
aF-0.0163612793728934
aF0.1970596200089375
aF0.0018882249591831385
aF12.873112686962925
aF-0.7363212759971115
aF-0.31022450226620835
aF-0.0029229784488944157
aF0.0011489709909238012
aF0.23434060326316714
aF-0.006893467861943735
aF-0.0027744666416165556
aF-5.064617495625541e-05
aF0.0026861361658791676
aF2.1371807700143858e-05
aF-8.400878590245876e-06
aF1.5760753045606593e-05
aF3.7030731866064133e-07
aF2.7372622840105708e-08
aI7
aa(lp29
F22.6862342894839
aF0.4154403873514695
aa(lp30
g6
a(lp31
F0.41540954782300765
aF0.4154712268799313
aaaa(lp32
(lp33
F2.981580655008891e-12
aF-6.318812652520527e-14
aF-1.0719119337484193e-13
aF-1.625364473439034e-14
aF6.408582292776026e-16
aF-3.3330608649364127e-16
aF3.7046266932112716e-17
aF-8.066813858177155e-34
aF3.45113979469951e-13
aF-1.1341638990054885e-15
aF-1.6748332016447603e-14
aF7.8619645475175295e-16
aF7.200743856999359e-16
aF4.63215185458635e-18
aF-2.500891106141632e-18
aF-5.359506704643101e-15
aF-4.2103750771869807e-16
aF6.022235323971301e-16
aF1.1991459980506416e-18
aF4.8391613152082644e-18
aF1.4980748427512853e-20
aF1.181278988648718e-16
aF-4.1835875531564784e-17
aF-3.737357848368027e-18
aF-1.1301044265071622e-19
aF2.6445191625257166e-21
aF1.189270505349701e-18
aF-4.2492382109162435e-19
aF-1.831429706770108e-19
aF-2.75816382884822e-21
aF3.973867702083267e-21
aF1.2542634603408206e-21
aF-3.3382385882957393e-22
aF-1.5819921793385346e-21
aF2.0790032945753974e-23
aF-1.218094985095432e-24
aa(lp34
F38858.78580104725
aF10442.792124693935
aF-4042.9099263027883
aF-476.62364659059546
aF186.59754210587093
aF5.9492284003842935
aF-2.3388464156550834
aF3.3031798842108127e-17
aF7716.075196610574
aF243.28007238654345
aF-453.22056804858823
aF-9.73687400446601
aF10.765774408322676
aF0.10897726170081587
aF-0.042842711821317096
aF443.0020214653936
aF-19.3829118245157
aF-16.980515681209962
aF-0.016369149943619727
aF0.19708713642505613
aF0.0018887697266072611
aF12.871136958401145
aF-0.7363024461853611
aF-0.31026787555421204
aF-0.0029238679512205803
aF0.001149473111020465
aF0.23437382080490068
aF-0.006895342777021419
aF-0.002775677094482776
aF-5.067583076205417e-05
aF0.002687309582494152
aF2.1384659838843887e-05
aF-8.407045695346405e-06
aF1.5772308155346632e-05
aF3.7063418081003333e-07
aF2.740085156370364e-08
aI7
aa(lp35
F22.68286663947864
aF0.41550206640839316
aa(lp36
g6
a(lp37
F0.4154712268799313
aF0.41553290593685493
aaaa(lp38
(lp39
F-1.0771126502932646e-12
aF-5.180875840102166e-13
aF1.6053214115019607e-13
aF9.101172000221436e-15
aF8.928284487891748e-15
aF3.2021379670900886e-16
aF5.480255409245508e-17
aF-4.455875804389459e-34
aF-6.669301720215556e-14
aF1.2992743025127971e-14
aF-3.942302988466997e-15
aF-4.4356307170189403e-16
aF4.13947213050994e-16
aF2.762580895537806e-18
aF-1.873071096542823e-19
aF-2.4100835420177368e-14
aF-3.9042428526327223e-16
aF-5.53607148332926e-16
aF7.012731424499672e-19
aF5.942648190550433e-18
aF-4.3599711976607003e-20
aF4.666444274286673e-16
aF-1.8834324293155835e-17
aF-7.997988504293773e-18
aF6.008518207372513e-20
aF-1.6806806862036593e-20
aF4.789116864290468e-18
aF2.5211835081566033e-19
aF1.5131925390938607e-19
aF1.0055108032649665e-21
aF-2.3458136528882334e-20
aF1.2993043554201511e-21
aF6.713376127793068e-22
aF-1.1952921177301122e-21
aF2.550371296459617e-23
aF-7.578473712678062e-25
aa(lp40
F38831.50219262638
aF10436.658388814918
aF-4040.8802341396977
aF-476.4375274804239
aF186.54101650617542
aF5.948080239088788
aF-2.338601810730645
aF-7.018628039905345e-17
aF7712.222291984396
aF243.19490084151317
aF-453.0835574449491
aF-9.73518423913286
aF10.764646884491198
aF0.1089777961770535
aF-0.042846710404857304
aF442.86907362476836
aF-19.37851075871752
aF-16.97874542306607
aF-0.016374397533664604
aF0.1971054802837609
aF0.0018891329446619845
aF12.869820126269579
aF-0.7362898916306491
aF-0.31029679043186864
aF-0.002924461032786321
aF0.0011498079366415873
aF0.2343959654472877
aF-0.006896592820186376
aF-0.002776484252409838
aF-5.06956084287207e-05
aF0.0026880920443951594
aF2.1393231186245007e-05
aF-8.411159093105307e-06
aF1.5780015290102007e-05
aF3.7085222168601026e-07
aF2.7419684515556326e-08
aI7
aa(lp41
F22.6806220948753
aF0.41554318577967553
aa(lp42
g6
a(lp43
F0.41553290593685493
aF0.4155534656224961
aaaa(lp44
(lp45
F3.052856838362885e-12
aF-1.5138447711166588e-13
aF1.4900475624724398e-14
aF1.4495286724661175e-14
aF4.750415108495908e-15
aF-8.622336138952171e-17
aF-5.1842081929808524e-17
aF2.62714805731808e-34
aF3.567033506965434e-14
aF-1.4517098358499297e-15
aF-1.577761871412086e-14
aF4.922867894121922e-16
aF5.678318751759175e-17
aF-5.0675544102066446e-18
aF-5.75938089461485e-19
aF2.3868522661631605e-14
aF1.5320786666951172e-15
aF2.721428294313634e-16
aF-1.601546227755092e-18
aF-7.370637542092952e-18
aF-8.612100011486667e-20
aF-3.8242919445304367e-16
aF5.510821186629646e-17
aF3.960736531567145e-18
aF-1.3184731457000687e-19
aF7.64941747766384e-20
aF-2.747807417635401e-18
aF-2.900907431469659e-19
aF1.2948747895076356e-19
aF-2.325479787692097e-21
aF-1.4238242072955855e-19
aF-1.473138503944598e-21
aF-1.795069362151798e-22
aF1.6393547445257173e-21
aF8.170371466820464e-24
aF-1.0079159521449822e-24
aa(lp46
F38817.868555140725
aF10433.593103595314
aF-4039.8658432276975
aF-476.34450224337183
aF186.5127621404057
aF5.947506285976405
aF-2.3384795259710542
aF-1.44564062610741e-17
aF7710.2967012639865
aF243.15232998103787
aF-453.0150725723227
aF-9.734339542998113
aF10.764083204113941
aF0.10897806343005419
aF-0.042848709670479775
aF442.80261948440096
aF-19.376310718559875
aF-16.977860422201793
aF-0.016377021491542982
aF0.19711465208749035
aF0.0018893145656204854
aF12.869161806248128
aF-0.7362836139492503
aF-0.3103112476763763
aF-0.0029247575975741573
aF0.0011499753731210405
aF0.23440703765283952
aF-0.006897217871698303
aF-0.002776887888182676
aF-5.070549940128702e-05
aF0.002688483330597347
aF2.1397517836629173e-05
aF-8.413216390462883e-06
aF1.5783869976275638e-05
aF3.70961281972264e-07
aF2.7429105134328296e-08
aI7
aa(lp47
F22.679499989144215
aF0.4155637454653167
aa(lp48
g6
a(lp49
F0.4155534656224961
aF0.4155740253081373
aaaa(lp50
(lp51
F3.3369615994007295e-12
aF-6.90630638751673e-13
aF-2.011452860207699e-13
aF2.276051006199549e-14
aF-6.805919702816217e-15
aF-8.890314398258134e-17
aF7.174063488454765e-17
aF3.076848271441562e-34
aF3.687098371678482e-13
aF-1.2977617813540673e-14
aF3.5589812389526195e-16
aF8.824362786560312e-16
aF8.675750827805369e-16
aF-4.967770541182938e-18
aF2.558313726334838e-18
aF6.265824443392872e-17
aF-1.1371909415924817e-15
aF3.4175618907840383e-16
aF-9.63995871096045e-19
aF1.1681696632248416e-17
aF8.073124228463422e-20
aF-5.1279107160278e-16
aF4.851925201273493e-17
aF-7.619663502086581e-18
aF1.1439723107007643e-19
aF-1.2938470595202636e-20
aF1.1151612900011563e-17
aF-1.9383898015096368e-19
aF3.6531161349239094e-20
aF1.9139505451884617e-21
aF-1.2389506042593227e-19
aF-9.244881207607329e-22
aF-5.125976324246875e-22
aF-3.332546119992349e-22
aF-1.8047535140542474e-24
aF1.1437522442997623e-24
aa(lp52
F38804.240358888404
aF10430.528872967909
aF-4038.8517556213737
aF-476.2514998759837
aF186.48451339549646
aF5.946932417865185
aF-2.3383572530108854
aF9.047244754453582e-18
aF7708.3716846728275
aF243.10976905810787
aF-452.9466013146587
aF-9.73349497118513
aF10.763519578084937
aF0.10897833069297645
aF-0.04285070891866949
aF442.7361785263109
aF-19.374111006809862
aF-16.97697550679241
aF-0.01637964555799027
aF0.19712382380746635
aF0.0018894961945328912
aF12.868503550243563
aF-0.7362773359984952
aF-0.3103257047913294
aF-0.002925054178365561
aF0.0011501428253805936
aF0.23441810978129224
aF-0.006897842943161141
aF-0.0027772915618303547
aF-5.071539180018348e-05
aF0.002688874653635938
aF2.140180513822647e-05
aF-8.415274086881683e-06
aF1.5787725408454296e-05
aF3.710703688308527e-07
aF2.743852851589067e-08
aI7
aa(lp53
F22.678377994438215
aF0.4155843051509579
aa(lp54
g6
a(lp55
F0.4155740253081373
aF0.41559458499377855
aaaa(lp56
(lp57
F2.809214396782035e-12
aF-1.8410807253414994e-13
aF1.4450311761816746e-13
aF2.7000625182632242e-14
aF1.2073320985528253e-14
aF2.088175028833608e-16
aF-1.2547307929374586e-16
aF4.714328098504455e-34
aF8.319831985822649e-14
aF7.559748128751206e-16
aF-2.0413071804866648e-14
aF-6.198729753139256e-16
aF7.636409212633631e-16
aF4.989835780855801e-18
aF-1.5767102898155909e-18
aF1.1160049594351647e-14
aF1.3218512947521493e-15
aF1.3092865128689471e-15
aF-5.955202231961294e-19
aF-7.263320389877628e-18
aF-4.01604096482827e-20
aF6.226153434054067e-16
aF6.042698061248902e-18
aF-4.294113279602953e-18
aF-1.1544204486739048e-20
aF4.936060637722193e-22
aF-6.92547711172683e-18
aF-3.3373399291118576e-19
aF-7.566052271283677e-20
aF-2.398636486670314e-21
aF1.2090442380325592e-19
aF7.43731193658651e-22
aF3.1624121496696777e-22
aF-1.0344930753870862e-21
aF-1.514570512866109e-23
aF1.1228620889042952e-25
aa(lp58
F38777.00028034139
aF10424.40357382748
aF-4036.8244899039432
aF-476.06556372313275
aF186.42803276268725
aF5.945784936578898
aF-2.3381127424818224
aF7.461201377898888e-17
aF7704.523373081108
aF243.02467701343693
aF-452.809699630724
aF-9.731806200425801
aF10.762392489039492
aF0.10897886524858283
aF-0.04285470736274766
aF442.60333614390765
aF-19.36971256827326
aF-16.975205932287658
aF-0.016384894016577157
aF0.19714216699614395
aF0.001889859476218822
aF12.867187230247051
aF-0.7362647792889416
aF-0.31035461863254976
aF-0.002925647387959728
aF0.0011504777772425162
aF0.2344402538068859
aF-0.006899093145933522
aF-0.0027780990227561464
aF-5.073518087749081e-05
aF0.0026896574102281694
aF2.1410381695331754e-05
aF-8.419390677130442e-06
aF1.5795438511249932e-05
aF3.7128862228551285e-07
aF2.7457383570067542e-08
aI7
aa(lp59
F22.676134338035553
aF0.4156254245222404
aa(lp60
g6
a(lp61
F0.41559458499377855
aF0.41565626405070216
aaaa(lp62
(lp63
F-2.675181505325943e-12
aF-8.282503443892475e-13
aF-1.7289752602168858e-14
aF2.8283041616640205e-14
aF-1.0236480368690329e-14
aF1.487575259655345e-16
aF1.7011424317544215e-16
aF1.649503613552346e-34
aF2.580610997064782e-13
aF-1.0231077220276036e-14
aF-2.0163862896437278e-14
aF1.1392310291178876e-16
aF2.658475549763375e-16
aF-1.895275768518963e-18
aF-2.3827806791518805e-18
aF6.524010645665434e-15
aF1.8803942379322847e-16
aF-1.402416028598501e-15
aF4.983203027473731e-19
aF1.3787900998027707e-17
aF9.272230419623643e-20
aF4.47657927243362e-16
aF-3.897592182471479e-17
aF1.3813898298684512e-17
aF-7.496432621806933e-20
aF-7.070712625427508e-20
aF1.2012825305526731e-17
aF4.2104437582202683e-19
aF1.3340946972206704e-19
aF-1.0743208066237702e-21
aF-8.4827400046905e-20
aF4.389773435082697e-22
aF4.510007089645495e-23
aF-4.41553803618786e-22
aF-2.3444013689583586e-23
aF-3.5910261760644883e-25
aa(lp64
F38736.18091091332
aF10415.223524174615
aF-4033.785863485174
aF-475.78683084724247
aF186.34335393511304
aF5.944064351737652
aF-2.3377460651402178
aF-2.6220045856739276e-17
aF7698.755206682862
aF242.8971134065188
aF-452.6044491327331
aF-9.72927397608415
aF10.76070226288205
aF0.1089796671563924
aF-0.04286070489810051
aF442.40417135582044
aF-19.363117371903684
aF-16.972552211125688
aF-0.016392767518648828
aF0.19716968115092043
aF0.0018904044583983248
aF12.865213230141327
aF-0.7362459422045852
aF-0.3103979884225812
aF-0.0029265373223820185
aF0.0011509803234018724
aF0.2344734692669429
aF-0.006900968599686013
aF-0.0027793104982430663
aF-5.0764875194203144e-05
aF0.0026908318214260312
aF2.14232514167852e-05
aF-8.425568556884549e-06
aF1.580701376312648e-05
aF3.71616201888018e-07
aF2.7485686889019286e-08
aI7
aa(lp65
F22.67276968570788
aF0.41568710357916394
aa(lp66
g6
a(lp67
F0.41565626405070216
aF0.4157179431076258
aaaa.