(lp0
(lp1
(lp2
F1.3405097889239658e-87
aF-3.4317050596453524e-85
aF1.2059218901183693e-05
aF1.184442498339134e-08
aF5.649833497539555e-28
aF0.0
aF0.0
aF2.6254839162385786e-13
aF3.256229036248191e-17
aF0.0
aF0.0
aF4.590761071763192e-23
aF-1.0227278052703596e-92
aF1.0981456190865128e-83
aF5.362039155695863e-87
aa(lp3
F-3.4713436468835732e-71
aF-6.182010251145702e-69
aF721567146547.3651
aF-1316678910.4635344
aF2.4845333133968493e-11
aF0.0
aF2402610.4911913876
aF-4384.161029153061
aF0.9999983351455907
aF2.0
aF-0.0036494979483578938
aF1.6648544093835594e-06
aF1.957531539154741e-76
aF-1.5455025627864257e-67
aF8.52743113256182e-71
aI4
aa(lp4
F600652.1227978469
aF-0.0009123744870894734
aa(lp5
(lp6
F600070.0461887122
aF601234.1994069816
aa(lp7
F-0.0009129165881757162
aF-0.0009118323860032307
aaaa.