(lp0
(lp1
(lp2
F-1.2019926699079155e-22
aF-1.3630768886395106e-22
aF1.0778535911134565e-20
aF5.668813045870545e-22
aF2.0539795834090475e-19
aF-5.050098424172104e-21
aF-5.398863829045047e-19
aF-2.324080270438153e-33
aF-1.4430711768324254e-21
aF4.1958740291264874e-22
aF-1.0109267510215035e-19
aF-9.757942766188336e-21
aF9.155536213346366e-19
aF-2.279325951530116e-20
aF-1.6502536402614395e-18
aF-5.0785426208378746e-21
aF-1.2481398647965334e-21
aF-6.150891655008043e-20
aF5.266486754182009e-21
aF-7.064423665046943e-19
aF8.951494837626445e-21
aF1.779457710787269e-21
aF6.6766917202245185e-21
aF1.5906984926348924e-19
aF4.41517979346086e-20
aF-7.434153486886712e-19
aF9.935871523717713e-21
aF-3.4966348852363065e-21
aF-8.035268571145607e-20
aF9.969559911150233e-21
aF4.268723333144562e-21
aF3.873664814896387e-21
aF2.081614951452675e-20
aF4.3644192983199615e-22
aF5.864965227911976e-22
aF2.1150035799254614e-22
aa(lp3
F-2.9698822846791974e-06
aF1.9535225001901965e-06
aF0.00020971812839601958
aF-1.4475186774639243e-05
aF-0.007081184272856037
aF-0.0003805938282556846
aF0.07195247820727389
aF1.4103006818997688e-16
aF2.3695204512829116e-05
aF-1.7553976790141918e-05
aF-0.0011963959877222103
aF0.00016354059850365375
aF0.02423710669199352
aF0.00032266875094409735
aF-0.08206639733926409
aF-8.094946969399954e-05
aF6.268833504645277e-05
aF0.002728795587700675
aF-0.00046062267759062315
aF-0.02764748158328425
aF0.00017415963048490518
aF0.00015347839750223926
aF-0.00011559888923299293
aF-0.0031102242093359487
aF0.0004983583557826267
aF0.010509937905819689
aF-0.00017439070016901108
aF0.00011710310790281256
aF0.001771299338460769
aF-0.00018733797765273946
aF0.0001187346293064825
aF-6.212817891180636e-05
aF-0.0004031939009530672
aF-4.484522960855482e-05
aF1.3536419289284044e-05
aF7.247042169760901e-06
aI7
aa(lp4
F60.47395720720152
aF94.52659615770723
aa(lp5
(lp6
F60.470009747558414
aF60.47790466684464
aa(lp7
F94.49155987075513
aF94.63366841790715
aaaa(lp8
(lp9
F-1.3805941758974542e-22
aF1.5659917613483359e-22
aF3.0065576156892646e-21
aF-6.057571122687311e-23
aF-3.4823478158795393e-19
aF-2.2882145056357668e-20
aF-1.910768572665991e-18
aF-2.040504842828752e-32
aF1.2748432384889287e-21
aF9.586615213718237e-22
aF-6.363815002353407e-20
aF7.733826174292877e-21
aF8.45566071526068e-19
aF2.5639158077783122e-20
aF-6.731746086146932e-18
aF-4.987779882139305e-21
aF-6.071880121924054e-21
aF-9.259054281460098e-20
aF1.910832910941632e-21
aF3.3826643347319646e-19
aF-9.343921990664862e-21
aF-2.774643204587797e-21
aF-3.3843887410819545e-21
aF-1.3878040899499053e-19
aF1.4590399382728757e-20
aF6.103496213568463e-19
aF-7.739955184691787e-21
aF4.305456746614572e-21
aF3.379149121370373e-20
aF-5.176445455440727e-21
aF-2.9938086020198315e-21
aF1.6037644431391e-21
aF1.762436707838938e-20
aF7.803507266599554e-22
aF1.9222736338336283e-22
aF-4.0054503430842424e-22
aa(lp10
F-2.9692680277586326e-06
aF1.953394758568149e-06
aF0.0002096850900610584
aF-1.4478433681739874e-05
aF-0.0070804145866530345
aF-0.0003805347994178948
aF0.07194817175881262
aF-3.2013740545123375e-16
aF2.3690082377222257e-05
aF-1.7551952430233383e-05
aF-0.0011961965129228878
aF0.00016353528383226132
aF0.02423425172522087
aF0.000322613284915361
aF-0.08206074237077295
aF-8.093122244897383e-05
aF6.26788225556318e-05
aF0.0027283156702210087
aF-0.00046057196177317993
aF-0.027643973992473217
aF0.0001741288052554188
aF0.0001534423998753325
aF-0.00011557801099688343
aF-0.003109648999514463
aF0.0004982824052032984
aF0.010508509555394367
aF-0.00017434823099373687
aF0.00011707912634184337
aF0.0017709558523902923
aF-0.0001873039513721509
aF0.00011870466840003395
aF-6.21141481726069e-05
aF-0.0004031121431728602
aF-4.4833528166081965e-05
aF1.3533107536185313e-05
aF7.245090724998425e-06
aI7
aa(lp11
F60.48185212648775
aF94.53560077666229
aa(lp12
(lp13
F60.47790466684464
aF60.48579958613086
aag7
aaa(lp14
(lp15
F-8.622302520256919e-23
aF1.6403845206666663e-23
aF8.258637019282548e-22
aF7.62587310573516e-22
aF5.336578811953396e-20
aF3.6306415839673426e-22
aF-5.680281361583318e-18
aF1.4928444858073736e-32
aF-3.7434193374874975e-23
aF1.3088491021347454e-21
aF-1.7766649339872598e-20
aF-1.2733537881544604e-20
aF-6.375416787953467e-20
aF-2.045830301980935e-20
aF6.8817771666036926e-18
aF-2.087865318828303e-21
aF2.8089257058606143e-21
aF1.5385319289541774e-19
aF2.2156779813316768e-21
aF-1.6579715002571995e-18
aF7.959781782482676e-21
aF-1.1763064023916176e-20
aF6.0119347739622216e-21
aF1.2005464403007595e-19
aF-4.155759703066681e-20
aF-5.13999564786337e-19
aF1.1702532785692641e-20
aF4.403314965432064e-21
aF1.22010207149584e-20
aF8.84843376656371e-21
aF3.447729538369078e-21
aF-6.737875207584685e-21
aF-1.3374193111356165e-20
aF9.331074833390875e-22
aF4.093267147215247e-22
aF-2.3145927731991517e-22
aa(lp16
F-2.9686539509875766e-06
aF1.9532669913552857e-06
aF0.00020965205984946857
aF-1.4481678746411224e-05
aF-0.007079645054612488
aF-0.0003804757857863963
aF0.07194386599749578
aF-3.8416570069014603e-16
aF2.3684961812964233e-05
aF-1.7549928279471517e-05
aF-0.0011959970900148028
aF0.0001635299663554116
aF0.02423139737556511
aF0.00032255783453216723
aF-0.08205508841462147
aF-8.091298103950347e-05
aF6.266931202062431e-05
aF0.0027278358841397628
aF-0.0004605212542178327
aF-0.0276404672119191
aF0.0001740979889344922
aF0.0001534064142127656
aF-0.00011555713823580234
aF-0.003109073954710039
aF0.0004982064737662752
aF0.01050708155490131
aF-0.0001743057764468195
aF0.00011705515200076809
aF0.0017706124691693062
aF-0.0001872699351318212
aF0.00011867471816065194
aF-6.210012207713596e-05
aF-0.0004030304108559432
aF-4.482183101919439e-05
aF1.3529796961027457e-05
aF7.243140017122702e-06
aI7
aa(lp17
F60.48974704577397
aF94.5446053140744
aa(lp18
(lp19
F60.48579958613086
aF60.49369450541708
aag7
aaa(lp20
(lp21
F-1.9961110154618787e-22
aF-8.398029924551464e-23
aF7.30594758792264e-21
aF-4.550025193884717e-22
aF-3.941947845200955e-19
aF-2.2505597666697316e-20
aF-1.7348753036964727e-18
aF-1.7583852522392345e-32
aF-9.982476398613544e-23
aF-1.1528446401016523e-21
aF9.213254198177921e-20
aF-1.3026906402083516e-20
aF-1.3200222416799961e-18
aF2.533583977940364e-20
aF-4.8964794981594875e-18
aF1.4995429909119653e-21
aF6.5987191558553795e-21
aF4.9187032513760414e-20
aF-7.108194719905859e-21
aF9.251903734347156e-19
aF1.3182955618387218e-20
aF2.7843085591682347e-21
aF2.075614076015393e-21
aF1.6939807632658346e-19
aF4.877924683888585e-20
aF2.0287830256713154e-19
aF4.96147726228793e-21
aF6.757561925816728e-21
aF5.448647126699266e-20
aF4.8648933867239254e-21
aF5.7408856722375274e-21
aF4.004000197946062e-21
aF2.0030685950572412e-21
aF2.8526510023655772e-21
aF-6.670674130513436e-22
aF-1.33598844711747e-22
aa(lp22
F-2.968040054297458e-06
aF1.953139198582269e-06
aF0.00020961903775852146
aF-1.4484921969581093e-05
aF-0.00707887567668896
aF-0.00038041678735581034
aF0.07193956092314213
aF4.180102332722655e-16
aF2.3679842819428223e-05
aF-1.7547904337912145e-05
aF-0.0011957977189794892
aF0.00016352464607536003
aF0.02422854364283014
aF0.0003225023997886661
aF-0.08204943547051413
aF-8.089474546316056e-05
aF6.265980344098815e-05
aF0.002727356229407767
aF-0.0004604705549231468
aF-0.027636961241348026
aF0.00017406718151835983
aF0.0001533704405093678
aF-0.00011553627094788426
aF-0.003108499074858118
aF0.0004981305614647503
aF0.010505653904215864
aF-0.00017426333652171498
aF0.00011703118487670491
aF0.001770269188755946
aF-0.00018723592892762677
aF0.00011864477858341265
aF-6.208610062335843e-05
aF-0.00040294870399157535
aF-4.4810138165852e-05
aF1.3526487563258952e-05
aF7.241190045774611e-06
aI7
aa(lp23
F60.4976419650602
aF94.55360976995892
aa(lp24
(lp25
F60.49369450541708
aF60.501589424703305
aag7
aaa(lp26
(lp27
F-1.6988044532359586e-22
aF5.351195508134858e-23
aF1.8263782558574507e-21
aF2.910428654661633e-22
aF4.1494595604502963e-19
aF-4.133949152820345e-21
aF4.43724884711263e-18
aF-1.0556388384105159e-32
aF5.625730161339277e-22
aF7.563507531565987e-22
aF-1.0109242514002561e-19
aF-3.2983491233747454e-21
aF-3.366860368984556e-19
aF2.0287313411627198e-20
aF-4.229299726577169e-18
aF-6.534126711718603e-21
aF3.266928035072851e-21
aF-1.8756573941861851e-19
aF-1.919023914689372e-20
aF2.1640546189417757e-20
aF-2.594791675443708e-21
aF-1.2278894037645212e-20
aF5.0445050372159645e-21
aF1.457390982941588e-19
aF2.2191995457293283e-20
aF1.1724325134733025e-20
aF7.687117172223549e-21
aF-6.6664356247009655e-21
aF3.497395422444809e-20
aF1.2146610082107402e-20
aF-3.1996655948323626e-21
aF-5.859965514107772e-23
aF-2.8948612656309293e-23
aF-2.8957650693288114e-21
aF-7.75942460148264e-23
aF2.3914756352348354e-22
aa(lp28
F-2.9674263376197277e-06
aF1.9530113802805313e-06
aF0.0002095860237854894
aF-1.4488163352216659e-05
aF-0.007078106452837038
aF-0.0003803578041199523
aF0.07193525653557058
aF-1.8481147627893105e-16
aF2.3674725395987612e-05
aF-1.7545880605616437e-05
aF-0.001195598399798487
aF0.0001635193229945427
aF0.02422569052681996
aF0.0003224469806771658
aF-0.08204378353815563
aF-8.087651571751801e-05
aF6.265029681629667e-05
aF0.0027268767059758668
aF-0.0004604198638879996
aF-0.027633456080486226
aF0.0001740363830043109
aF0.00015333447875997026
aF-0.00011551540913128809
aF-0.0031079243598941663
aF0.0004980546682921577
aF0.010504226603213427
aF-0.00017422091121188174
aF0.00011700722496679355
aF0.0017699260111083623
aF-0.00018720193275551384
aF0.00011861484966339406
aF-6.207208380924935e-05
aF-0.0004028670225690195
aF-4.479844960401545e-05
aF1.3523179342330318e-05
aF7.239240810595169e-06
aI7
aa(lp29
F60.50553688434642
aF94.56261414433112
aa(lp30
(lp31
F60.501589424703305
aF60.509484343989534
aag7
aaa(lp32
(lp33
F6.429245468093776e-23
aF1.5001764123783594e-22
aF9.218114240043369e-22
aF5.355192195954638e-22
aF1.7634819636734467e-19
aF-6.999846043463662e-21
aF1.2578931233985083e-18
aF-1.1948562561142854e-33
aF4.404362339037734e-22
aF-1.1392872979926016e-21
aF1.0221016604568844e-20
aF1.111207384853318e-20
aF-1.5920114549665824e-18
aF-1.5443258359702296e-21
aF-6.537166452555826e-18
aF-5.5606917220557575e-21
aF-5.2537257063120645e-21
aF1.9129920338375227e-19
aF2.2833183397540116e-20
aF-1.5780468218971618e-18
aF4.92327081904265e-22
aF1.2112824131049023e-20
aF5.890245638269091e-22
aF1.207384123882661e-19
aF-6.99926748427927e-21
aF-8.347057019534746e-21
aF-1.1508077739229892e-21
aF-2.3944953582854246e-21
aF3.360752647195939e-20
aF-2.4866415825278462e-21
aF1.10799154635064e-21
aF-2.7910005582027133e-21
aF2.3266974275951104e-20
aF3.2752887045543443e-21
aF-2.703544854189279e-22
aF-3.2056578615137584e-22
aa(lp34
F-2.966812800885888e-06
aF1.9528835364802854e-06
aF0.00020955301792764634
aF-1.4491402895224304e-05
aF-0.007077337383011321
aF-0.00038029883607386113
aF0.07193095283460002
aF-3.2707709860708534e-16
aF2.3669609542016287e-05
aF-1.754385708263728e-05
aF-0.00119539913245335
aF0.00016351399711511907
aF0.024222838027338663
aF0.0003223915771927638
aF-0.0820381326172507
aF-8.085829180015076e-05
aF6.264079214609999e-05
aF0.002726397313794944
aF-0.00046036918111079766
aF-0.027629951729060097
aF0.00017400559338804708
aF0.00015329852895940837
aF-0.0001154945527841381
aF-0.0031073498097536983
aF0.0004979787942415762
aF0.010502799651769479
aF-0.00017417850051078395
aF0.00011698327226814495
aF0.001769582936184739
aF-0.00018716794661132884
aF0.00011858493139567857
aF-6.205807163277123e-05
aF-0.0004027853665775477
aF-4.4786765331647315e-05
aF1.351987229768981e-05
aF7.237292311225735e-06
aI7
aa(lp35
F60.51343180363264
aF94.57161843720634
aa(lp36
(lp37
F60.509484343989534
aF60.51737926327576
aag7
aaa(lp38
(lp39
F-1.6353676072311554e-22
aF9.18867094059875e-23
aF1.0201403500719645e-20
aF4.563747396544365e-22
aF1.9315515449535439e-19
aF-1.995590254653209e-20
aF6.735298707398817e-18
aF-2.703757316914361e-33
aF-1.4672941487417945e-21
aF1.2254482290875223e-21
aF-3.040441147359953e-20
aF3.797345771470875e-21
aF-1.1636988920934631e-18
aF-7.111164530506273e-21
aF-2.104706166025799e-18
aF5.210538216241162e-21
aF5.752112375605759e-21
aF-1.494253195421944e-19
aF-2.7152789383644626e-22
aF-7.91356227033117e-19
aF-2.287878195777611e-22
aF1.1974169932628094e-20
aF-5.081402027909139e-21
aF2.0173390547396936e-19
aF4.78053545464574e-20
aF-8.396331438755074e-19
aF-5.127451604249191e-21
aF-6.5196363934709695e-21
aF9.798670536042769e-20
aF4.8773331635977737e-23
aF4.7105607144730375e-21
aF-3.803691529303377e-21
aF-1.0272813786856862e-20
aF3.2270723556703197e-22
aF-6.986460816928229e-22
aF2.6404287871123775e-22
aa(lp40
F-2.9661994440274635e-06
aF1.9527556672122148e-06
aF0.0002095200201822672
aF-1.4494640599534804e-05
aF-0.007076568467166431
aF-0.0003802398832120734
aF0.07192664982004943
aF1.4664015811770875e-16
aF2.3664495256888355e-05
aF-1.7541833769030858e-05
aF-0.0011951999169256366
aF0.00016350866843936078
aF0.02421998614419041
aF0.00032233618932940854
aF-0.08203248270750423
aF-8.084007370863466e-05
aF6.263128942995786e-05
aF0.0027259180528158987
aF-0.0004603185065901419
aF-0.02762644818679614
aF0.00017397481266592896
aF0.00015326259110251973
aF-0.00011547370190457394
aF-0.003106775424372253
aF0.0004979029393062357
aF0.010501373049759545
aF-0.00017413610441188845
aF0.00011695932677788396
aF0.001769239963943276
aF-0.0001871339704909625
aF0.00011855502377535071
aF-6.204406409189332e-05
aF-0.00040270373600643594
aF-4.477508534671102e-05
aF1.3516566428787067e-05
aF7.235344547307824e-06
aI7
aa(lp41
F60.52132672291887
aF94.5806226485999
aa(lp42
(lp43
F60.51737926327576
aF60.52527418256198
aag7
aaa(lp44
(lp45
F-7.408197171115276e-23
aF5.750716795209106e-23
aF-3.8885813575875015e-22
aF-6.722360017183942e-22
aF-2.1455019590683518e-19
aF1.2279076883669065e-21
aF-2.3961156308146146e-18
aF7.043296474637561e-34
aF1.61317423428099e-22
aF-1.3222849745780563e-21
aF1.1828847832838632e-20
aF-6.863783278506635e-21
aF1.164599882089967e-18
aF-1.9852184750862345e-20
aF-2.8152283318050256e-18
aF5.791529099033502e-21
aF-1.2773353790344567e-21
aF-1.7782795837661793e-19
aF-1.8590680190067077e-20
aF-6.181075662636365e-20
aF1.211062729386576e-21
aF-1.0382712777419203e-20
aF4.5388554047376194e-21
aF1.3020349305831766e-19
aF-1.9334746198751818e-20
aF-1.6476481466661054e-19
aF8.433935975911652e-21
aF-4.768258371199676e-21
aF1.7844162859010607e-20
aF9.239691548552919e-21
aF-4.87495111602766e-21
aF4.150752148956112e-21
aF2.0377930205058715e-20
aF2.566506461202562e-21
aF-1.7194433588125038e-22
aF-1.456788185561375e-22
aa(lp46
F-2.965586266976007e-06
aF1.9526277725073898e-06
aF0.00020948703054662793
aF-1.4497876466099107e-05
aF-0.0070757997052570045
aF-0.00038018094552870875
aF0.0719223474917379
aF-3.080218845501053e-17
aF2.365938253997817e-05
aF-1.753981066485607e-05
aF-0.001195000753196914
aF0.00016350333696963238
aF0.024217134877179445
aF0.00032228081708009394
aF-0.08202683380862123
aF-8.082186144054653e-05
aF6.262178866743818e-05
aF0.00272543892298965
aF-0.0004602678403247952
aF-0.027622945453420963
aF0.00017394404083486545
aF0.00015322666518414408
aF-0.00011545285649074823
aF-0.0031062012036853965
aF0.0004978271034794925
aF0.010499946797059203
aF-0.00017409372290866503
aF0.00011693538849314724
aF0.0017688970943421922
aF-0.00018710000439034277
aF0.00011852512679749727
aF-6.203006118459073e-05
aF-0.0004026221308449654
aF-4.4763409647170994e-05
aF1.3513261735072945e-05
aF7.233397518483132e-06
aI7
aa(lp47
F60.52922164220509
aF94.58962677852706
aa(lp48
(lp49
F60.52527418256198
aF60.5331691018482
aag7
aaa(lp50
(lp51
F-1.9676866591665661e-22
aF-1.4703624983184714e-22
aF7.042183909988986e-21
aF1.1379133553056548e-22
aF-2.822146896338051e-20
aF1.5565229209014182e-20
aF6.8299563094278125e-18
aF4.495123469451542e-33
aF9.989606341892236e-22
aF2.2308953752054264e-22
aF-8.812763655777291e-20
aF-5.490484447658854e-21
aF-3.8874755469526783e-19
aF-1.636830876614914e-20
aF3.1556582192815272e-18
aF6.5397230527613064e-21
aF1.6392340576346418e-21
aF-1.263735626862212e-19
aF1.2932603164266501e-20
aF-5.559490507388747e-19
aF-5.816371699420512e-21
aF-1.0489879556436905e-20
aF3.1129458714603542e-21
aF8.262002311929951e-20
aF1.8361227633538935e-20
aF7.675235859754177e-19
aF-1.2084651479206939e-20
aF1.3870746080099892e-21
aF6.614801848747485e-20
aF8.497563025853031e-21
aF-5.359941891045295e-21
aF-6.609382469874841e-21
aF2.4987373659703893e-20
aF-3.0551861571023975e-21
aF-7.569682118737447e-22
aF1.3893862113882034e-22
aa(lp52
F-2.9649732696631102e-06
aF1.9524998523961677e-06
aF0.00020945404901800578
aF-1.4501110495832892e-05
aF-0.007075031097237697
aF-0.0003801220230185935
aF0.0719180458494845
aF2.604812119661625e-16
aF2.3654271390660495e-05
aF-1.7537787770167016e-05
aF-0.0011948016412487584
aF0.00016349800270813817
aF0.024214284226110105
aF0.0003222254604394242
aF-0.08202118592030683
aF-8.080365499346485e-05
aF6.261228985809539e-05
aF0.0027249599242671466
aF-0.0004602171823132487
aF-0.027619443528661313
aF0.0001739132778908503
aF0.00015319075119912473
aF-0.00011543201654079382
aF-0.003105627147628735
aF0.0004977512867544989
aF0.010498520893544099
aF-0.0001740513559945881
aF0.00011691145741105542
aF0.0017685543273397327
aF-0.00018706604830534082
aF0.00011849524045720865
aF-6.201606290883168e-05
aF-0.00040254055108242417
aF-4.475173823099319e-05
aF1.3509958215997114e-05
aF7.231451224393628e-06
aI7
aa(lp53
F60.53711656149132
aF94.59863082700318
aa(lp54
(lp55
F60.5331691018482
aF60.541064021134424
aag7
aaa.