(lp0
(lp1
(lp2
F-6.698216638333048e-18
aF1.368351378345433e-18
aF1.0135374947692129e-17
aF-1.3835959233975933e-17
aF-1.3954892368935455e-17
aF-5.2224882714221524e-17
aF-1.0665919215144833e-16
aF-4.8272635065096444e-33
aF-6.577318678352006e-19
aF-4.268002735951089e-19
aF-1.7430431482672955e-18
aF-6.657370402245558e-19
aF-4.1118047990593656e-18
aF-3.3077304728737646e-17
aF4.4478335245216785e-17
aF-2.3847212752879475e-19
aF-2.8017241599645793e-18
aF-3.486086296534591e-18
aF-9.986055603368337e-19
aF-4.1118047990593656e-18
aF-1.0467344478638934e-17
aF1.915511088754418e-18
aF8.902970559853798e-19
aF-3.486086296534591e-18
aF-6.657370402245558e-19
aF2.1070604302610803e-17
aF1.915511088754418e-18
aF-2.8017241599645793e-18
aF-1.7430431482672955e-18
aF3.2121017166919853e-18
aF-2.3847212752879475e-19
aF-4.268002735951089e-19
aF-1.2815599580856194e-17
aF-6.577318678352006e-19
aF1.3568066422140553e-17
aF-4.3060667449580936e-18
aa(lp3
F-0.19421547887301652
aF0.21707552895845156
aF-0.24971916745537487
aF0.2995637213706177
aF-0.3839836503785796
aF0.5552236226366751
aF-1.074750267972506
aF9.771990909097689e-17
aF0.008257434271817353
aF-0.01718172412516503
aF0.03664824101887455
aF-0.08184669293129371
aF0.20125942323058196
aF-0.6436279516993527
aF-0.9288291233726431
aF0.024772302815452056
aF-0.04295431031291257
aF0.0732964820377491
aF-0.12277003939694056
aF0.20125942323058196
aF0.4485798466454677
aF0.04128717135908676
aF-0.0572724137505501
aF0.0732964820377491
aF-0.08184669293129371
aF-0.28787217059792414
aF0.04128717135908676
aF-0.04295431031291257
aF0.03664824101887455
aF0.2073302684973693
aF0.024772302815452056
aF-0.01718172412516503
aF-0.15901629093060593
aF0.008257434271817353
aF0.12690573840384797
aF-0.1041014278177498
aI7
aa(lp4
F1.0460214318470844
aF0.9572170129226265
aa(lp5
(lp6
F1.0443407547845773
aF1.0465612008338276
aa(lp7
F0.9571553338657028
aF0.9572786919795501
aaaa(lp8
(lp9
F-2.0483877403230368e-18
aF1.2786052002950365e-17
aF-1.366128212243506e-17
aF9.925462744578243e-18
aF6.838950872329423e-18
aF-1.8380190002585414e-17
aF1.1066609859319678e-16
aF3.416485739158163e-33
aF3.656758442703112e-19
aF1.3809929322684818e-18
aF1.822036242040894e-20
aF5.32147482438128e-18
aF1.597369414806595e-18
aF-1.9365728116095814e-18
aF3.6745583370304143e-17
aF-6.376959431658734e-19
aF-1.751688097259217e-18
aF3.644072484081788e-20
aF-5.895575571242538e-18
aF1.597369414806595e-18
aF1.0252859735401435e-17
aF-3.375791206578865e-18
aF-2.261949504321295e-20
aF3.644072484081788e-20
aF5.32147482438128e-18
aF-2.146569073724869e-17
aF-3.375791206578865e-18
aF-1.751688097259217e-18
aF1.822036242040894e-20
aF-1.7991444881188967e-18
aF-6.376959431658734e-19
aF1.3809929322684818e-18
aF4.5530329536917475e-18
aF3.656758442703112e-19
aF3.555811687719692e-18
aF-6.238742048766932e-18
aa(lp10
F-0.1940398761487877
aF0.2169067199713508
aF-0.24955610975208814
aF0.29940451716325983
aF-0.38382419491468966
aF0.5550528282163394
aF-1.0745214557106615
aF-7.619775705460644e-17
aF0.008257979536797544
aF-0.01718268278085001
aF0.03664990328593543
aF-0.0818495293798609
aF0.2012641741958315
aF-0.6436357400103132
aF-0.9290365725237429
aF0.024773938610392635
aF-0.04295670695212502
aF0.07329980657187087
aF-0.12277429406979133
aF0.2012641741958315
aF0.4487279453878347
aF0.04128989768398773
aF-0.05727560926950003
aF0.07329980657187087
aF-0.0818495293798609
aF-0.2880006506819835
aF0.04128989768398773
aF-0.04295670695212502
aF0.03664990328593543
aF0.20744829253798336
aF0.024773938610392635
aF-0.01718268278085001
aF-0.15912711735272483
aF0.008257979536797544
aF0.12701079889914865
aF-0.1042014588698786
aI7
aa(lp11
F1.0458787250266999
aF0.9573403710364736
aa(lp12
g6
a(lp13
F0.9572786919795501
aF0.9574020500933973
aaaa(lp14
(lp15
F8.440513129433127e-18
aF-1.1736991178193722e-17
aF1.0912728539177227e-17
aF-5.832127704692375e-19
aF1.069061438694671e-17
aF5.54099235498075e-17
aF2.013705924075639e-17
aF-1.500046296057076e-33
aF-3.476573463769374e-19
aF7.125860183772893e-19
aF-2.2887418339367505e-18
aF3.901698480987521e-18
aF-5.171495083062716e-18
aF-2.8413384006806836e-17
aF-2.1959539105615714e-17
aF6.91751436845995e-19
aF-3.422705381987198e-18
aF-4.577483667873501e-18
aF5.852547721481282e-18
aF-5.171495083062716e-18
aF1.0571784577985108e-17
aF3.4658836960457344e-18
aF-2.2506425413471878e-18
aF-4.577483667873501e-18
aF3.901698480987521e-18
aF-1.782448357346788e-17
aF3.4658836960457344e-18
aF-3.422705381987198e-18
aF-2.2887418339367505e-18
aF-1.3153001726389598e-17
aF6.91751436845995e-19
aF7.125860183772893e-19
aF-8.0764212259819e-18
aF-3.476573463769374e-19
aF-3.591018520125093e-18
aF-5.677665706330472e-18
aa(lp16
F-0.19386445419595394
aF0.2167380629765873
aF-0.24939317786908263
aF0.2992454155336363
aF-0.3836648226718055
aF0.5548821046397359
aF-1.0742927245245946
aF4.961281670329705e-17
aF0.008258523089263425
aF-0.01718363841605981
aF0.03665156029868778
aF-0.08185235683315137
aF0.20126891004366693
aF-0.6436435034534838
aF-0.9292440090420038
aF0.024775569267790273
aF-0.04295909604014952
aF0.07330312059737557
aF-0.12277853524972705
aF0.20126891004366693
aF0.44887604594121977
aF0.04129261544631712
aF-0.05727879472019936
aF0.07330312059737557
aF-0.08185235683315137
aF-0.28812914683897134
aF0.04129261544631712
aF-0.04295909604014952
aF0.03665156029868778
aF0.20756634634393883
aF0.024775569267790273
aF-0.01718363841605981
aF-0.15923798642723044
aF0.008258523089263425
aF0.12711591400405495
aF-0.10430155550991972
aI7
aa(lp17
F1.0457360804405722
aF0.957463729150321
aa(lp18
g6
a(lp19
F0.9574020500933973
aF0.9575254082072445
aaaa(lp20
(lp21
F-1.1007922223212367e-17
aF6.999567928381027e-18
aF2.018916668995094e-18
aF4.940975547530489e-18
aF-2.544761702396883e-17
aF-5.2689907827404273e-17
aF1.0528530518938509e-16
aF5.3707007116782514e-33
aF4.390599655489527e-19
aF1.2436026675416057e-18
aF-1.217938103758974e-18
aF-3.067636601542991e-18
aF2.7730011665561827e-18
aF-3.9096267699717934e-17
aF-2.5444132331056392e-17
aF1.317179896646858e-18
aF3.109006668854014e-18
aF-2.435876207517948e-18
aF2.3374390015927423e-18
aF2.7730011665561827e-18
aF2.175316807850639e-17
aF-1.2741471242088508e-18
aF-2.793551678768543e-18
aF-2.435876207517948e-18
aF-3.067636601542991e-18
aF-6.322870266567226e-18
aF-1.2741471242088508e-18
aF3.109006668854014e-18
aF-1.217938103758974e-18
aF-8.554564150258307e-18
aF1.317179896646858e-18
aF1.2436026675416057e-18
aF9.009053979472436e-18
aF4.390599655489527e-19
aF-7.521269776382545e-18
aF-2.0090588503193124e-18
aa(lp22
F-0.19368921280536508
aF0.2165695578181321
aF-0.24923037169377377
aF0.2990864164036495
aF-0.3835055335976531
aF0.5547114518706749
aF-1.0740640743752905
aF-1.0114226568587995e-16
aF0.008259064929960269
aF-0.01718459103219626
aF0.03665321205972371
aF-0.08185517529586962
aF0.20127363078245236
aF-0.6436512420433974
aF-0.929451432924353
aF0.024777194789880806
aF-0.042961477580490647
aF0.07330642411944742
aF-0.12278276294380444
aF0.20127363078245236
aF0.449024148297651
aF0.041295324649801346
aF-0.057281970107320855
aF0.07330642411944742
aF-0.08185517529586962
aF-0.288257659059602
aF0.041295324649801346
aF-0.042961477580490647
aF0.03665321205972371
aF0.20768442990824987
aF0.024777194789880806
aF-0.01718459103219626
aF-0.15934889815287726
aF0.008259064929960269
aF0.1272210837262121
aF-0.10440171775721341
aI7
aa(lp23
F1.045593498048222
aF0.9575870872641681
aa(lp24
g6
a(lp25
F0.9575254082072445
aF0.9576487663210917
aaaa(lp26
(lp27
F-4.107794827786977e-18
aF-1.3625074066793302e-17
aF-1.1919594031261904e-17
aF3.6576078833246376e-18
aF6.503391098170089e-19
aF-4.990154706133705e-18
aF4.2403632133357513e-17
aF7.139950001370004e-34
aF-5.857911083238951e-19
aF1.1888018684509818e-18
aF-2.103731236685899e-18
aF-2.5155560389931983e-18
aF9.273922438688971e-18
aF3.185300999921805e-17
aF-9.323825277459883e-18
aF-2.2649848994878235e-20
aF-4.974422808261598e-19
aF-4.207462473371798e-18
aF-3.773334058489798e-18
aF9.273922438688971e-18
aF1.742566750929896e-17
aF2.2752148863109456e-18
aF-6.632563744348798e-19
aF-4.207462473371798e-18
aF-2.5155560389931983e-18
aF2.506950348952031e-17
aF2.2752148863109456e-18
aF-4.974422808261598e-19
aF-2.103731236685899e-18
aF-9.331144753535644e-18
aF-2.2649848994878235e-20
aF1.1888018684509818e-18
aF9.514268102145074e-18
aF-5.857911083238951e-19
aF3.2611691694935268e-18
aF2.6545556200514798e-18
aa(lp28
F-0.19351415176813877
aF0.21640120434013557
aF-0.249067691113691
aF0.2989275196952698
aF-0.3833463276399959
aF0.5545408698729867
aF-1.0738355052237547
aF-6.593943255144176e-17
aF0.008259605059633987
aF-0.017185540630661945
aF0.03665485857163602
aF-0.08185798477272024
aF0.2012783364205502
aF-0.643658955794581
aF-0.9296588441677242
aF0.02477881517890196
aF-0.04296385157665486
aF0.07330971714327204
aF-0.12278697715908037
aF0.2012783364205502
aF0.449172252449164
aF0.04129802529816993
aF-0.05728513543553981
aF0.07330971714327204
aF-0.08185798477272024
aF-0.28838618733459487
aF0.04129802529816993
aF-0.04296385157665486
aF0.03665485857163602
aF0.207802543223932
aF0.02477881517890196
aF-0.017185540630661945
aF-0.15945985252841727
aF0.008259605059633987
aF0.12732630807326065
aF-0.10450194563109556
aI7
aa(lp29
F1.045450977809202
aF0.9577104453780154
aa(lp30
g6
a(lp31
F0.9576487663210917
aF0.9577721244349391
aaaa(lp32
(lp33
F7.46429182502411e-18
aF6.734020517566404e-18
aF-1.0211661511870166e-17
aF1.1503571002853259e-17
aF2.7543630861021013e-17
aF3.935948753778643e-17
aF1.1772012609426891e-17
aF7.651733085162183e-34
aF7.120518506393701e-19
aF-8.374814831872908e-19
aF4.753642307958803e-19
aF-1.7091928280036408e-18
aF7.996514696118923e-18
aF-5.0225743822470926e-17
aF-3.3777308794119186e-17
aF4.0143207594130316e-19
aF1.3757432439853872e-18
aF9.507284615917606e-19
aF-2.563789242005461e-18
aF7.996514696118923e-18
aF-6.185023174763977e-18
aF-1.6439111747335708e-18
aF-4.786403093218932e-19
aF9.507284615917606e-19
aF-1.7091928280036408e-18
aF2.5270154775676578e-17
aF-1.6439111747335708e-18
aF1.3757432439853872e-18
aF4.753642307958803e-19
aF5.9108531855192345e-18
aF4.0143207594130316e-19
aF-8.374814831872908e-19
aF-7.736423155110485e-18
aF7.120518506393701e-19
aF1.737512904481626e-18
aF6.408337097345768e-18
aa(lp34
F-0.1933392708756621
aF0.21623300238692877
aF-0.2489051360164797
aF0.29876872533053744
aF-0.38318720474663664
aF0.5543703586105243
aF-1.0736070170310181
aF-8.143521127906689e-18
aF0.008260143479031057
aF-0.017186487212860112
aF0.036656499837018026
aF-0.08186078526840757
aF0.20128302696632056
aF-0.643666644721554
aF-0.9298662427690533
aF0.024780430437093173
aF-0.04296621803215028
aF0.07331299967403605
aF-0.12279117790261135
aF0.20128302696632056
aF0.4493203583877979
aF0.04130071739515529
aF-0.05728829070953371
aF0.07331299967403605
aF-0.08186078526840757
aF-0.2885147316546713
aF0.04130071739515529
aF-0.04296621803215028
aF0.036656499837018026
aF0.20792068628399912
aF0.024780430437093173
aF-0.017186487212860112
aF-0.15957084955259737
aF0.008260143479031057
aF0.1274315870528338
aF-0.10460223915089525
aI7
aa(lp35
F1.045308519683101
aF0.9578338034918628
aa(lp36
g6
a(lp37
F0.9577721244349391
aF0.9578954825487863
aaaa(lp38
(lp39
F5.963555112095771e-18
aF-4.74049859421569e-18
aF-8.906708408016438e-18
aF1.4390841225394042e-17
aF8.26417064819619e-18
aF2.2434236590766754e-18
aF-1.1244653327501718e-17
aF7.4042701725009035e-34
aF2.4184571133408793e-19
aF-7.4937961212061685e-19
aF2.813505749418965e-18
aF2.7192178659186276e-18
aF-1.2726475283268877e-17
aF-5.4941671097199196e-17
aF2.619532641421592e-17
aF-1.0091863419745434e-18
aF-1.38725554324735e-19
aF5.62701149883793e-18
aF-2.860067105029287e-18
aF-1.2726475283268877e-17
aF2.5961212156096937e-17
aF-5.254949193063676e-19
aF-1.8496740576631336e-19
aF5.62701149883793e-18
aF2.7192178659186276e-18
aF8.112858717698812e-18
aF-5.254949193063676e-19
aF-1.38725554324735e-19
aF2.813505749418965e-18
aF4.72396683931186e-18
aF-1.0091863419745434e-18
aF-7.4937961212061685e-19
aF-5.5092099633573644e-18
aF2.4184571133408793e-19
aF1.0781498277498328e-17
aF1.0750507002091948e-18
aa(lp40
F-0.19316456991959038
aF0.2160649518030228
aF-0.24874270628990003
aF0.29861003323156166
aF-0.3830281648654168
aF0.5541999180471626
aF-1.0733786097581348
aF-2.1739026626758834e-17
aF0.008260680188898561
aF-0.0171874307801947
aF0.03665813585846362
aF-0.08186357678763583
aF0.2012877024281214
aF-0.6436743088388297
aF-0.9300736287252804
aF0.024782040566695685
aF-0.04296857695048675
aF0.07331627171692724
aF-0.12279536518145373
aF0.2012877024281214
aF0.44946846610559715
aF0.04130340094449281
aF-0.05729143593398234
aF0.07331627171692724
aF-0.08186357678763583
aF-0.2886432920105559
aF0.04130340094449281
aF-0.04296857695048675
aF0.03665813585846362
aF0.2080388590814649
aF0.024782040566695685
aF-0.0171874307801947
aF-0.15968188922416052
aF0.008260680188898561
aF0.12753692067255853
aF-0.10470259833593576
aI7
aa(lp41
F1.0451661236295413
aF0.9579571616057099
aa(lp42
g6
a(lp43
F0.9578954825487863
aF0.9580188406626335
aaaa(lp44
(lp45
F-5.137072090556896e-18
aF3.431626151022239e-18
aF5.57248523513814e-18
aF-1.7350249608452072e-17
aF-2.4132257221074155e-17
aF4.5297871718437283e-17
aF-6.288820580188425e-17
aF-6.178451183088541e-34
aF-1.7873824824221647e-19
aF5.0749531371603185e-19
aF-1.7559092826469937e-18
aF7.256893170784334e-19
aF1.2082186444288458e-18
aF-2.9552941185442755e-17
aF-4.5515065414012414e-17
aF-5.362147447266495e-19
aF-4.659851916867275e-19
aF-3.511818565293987e-18
aF1.08853397561765e-18
aF1.2082186444288458e-18
aF-2.7530844647440672e-17
aF2.5757557107425318e-18
aF-6.213135889156367e-19
aF-3.511818565293987e-18
aF7.256893170784334e-19
aF9.022901572565564e-18
aF2.5757557107425318e-18
aF-4.659851916867275e-19
aF-1.7559092826469937e-18
aF-1.2203230798088975e-18
aF-5.362147447266495e-19
aF5.0749531371603185e-19
aF6.632915424945836e-18
aF-1.7873824824221647e-19
aF-1.3136422725322406e-17
aF-3.573138036595642e-18
aa(lp46
F-0.1929900486918458
aF0.21589705243310725
aF-0.24858040182182603
aF0.29845144332051976
aF-0.3828692079442155
aF0.5540295481467968
aF-1.0731502833661808
aF-5.2909301773040784e-17
aF0.008261215189984173
aF-0.017188371334070352
aF0.0366597666385673
aF-0.08186635933510916
aF0.20129236281430868
aF-0.6436819481609145
aF-0.9302810020333506
aF0.02478364556995252
aF-0.04297092833517588
aF0.0733195332771346
aF-0.12279953900266374
aF0.20129236281430868
aF0.44961657559461254
aF0.04130607594992086
aF-0.05729457111356784
aF0.0733195332771346
aF-0.08186635933510916
aF-0.28877186839297736
aF0.04130607594992086
aF-0.04297092833517588
aF0.0366597666385673
aF0.20815706160934333
aF0.02478364556995252
aF-0.017188371334070352
aF-0.1597929715418463
aF0.008261215189984173
aF0.12764230894005626
aF-0.1048030232055352
aI7
aa(lp47
F1.0450237896081793
aF0.9580805197195572
aa(lp48
g6
a(lp49
F0.9580188406626335
aF0.9581421987764808
aaaa(lp50
(lp51
F9.172138178850377e-18
aF1.1459300994851776e-17
aF-5.726313157634353e-18
aF2.4419533911824836e-17
aF1.4476716178052508e-17
aF4.148003151800638e-17
aF4.507789516839797e-17
aF-4.0200110418058024e-33
aF1.1929252855713143e-19
aF1.519678461783935e-18
aF6.623250063424421e-19
aF-3.965093402444671e-18
aF-7.046461871626958e-18
aF2.5268933653153167e-17
aF4.961353034815859e-17
aF3.578775856713943e-19
aF3.2974920250622317e-19
aF1.3246500126848842e-18
aF-5.947640103667007e-18
aF-7.046461871626958e-18
aF-2.1323476430599388e-17
aF5.964626427856571e-19
aF2.7526302379773736e-18
aF1.3246500126848842e-18
aF-3.965093402444671e-18
aF-1.6491382553036206e-18
aF5.964626427856571e-19
aF3.2974920250622317e-19
aF6.623250063424421e-19
aF-1.3133510766506564e-17
aF3.578775856713943e-19
aF1.519678461783935e-18
aF-6.2958762578037635e-18
aF1.1929252855713143e-19
aF8.367963284028098e-18
aF-5.874489245009856e-18
aa(lp52
F-0.19281570698461928
aF0.2157293041220524
aF-0.24841822250024748
aF0.2982929555196589
aF-0.3827103339309515
aF0.5538592488733453
aF-1.0729220378162572
aF8.344406713243651e-17
aF0.008261748483036159
aF-0.017189308875892394
aF0.036661392179924104
aF-0.0818691329155316
aF0.20129700813323625
aF-0.6436895627023081
aF-0.930488362690212
aF0.024785245449108477
aF-0.04297327218973098
aF0.07332278435984821
aF-0.12280369937329741
aF0.20129700813323625
aF0.44976468684689874
aF0.041308742415180795
aF-0.05729769625297464
aF0.07332278435984821
aF-0.0818691329155316
aF-0.28890046079266674
aF0.041308742415180795
aF-0.04297327218973098
aF0.036661392179924104
aF0.20827529386064725
aF0.024785245449108477
aF-0.017189308875892394
aF-0.15990409650438955
aF0.008261748483036159
aF0.12774775186294138
aF-0.10490351377900521
aI7
aa(lp53
F1.044881517578706
aF0.9582038778334043
aa(lp54
g6
a(lp55
F0.9581421987764808
aF0.958265556890328
aaaa.