(lp0
(lp1
(lp2
F9.11167290250015e-12
aF8.394993789933472e-13
aF1.839481441458039e-13
aF-5.658859681869844e-14
aF-2.124299628581936e-15
aF2.7432652819868635e-17
aF7.9678572647577e-17
aF1.3551899676186134e-33
aF2.9598981728237937e-12
aF-4.119068354657218e-14
aF3.823191604545515e-14
aF-7.272935061545654e-16
aF-1.443366971906919e-15
aF1.1952810096872627e-18
aF1.6926439327981964e-18
aF-4.920612712701316e-13
aF5.817598602201723e-16
aF3.191212232801701e-15
aF2.272403721968246e-18
aF-2.755576409722025e-17
aF-1.982473077854845e-20
aF1.3139823615274154e-14
aF-1.624571715770551e-16
aF1.257490941166279e-16
aF1.0852900178282708e-19
aF4.531670818027334e-20
aF8.735504704097644e-17
aF-4.797142935461438e-20
aF-1.705432822976104e-18
aF-1.2605853340143363e-21
aF6.812560372430721e-18
aF3.994100861228149e-21
aF-5.394968706097599e-21
aF1.4309557830617906e-21
aF5.422726648389722e-23
aF3.5748458572496094e-23
aa(lp3
F2045994.1697327553
aF63464.847090959665
aF-41632.553067034096
aF-610.1975901884775
aF400.67543282731805
aF1.750166775245151
aF-1.1488637240588733
aF-2.9360873742451625e-17
aF253507.05370082732
aF1805.6628946361543
aF-3618.0656965829435
aF-13.892782840995771
aF20.66629133264006
aF0.029989157164320393
aF-0.01968377122601663
aF13093.613037095245
aF-48.71593100558401
aF-124.20189989612588
aF-0.0871913176070857
aF0.35404158738739483
aF0.00042878580294701513
aF372.6784420268355
aF-2.1935944308028223
aF-2.126861763954623
aF-0.003054547707440609
aF0.0020163523296210712
aF6.377203787893214
aF-0.01891458933585559
aF-0.018184760813565036
aF-4.3842449022867063e-05
aF0.06566742834662942
aF9.21763097568637e-05
aF-6.158692265810517e-05
aF0.00037365328898741613
aF1.3366111579087998e-06
aF8.904351849360508e-07
aI7
aa(lp4
F45.8924156694527
aF0.7865162985733927
aa(lp5
(lp6
F45.82571004851772
aF45.89676432209373
aa(lp7
F0.7864957388877515
aF0.7865368582590339
aaaa(lp8
(lp9
F-3.621281672457299e-11
aF1.4385376861462873e-12
aF3.1065409140326355e-12
aF3.143826764855265e-14
aF-1.7073361134604735e-14
aF7.274927351947113e-17
aF3.256217922555626e-17
aF-1.9471633748917628e-33
aF-5.1300471054561914e-12
aF5.95669480815065e-14
aF7.335412529078744e-14
aF5.079913489288869e-16
aF1.2194643654453496e-15
aF-1.726102562041218e-18
aF6.746342435610971e-19
aF-9.696640211876844e-14
aF2.868631595810394e-15
aF3.717471974584062e-15
aF5.546996341130233e-18
aF-1.099773884549206e-18
aF1.3913906729181473e-20
aF1.4849924711288415e-14
aF5.04938184572705e-17
aF-2.6166432498275855e-17
aF1.645164949392079e-19
aF1.9878610235784198e-19
aF-1.7085262165505814e-16
aF-1.305191352080112e-19
aF-8.381165987596542e-19
aF-1.7384246943275468e-21
aF6.034921042822925e-18
aF2.7926509126655544e-21
aF4.70312088340163e-21
aF1.5450493039042887e-21
aF7.851174601059567e-23
aF-4.735312818427381e-23
aa(lp10
F2045223.323121362
aF63445.350033842755
aF-41621.2306182809
aF-610.0738617599144
aF400.6084185363713
aF1.749994776631628
aF-1.1487917693003087
aF-5.298159761528862e-17
aF253438.1696034111
aF1805.3585519155554
aF-3617.4606884638747
aF-13.89171041692823
aF20.66499612270935
aF0.029989345233220572
aF-0.019684596226398253
aF13091.426495080805
aF-48.70718261835716
aF-124.19411923835602
aF-0.08719938618159845
aF0.3540564091326582
aF0.0004288261869866956
aF372.6551656850021
aF-2.1935177292184322
aF-2.12695078189867
aF-0.0030548862873701747
aF0.0020166476244717524
aF6.377471464271451
aF-0.018915910330106995
aF-0.01818742254532447
aF-4.3851160271036206e-05
aF0.06567704154825343
aF9.219616736066823e-05
aF-6.160238092779468e-05
aF0.00037374703534616925
aF1.3370164426116268e-06
aF8.907517893593735e-07
aI7
aa(lp11
F45.89001582014732
aF0.786557417944675
aa(lp12
g6
a(lp13
F0.7865368582590339
aF0.7865779776303162
aaaa(lp14
(lp15
F9.159568155918984e-11
aF-2.1346843869766266e-12
aF-9.983389725980286e-13
aF-5.415245557956971e-15
aF-1.8188259927260045e-14
aF-1.6254348735843878e-17
aF6.240625577580943e-17
aF1.6393307076611534e-33
aF-3.1389128762019743e-12
aF-4.181532789087607e-14
aF-4.4758797319828166e-14
aF-1.1265764934912101e-17
aF1.5100892441895775e-16
aF3.3169816241672664e-19
aF-4.678407167885156e-19
aF-3.4594393499630093e-13
aF-3.1869106502241342e-16
aF-3.561403003602129e-15
aF-1.4899032799779347e-18
aF-3.2073149146654995e-18
aF1.84004453102996e-20
aF8.215599491134444e-15
aF-2.0008053915484309e-16
aF-1.0258013914624627e-16
aF-1.127430171331979e-19
aF-2.647608598945124e-20
aF-1.328864302370969e-17
aF1.132408868565913e-18
aF-5.13004115425077e-19
aF-2.6848901347108726e-21
aF-3.57585713829346e-18
aF1.8385569891950364e-21
aF4.854311138027676e-21
aF-2.0639866232186945e-20
aF1.6920618277920224e-24
aF-4.54360245965631e-23
aa(lp16
F2044452.8049351878
aF63425.860003965594
aF-41609.91179573097
aF-609.9501650639417
aF400.5414185349697
aF1.7498228044191657
aF-1.1487198216134147
aF4.581598140384336e-17
aF253369.30755546017
aF1805.054278728719
aF-3616.8558093320676
aF-13.890638148101107
aF20.66370104003452
aF0.02998953330213677
aF-0.019685421197709135
aF13089.240418962618
aF-48.69843570026507
aF-124.18633934487073
aF-0.08720745493334627
aF0.354071230352772
aF0.0004288665722709248
aF372.6318916297778
aF-2.193441025499589
aF-2.127039796682927
aF-0.003055224888007479
aF0.002016942945019845
aF6.377739131261263
aF-0.018917231272171087
aF-0.018190084508354597
aF-4.385987274853181e-05
aF0.06568665558541545
aF9.221602823051328e-05
aF-6.161784220450971e-05
aF0.00037384079992670697
aF1.3374218275965248e-06
aF8.910684888589678e-07
aI7
aa(lp17
F45.8876162217146
aF0.7865985373159574
aa(lp18
g6
a(lp19
F0.7865779776303162
aF0.7866190970015987
aaaa(lp20
(lp21
F-1.9865179929489116e-11
aF-3.1597842766637984e-12
aF3.295141075313079e-12
aF5.617646055472e-14
aF-9.582308147811572e-15
aF7.3541043739986e-17
aF-1.0418182489861758e-16
aF1.5537980921580078e-34
aF-6.983170712548867e-12
aF-7.443878638717934e-14
aF-1.8016491798015347e-13
aF7.7413185310763e-17
aF8.579807045427169e-16
aF-8.419072217793315e-19
aF2.3928198093851034e-19
aF-1.0667041312659886e-13
aF9.863924457004846e-16
aF3.2635794797761124e-15
aF1.211021274450224e-19
aF-2.7056740450925596e-17
aF-5.358702047601113e-21
aF2.276684657612485e-14
aF9.250459967160404e-17
aF1.6313398815025055e-16
aF-1.1159607050557455e-19
aF1.0134942886747201e-19
aF-1.1733937719966528e-16
aF3.1526427053254126e-19
aF1.6307161310307233e-18
aF-6.503630397550014e-22
aF6.406845430018144e-18
aF-6.079213839265699e-21
aF-9.726048812348725e-22
aF2.6992778932172228e-20
aF-9.580092462579734e-23
aF-3.5459303563509863e-23
aa(lp22
F2043682.6150177787
aF63406.37699842313
aF-41598.59659804138
aF-609.8265000907463
aF400.4744328193512
aF1.7496508586024475
aF-1.1486478809971048
aF6.193650273469396e-17
aF253300.46754881152
aF1804.7500750557483
aF-3616.2510591535674
aF-13.889566034484245
aF20.662406084596025
aF0.02998972137107516
aF-0.019686246139948467
aF13087.05480861808
aF-48.68969025099126
aF-124.17856021555271
aF-0.08721552386236457
aF0.3540860510477217
aF0.00042890695879964895
aF372.60861986081164
aF-2.1933643196462707
aF-2.127128808307307
aF-0.003055563509353472
aF0.0020172382912657127
aF6.378006788862394
aF-0.01891855216203004
aF-0.018192746702658635
aF-4.386858645545251e-05
aF0.06569627045812718
aF9.223589236679168e-05
aF-6.163330648865525e-05
aF0.0003739345827314794
aF1.3378273128825612e-06
aF8.91385283457987e-07
aI7
aa(lp23
F45.88521687411521
aF0.78663965668724
aa(lp24
g6
a(lp25
F0.7866190970015987
aF0.7866602163728812
aaaa(lp26
(lp27
F-3.477529132958699e-11
aF-2.2714389597843124e-12
aF-3.632954408050845e-12
aF-2.063717853523829e-14
aF-1.0096007121752753e-14
aF1.0861183265914583e-16
aF-3.7801812276185684e-17
aF1.2230981908415442e-33
aF9.805744200488313e-13
aF-1.0088258332322811e-13
aF3.2902585641219377e-15
aF-7.234463716595418e-16
aF4.0708627620467033e-16
aF-1.6443543424841702e-18
aF1.1834284422675566e-18
aF-6.110829618678331e-13
aF1.923473523225943e-15
aF3.557188517827346e-17
aF-4.38855820304841e-18
aF2.3790128342169536e-17
aF5.387335089693131e-21
aF2.7007344355981468e-14
aF6.217033961162855e-17
aF-2.0798575817323567e-16
aF-1.2314153263740795e-19
aF1.696145336627668e-19
aF1.2163831923107006e-16
aF-1.22359258999104e-18
aF-1.7055829130622208e-18
aF-1.1956366135150987e-21
aF-3.300181525910417e-18
aF1.7458972222761537e-21
aF3.9684817186221043e-22
aF1.2812831596161845e-20
aF4.3114897419916043e-23
aF-3.200173432717378e-23
aa(lp28
F2042912.7532127758
aF63386.90101430907
aF-41587.285023869925
aF-609.7028668304787
aF400.40746138575616
aF1.7494789391759222
aF-1.148575947450295
aF1.79666438239869e-17
aF253231.6495753065
aF1804.4459408764556
aF-3615.6464378944393
aF-13.888494076044635
aF20.66111125637435
aF0.029989909440033716
aF-0.01968707105311543
aF13084.869663924646
aF-48.680946270232376
aF-124.17078185028468
aF-0.08722359296861482
aF0.3541008712174924
aF0.0004289473465727436
aF372.58535037775255
aF-2.193287611658749
aF-2.1272178167717204
aF-0.003055902151408257
aF0.0020175336632097187
aF6.378274437074572
aF-0.01891987299966981
aF-0.018195409128239762
aF-4.3877301391893234e-05
aF0.06570588616640018
aF9.225575976987003e-05
aF-6.164877378063618e-05
aF0.0003740283837629357
aF1.3382328984887269e-06
aF8.917021731795851e-07
aI7
aa(lp29
F45.88281777730983
aF0.7866807760585224
aa(lp30
g6
a(lp31
F0.7866602163728812
aF0.7867013357441636
aaaa(lp32
(lp33
F9.146125675975825e-11
aF2.3864320396070923e-12
aF-3.077299566665e-12
aF1.329499861480305e-14
aF1.3588497042748505e-14
aF6.446596864591593e-17
aF-7.16029421436946e-17
aF-6.963766828090736e-34
aF1.2358038489688517e-11
aF-8.406636641858211e-15
aF-2.1015723405590858e-14
aF-1.7449721783700905e-16
aF1.1451593045419301e-15
aF3.3450813680374837e-19
aF4.557732848139047e-19
aF7.45449291205109e-13
aF-1.0206960891488864e-15
aF-3.3251693761304464e-15
aF-4.225579137042135e-18
aF-2.2827683068076405e-17
aF6.0817688018790946e-21
aF2.354102446685977e-14
aF-8.618601203477354e-17
aF-1.689060180832229e-16
aF-1.4030756257324663e-19
aF7.972730462210763e-20
aF3.962594107079808e-16
aF-3.340741211429024e-19
aF3.666060297002967e-19
aF-2.6679679024823477e-22
aF-1.3480788371807493e-18
aF5.1072460679249435e-21
aF3.995757770212471e-21
aF1.0976251369002259e-20
aF-7.777051137606121e-23
aF3.5617854119311614e-23
aa(lp34
F2042143.219363891
aF63367.43204871691
aF-41575.977071874826
aF-609.5792652732734
aF400.3405042304251
aF1.7493070461339364
aF-1.1485040209718997
aF3.257503067435215e-17
aF253162.85362678877
aF1804.1418761705274
aF-3615.0419455207475
aF-13.887422272748053
aF20.659816555349966
aF0.029990097509006955
aF-0.01968789593720922
aF13082.684984759759
aF-48.672203757690454
aF-124.16300424894929
aF-0.08723166225202746
aF0.3541156908620699
aF0.0004289877355900555
aF372.56208318024875
aF-2.1932109015374213
aF-2.1273068220760796
aF-0.0030562408141715874
aF0.0020178290608522304
aF6.378542075897527
aF-0.018921193785077978
aF-0.018198071785101213
aF-4.388601755794754e-05
aF0.06571550271024607
aF9.227563044010433e-05
aF-6.166424408085766e-05
aF0.00037412220302352644
aF1.338638584433992e-06
aF8.92019158046926e-07
aI7
aa(lp35
F45.88041893125913
aF0.7867218954298048
aa(lp36
g6
a(lp37
F0.7867013357441636
aF0.7867424551154459
aaaa(lp38
(lp39
F-2.5040299042991694e-11
aF-3.8243314775195823e-13
aF-1.954988398342712e-12
aF-1.2413614481359675e-14
aF1.9034614727016026e-14
aF1.0441630700218871e-16
aF-5.8050459271096e-17
aF4.846640254797994e-34
aF7.187705856758015e-12
aF-6.4915620318952586e-15
aF-2.0290433904076402e-13
aF1.9806335961942105e-16
aF-2.120222966646288e-16
aF-2.572756468678493e-19
aF-1.0571440566166784e-18
aF-1.837868391975139e-13
aF-1.3341782927922294e-15
aF-1.574785571748306e-15
aF6.774444872907899e-18
aF6.12130539458982e-18
aF1.2297037938751768e-20
aF-1.957669483131122e-14
aF4.656675448030265e-17
aF-1.760604828232534e-16
aF-1.075939129964948e-19
aF-1.6659320297017152e-19
aF3.4064247736743365e-16
aF-1.5489099840001044e-18
aF-7.869402541630815e-19
aF1.5997828617922216e-21
aF-6.539652375739762e-18
aF-3.64987165390179e-21
aF8.237955737874425e-22
aF-3.1520798814294815e-21
aF-9.857777627484559e-23
aF3.776574328168297e-23
aa(lp40
F2041374.0133149219
aF63347.97009874526
aF-41564.67274071489
aF-609.455695409321
aF400.2735613495999
aF1.7491351794711352
aF-1.148432101560834
aF-5.8065198522709e-17
aF253094.07969510596
aF1803.8378809180351
aF-3614.4375819985726
aF-13.886350624563846
aF20.658521981503352
aF0.029990285577999563
aF-0.019688720792229025
aF13080.500771000943
aF-48.663462713051636
aF-124.15522741142932
aF-0.08723973171262447
aF0.35413050998143936
aF0.00042902812585151793
aF372.5388182679496
aF-2.193134189282318
aF-2.127395824220297
aF-0.0030565794976442585
aF0.0020181244841936115
aF6.3788097053309984
aF-0.0189225145182374
aF-0.018200734673246184
aF-4.389473495371337e-05
aF0.06572512008967653
aF9.22955043778827e-05
aF-6.167971738972467e-05
aF0.0003742160405157019
aF1.3390443707374155e-06
aF8.923362380831743e-07
aI7
aa(lp41
F45.87802033592379
aF0.7867630148010871
aa(lp42
g6
a(lp43
F0.7867424551154459
aF0.7867835744867283
aaaa(lp44
(lp45
F-6.922741107970051e-11
aF-1.6355734651469561e-13
aF-1.4001591151951106e-12
aF3.71788077857757e-14
aF-2.0227845718257917e-14
aF9.264835369709244e-17
aF-8.336452781339039e-17
aF-1.369257761726443e-33
aF-1.204424377528367e-11
aF-7.356099158291656e-14
aF1.1347406617313864e-13
aF-5.493088366174593e-17
aF1.0535066577634263e-15
aF-9.08145703900921e-19
aF-9.890762799056786e-19
aF-4.125804860219873e-13
aF-1.185960116206152e-15
aF5.642730696996221e-15
aF4.579806763098901e-18
aF-8.602233354639293e-18
aF-7.456010491357592e-21
aF-1.9179224958005514e-14
aF1.166317874390139e-16
aF1.1357513682261663e-16
aF9.737232779834908e-20
aF2.112531570173467e-19
aF-1.2641677644601392e-16
aF-5.842813466838273e-19
aF1.252023135859815e-18
aF2.7631752581135397e-21
aF-6.617640082485731e-18
aF-4.611623624299926e-21
aF5.520709564760681e-21
aF-1.4101523754985243e-20
aF1.0058146747789695e-22
aF-5.152253930475192e-23
aa(lp46
F2040605.1349097497
aF63328.51516148839
aF-41553.37202904952
aF-609.3321572287347
aF400.20663273952397
aF1.748963339181702
aF-1.1483601892160138
aF2.382010374548464e-17
aF253025.3277721088
aF1803.5339550984697
aF-3613.833347294004
aF-13.885279131455805
aF20.65722753481499
aF0.029990473647000335
aF-0.01968954561817405
aF13078.317022525718
aF-48.6547231360272
aF-124.14745133760744
aF-0.08724780135028468
aF0.35414532857558645
aF0.0004290685173569285
aF372.515555640503
aF-2.193057474894042
aF-2.1274848232042833
aF-0.0030569182018254336
aF0.002018419933234228
aF6.379077325374707
aF-0.018923835199138307
aF-0.018203397792677895
aF-4.390345357928174e-05
aF0.0657347383047031
aF9.231538158354291e-05
aF-6.169519370764244e-05
aF0.0003743098962419126
aF1.3394502574179192e-06
aF8.926534133115021e-07
aI7
aa(lp47
F45.8756219912645
aF0.7868041341723695
aa(lp48
g6
a(lp49
F0.7867835744867283
aF0.7868246938580107
aaaa(lp50
(lp51
F2.4172465617962832e-11
aF3.8346859415126285e-13
aF-1.3574266036407364e-12
aF-1.5995548158448612e-14
aF-1.0050774499413707e-14
aF-1.0420454313021419e-17
aF-8.596519919031988e-17
aF5.204272305764602e-34
aF8.368009472366698e-12
aF8.782288810404613e-14
aF8.075967188874694e-14
aF-4.873945833985229e-16
aF-1.6757408230210818e-15
aF1.6798634108083047e-18
aF-1.3875119550148067e-18
aF-4.683519477621023e-13
aF1.228104953498964e-15
aF-8.225454787899041e-16
aF-2.6398296348096602e-18
aF9.08994703083944e-18
aF-2.631003973607097e-20
aF-2.700561219218455e-14
aF-1.6353351826184575e-16
aF-1.459271800500629e-16
aF-6.163086911548374e-20
aF1.1140105084402235e-19
aF4.13859511681085e-16
aF-9.778227737527594e-19
aF-1.1348022517315807e-18
aF3.1306804144568564e-21
aF-2.862214775535789e-18
aF-3.1142722512108043e-21
aF-4.823565710319414e-21
aF1.1160699658835204e-20
aF-6.736909094854071e-24
aF-1.2299057837518153e-23
aa(lp52
F2039836.5839923357
aF63309.06723404884
aF-41542.07493553865
aF-609.2086507217296
aF400.13971839644137
aF1.7487915252603863
aF-1.1482882839363542
aF1.8296834586767827e-17
aF252956.59784965185
aF1803.2300986920436
aF-3613.229241373143
aF-13.88420779339451
aF20.65593321526537
aF0.029990661716017407
aF-0.01969037041504347
aF13076.133739211691
aF-48.645985026297986
aF-124.13967602736648
aF-0.0872558711650612
aF0.3541601466444964
aF0.0004291089101062501
aF372.4922952975588
aF-2.192980758372499
aF-2.127573819027951
aF-0.003057256926716263
aF0.002018715407974444
aF6.379344936028397
aF-0.018925155827761952
aF-0.018206061143399538
aF-4.39121734347521e-05
aF0.06574435735533746
aF9.233526205748406e-05
aF-6.171067303501596e-05
aF0.000374403770204609
aF1.3398562444945984e-06
aF8.929706837550815e-07
aI7
aa(lp53
F45.87322389724197
aF0.7868452535436519
aa(lp54
g6
a(lp55
F0.7868246938580107
aF0.7868658132292932
aaaa(lp56
(lp57
F1.086477878499087e-10
aF-2.8822536018165506e-12
aF3.30947126152305e-12
aF-4.807143927938123e-14
aF6.134081816201914e-16
aF8.112911133970191e-17
aF1.0361624253224333e-16
aF2.2383438339695432e-34
aF8.432000337408395e-12
aF5.370186220342426e-15
aF-1.1668486841968662e-13
aF2.881165665242202e-16
aF-8.146217297481158e-16
aF4.657273451957828e-19
aF1.211581579477681e-18
aF8.856783598891962e-13
aF1.3680920611152343e-15
aF1.1489542162491674e-15
aF-5.393449030516998e-18
aF-1.955244940874473e-17
aF-1.7900322481800002e-20
aF1.210224431344674e-14
aF-1.2417371768229148e-16
aF-1.4771670932397713e-16
aF3.084730357808168e-20
aF2.1406140010452004e-19
aF-2.9031921668797163e-16
aF1.2329955628489206e-18
aF1.6778390472915596e-18
aF1.8659358095784515e-21
aF6.0724483899606726e-18
aF-1.079768619140405e-21
aF1.6272984666326324e-21
aF2.90631883732566e-21
aF2.7500788376863385e-23
aF1.9648756403585934e-23
aa(lp58
F2039068.360406721
aF63289.62631352621
aF-41530.78145884275
aF-609.0851758784642
aF400.07281831659736
aF1.7486197377015944
aF-1.148216385720771
aF-8.07265932997316e-18
aF252887.88991959253
aF1802.9263116785414
aF-3612.6252642020977
aF-13.883136610346424
aF20.654639022834974
aF0.02999084978504718
aF-0.01969119518283649
aF13073.950920936466
aF-48.63724838356339
aF-124.1319014805892
aF-0.08726394115690139
aF0.35417496418815486
aF0.0004291493040993454
aF372.4690372387657
aF-2.1929040397180186
aF-2.1276628116912133
aF-0.0030575956723166934
aF0.002019010908414625
aF6.3796125372918
aF-0.01892647640409505
aF-0.018208724725414342
aF-4.392089452021881e-05
aF0.06575397724159125
aF9.235514580006818e-05
aF-6.172615537225052e-05
aF0.00037449766240624254
aF1.3402623319864484e-06
aF8.932880494370933e-07
aI7
aa(lp59
F45.87082605381689
aF0.7868863729149345
aa(lp60
g6
a(lp61
F0.7868658132292932
aF0.7869069326005756
aaaa(lp62
(lp63
F1.0517163145838326e-10
aF-2.64883165089765e-12
aF3.091298708574885e-12
aF3.177296332223298e-14
aF-2.645596328045746e-14
aF1.0254891234924412e-16
aF9.620410970901806e-18
aF1.1691494647013732e-34
aF9.434373798642135e-13
aF-9.361414999300243e-14
aF-8.195269723223502e-14
aF-6.729337198508507e-16
aF2.7830627880321474e-16
aF4.459810550334395e-19
aF1.5557548810091242e-18
aF-3.082631650354204e-13
aF-2.5271260183224324e-16
aF-6.559845700782624e-15
aF-2.8063275585808223e-18
aF7.849761856916113e-18
aF6.734200112651661e-21
aF2.2751905983255826e-14
aF1.2622435692220397e-16
aF-7.665323929393439e-17
aF2.6485714780788583e-21
aF1.552567239511618e-19
aF-1.6796424228063553e-16
aF-3.3005167484868895e-19
aF-1.1005516743389593e-18
aF-1.82708646010944e-21
aF6.043760435615096e-19
aF-1.6236493323128164e-21
aF4.341610359444799e-21
aF2.3232774139576793e-20
aF9.396367381441592e-23
aF-1.1599205804438026e-23
aa(lp64
F2038300.463997041
aF63270.192397022445
aF-41519.49159762301
aF-608.9617326891122
aF400.00593249623944
aF1.7484479764997933
aF-1.1481444945681807
aF-4.151525712183486e-17
aF252819.2039737928
aF1802.6225940378292
aF-3612.0214157469973
aF-13.882065582278704
aF20.653344957504313
aF0.02999103785408794
aF-0.019692019921552287
aF13071.76856757773
aF-48.62851320752004
aF-124.12412769715851
aF-0.08727201132576957
aF0.354189781206547
aF0.0004291896993360927
aF372.44578146377296
aF-2.1928273189308625
aF-2.1277518011939804
aF-0.0030579344386268592
aF0.002019306434555133
aF6.379880129164645
aF-0.018927796928123405
aF-0.018211388538725472
aF-4.3929616835776934e-05
aF0.065763597963476
aF9.2375032811663e-05
aF-6.17416407197511e-05
aF0.00037459157284926305
aF1.3406685199124777e-06
aF8.936055103807169e-07
aI7
aa(lp65
F45.86842846095001
aF0.7869274922862168
aa(lp66
g6
a(lp67
F0.7869069326005756
aF0.786948051971858
aaaa(lp68
(lp69
F8.855470733113687e-11
aF-9.480923325369474e-13
aF-1.062313491386661e-12
aF3.529317085139136e-14
aF-2.156013133936763e-14
aF1.8385674452030173e-17
aF-5.2629129922529885e-17
aF2.9649056723641624e-33
aF-5.896653831059686e-12
aF2.90881322587637e-15
aF1.8541130532984256e-13
aF-1.534986564947642e-16
aF-1.971098073117171e-17
aF-5.660439481710552e-20
aF1.0259443917838493e-18
aF-5.864639836477901e-13
aF1.528934569449481e-15
aF6.255492272624315e-15
aF1.1724043355189975e-18
aF-1.9329938146753755e-17
aF-1.955524845664329e-21
aF1.9958613557113704e-14
aF-1.0443532693490301e-16
aF1.333633874651318e-16
aF4.010322787384074e-20
aF-1.0945597669891627e-19
aF1.5018396253218763e-16
aF-1.4706030775993126e-18
aF1.3655604193133947e-18
aF-3.4659977270675574e-22
aF4.022061590151009e-18
aF3.0983003544727444e-21
aF4.8601253628619644e-21
aF1.6671039597353353e-20
aF5.458485343717749e-23
aF4.4946577723169386e-23
aa(lp70
F2037532.8946075016
aF63250.76548163928
aF-41508.20535054103
aF-608.838321143831
aF399.93906093161513
aF1.7482762416493474
aF-1.1480726104774996
aF2.807295856084902e-17
aF252750.5400041169
aF1802.3189457496474
aF-3611.4176959739707
aF-13.880994709157285
aF20.652051019253882
aF0.02999122592313452
aF-0.019692844631190063
aF13069.586679013159
aF-48.61977949786996
aF-124.1163546769572
aF-0.08728008167159897
aF0.35420459769965845
aF0.0004292300958163413
aF372.4225279722294
aF-2.192750596011415
aF-2.1278407875361647
aF-0.003058273225646545
aF0.0020196019863963346
aF6.380147711646662
aF-0.01892911739983446
aF-0.01821405258333616
aF-4.393834038152017e-05
aF0.0657732195210033
aF9.239492309262558e-05
aF-6.175712907792304e-05
aF0.00037468550153612224
aF1.341074808291673e-06
aF8.939230666091419e-07
aI7
aa(lp71
F45.866031118602024
aF0.7869686116574992
aa(lp72
g6
a(lp73
F0.786948051971858
aF0.7869891713431404
aaaa(lp74
(lp75
F1.0767225114180201e-10
aF-3.4936280424545073e-12
aF-2.9910062517697114e-12
aF2.4024771128985776e-14
aF5.986717383028784e-15
aF7.538314615896396e-17
aF4.7973371885266627e-17
aF-2.1663490642050107e-33
aF3.177171804707569e-12
aF1.0334483184703702e-13
aF-7.445598075056162e-14
aF-7.515805726020684e-16
aF1.680035335058557e-15
aF6.181011970489005e-20
aF3.5318770210310743e-19
aF3.1795813937283786e-13
aF-3.200893910115872e-15
aF-5.985899047548e-15
aF-6.900843931013116e-18
aF2.218716601923871e-17
aF9.072632303390919e-21
aF-1.4872658145169953e-14
aF2.0414127392895412e-16
aF-6.901230549762464e-17
aF8.093002786182965e-20
aF-9.811340591487569e-20
aF7.981615455920319e-19
aF-1.4837859249762979e-18
aF4.1488126795315245e-19
aF2.8540890842597226e-21
aF3.509854683523547e-18
aF-5.452333323342113e-21
aF1.1787824658435406e-21
aF-9.500596057173296e-21
aF1.0435939421379813e-22
aF2.5205594896095048e-23
aa(lp76
F2036765.6520823927
aF63231.34556448356
aF-41496.922716259
aF-608.7149412328342
aF399.8722036189734
aF1.7481045331449196
aF-1.1480007334476443
aF2.7814356425764725e-17
aF252681.89800243298
aF1802.0153667941208
aF-3610.8141048491616
aF-13.87992399095168
aF20.65075720806418
aF0.029991413992191924
aF-0.019693669311749002
aF13067.405255120504
aF-48.61104725429926
aF-124.10858241986816
aF-0.08728815219441446
aF0.3542194136674745
aF0.00042927049354002736
aF372.3992767637847
aF-2.1926738709596965
aF-2.127929770717678
aF-0.00305861203337658
aF0.002019897563938592
aF6.380415284737591
aF-0.018930437819210923
aF-0.01821671685924959
aF-4.3947065157546586e-05
aF0.06578284191418482
aF9.241481664334525e-05
aF-6.17726204471715e-05
aF0.00037477944846927127
aF1.3414811971431114e-06
aF8.942407181455582e-07
aI7
aa(lp77
F45.863634026733685
aF0.7870097310287816
aa(lp78
g6
a(lp79
F0.7869891713431404
aF0.7870302907144229
aaaa(lp80
(lp81
F-1.0706961836701581e-10
aF3.8197766951472875e-13
aF3.379883863844962e-13
aF-3.547440299446949e-15
aF-2.474866250241405e-14
aF9.89590638188912e-17
aF-7.74597730724593e-17
aF1.8854330595869177e-33
aF-1.2182252943954588e-12
aF-6.940906790486032e-14
aF2.2309258263210176e-13
aF7.885323269427558e-16
aF2.4063875163444173e-16
aF-6.2491272081428735e-19
aF7.708290141330046e-19
aF-1.0711844445449917e-14
aF-3.2123945181474447e-15
aF-5.831818001692575e-15
aF6.698696059928821e-18
aF-1.0141039956272883e-17
aF-2.3068349894122852e-21
aF1.4353228850512555e-14
aF6.798753317678325e-17
aF7.206050646533185e-17
aF-7.55083819697278e-20
aF-1.3641179512308069e-19
aF4.0098673967205177e-16
aF9.660088263846175e-19
aF1.511555854139957e-18
aF-3.3285473087491504e-22
aF3.4694394510226175e-18
aF6.310912849901875e-21
aF8.771931720860908e-22
aF1.281999698297202e-20
aF-8.80286876319998e-23
aF6.5190109682653635e-24
aa(lp82
F2035998.736266086
aF63211.93264266117
aF-41485.64369343968
aF-608.591592946307
aF399.8053605545644
aF1.7479328509809922
aF-1.1479288634775309
aF-4.1095266923275126e-17
aF252613.27796061244
aF1801.7118571511498
aF-3610.2106423387236
aF-13.878853427629217
aF20.64946352391572
aF0.0299916020612589
aF-0.0196944939632283
aF13065.22429577754
aF-48.602316476503965
aF-124.1008109257743
aF-0.08729622289418461
aF0.35423422910998076
aF0.0004293108925070336
aF372.37602783808813
aF-2.19259714377595
aF-2.1280187507384336
aF-0.0030589508618171506
aF0.0020201931671822706
aF6.380682848437166
aF-0.018931758186238413
aF-0.018219381366468976
aF-4.395579116395155e-05
aF0.06579246514303216
aF9.243471346419146e-05
aF-6.178811482790176e-05
aF0.00037487341365116173
aF1.341887686485818e-06
aF8.945584650131622e-07
aI7
aa(lp83
F45.861237185305725
aF0.7870508504000641
aa(lp84
g6
a(lp85
F0.7870302907144229
aF0.7870714100857052
aaaa(lp86
(lp87
F-7.277504692619393e-11
aF1.4114403357722365e-12
aF1.2093164789022893e-12
aF-4.977621027554659e-14
aF2.0857424663493725e-14
aF5.787234142136495e-17
aF-8.646356417936154e-17
aF1.3767824947494186e-33
aF-3.4036729873443603e-12
aF-1.0776461104092211e-13
aF-1.533933812678161e-13
aF7.133978426903608e-16
aF-7.487342858008276e-16
aF6.355172050816081e-19
aF-1.5524358612490814e-18
aF-2.8117584711497365e-13
aF-3.333643377275099e-15
aF-5.115821449064768e-15
aF-4.8467517083786536e-18
aF4.023800908158499e-18
aF-5.4184995544844725e-21
aF-6.258234686996926e-15
aF1.0110070746565866e-17
aF8.779083344390458e-17
aF-1.3207402175964583e-19
aF-1.82163729022013e-19
aF3.828077706096244e-17
aF8.937905506506967e-19
aF1.6001691357045706e-18
aF-1.5106856766441662e-21
aF-8.437525391444442e-19
aF6.077511585976888e-21
aF-7.8596210966815365e-22
aF-2.3818583398592724e-20
aF-4.572065423903219e-23
aF-1.701273863522749e-23
aa(lp88
F2035232.1470030395
aF63192.52671327772
aF-41474.36828074642
aF-608.4682762744133
aF399.7385317346397
aF1.7477611951519059
aF-1.147857000566077
aF-4.084366369007884e-17
aF252544.67987053026
aF1801.4084168004613
aF-3609.607308408821
aF-13.877783019155512
aF20.648169966789013
aF0.029991790130329276
aF-0.019695318585627147
aF13063.043800862073
aF-48.59358716418799
aF-124.09304019455851
aF-0.08730429377083353
aF0.35424904402716256
aF0.0004293512927172004
aF372.3527811947888
aF-2.192520414460598
aF-2.128107727598342
aF-0.0030592897109679353
aF0.0020204887961277345
aF6.380950402745114
aF-0.01893307850090482
aF-0.018222046104997513
aF-4.396451840082824e-05
aF0.06580208920755687
aF9.245461355551806e-05
aF-6.180361222051912e-05
aF0.0003749673970842451
aF1.342294276338774e-06
aF8.94876307235154e-07
aI7
aa(lp89
F45.858840594278895
aF0.7870919697713465
aa(lp90
g6
a(lp91
F0.7870714100857052
aF0.7871125294569877
aaaa(lp92
(lp93
F5.993272985339049e-11
aF3.860721717352779e-13
aF2.294489404164766e-13
aF-4.4992997857621085e-14
aF8.532820694586981e-15
aF7.305964090595403e-17
aF9.501892244670147e-17
aF-5.747451601909598e-35
aF5.862811507028097e-12
aF-5.191371312824949e-14
aF-1.7448537115533043e-14
aF6.14231792431082e-16
aF-1.77479761978906e-15
aF1.4833197153386124e-18
aF1.5593961457341228e-18
aF4.650433237195423e-13
aF4.822043237634915e-16
aF5.538057950758715e-15
aF4.2763427098786396e-18
aF2.0515707528028898e-17
aF2.1483200512408996e-20
aF9.919833583565066e-15
aF-1.2128140014335128e-16
aF-6.765706188126641e-17
aF-1.2486190312157628e-19
aF-7.203987598496042e-20
aF3.742892316754235e-16
aF-6.6611085409008745e-19
aF1.520771344841395e-18
aF2.5936921281261552e-21
aF-5.574016806529257e-19
aF-2.0838300756292157e-21
aF-2.696912990257524e-22
aF-1.4277344961025144e-20
aF6.938988206249837e-23
aF-4.080759669710054e-24
aa(lp94
F2034465.8841377925
aF63173.12777344168
aF-41463.096476843166
aF-608.3449912073427
aF399.67171715545226
aF1.7475895656521272
aF-1.1477851447122005
aF4.799160843866409e-17
aF252476.10372406497
aF1801.1050457219467
aF-3609.0041030256325
aF-13.876712765497686
aF20.64687653666458
aF0.029991978199401144
aF-0.019696143178944744
aF13060.86377025196
aF-48.5848593170486
aF-124.08527022610377
aF-0.08731236482432382
aF0.3542638584190054
aF0.0004293916941704046
aF372.3295368335361
aF-2.1924436830139085
aF-2.128196701297315
aF-0.003059628580829051
aF0.0020207844507753466
aF6.381217947661165
aF-0.01893439876319606
aF-0.01822471107483839
aF-4.39732468682717e-05
aF0.06581171410777048
aF9.247451691769239e-05
aF-6.181911262542885e-05
aF0.00037506139877097283
aF1.3427009667210018e-06
aF8.951942448347367e-07
aI7
aa(lp95
F45.85644425361396
aF0.7871330891426289
aa(lp96
g6
a(lp97
F0.7871125294569877
aF0.7871536488282701
aaaa(lp98
(lp99
F5.732756555820022e-11
aF-1.6819937006999664e-12
aF-2.1060425001426854e-12
aF1.910247768354786e-14
aF2.55780996098941e-15
aF1.3070307048870442e-17
aF-5.251042629277253e-17
aF7.573336277102819e-34
aF1.1532927410412636e-11
aF-6.250406827833054e-14
aF1.0791223285629701e-13
aF-7.7114040331903875e-16
aF-1.1933534300283715e-15
aF-1.3789193219314811e-18
aF-3.74118303174797e-19
aF-7.06208806760826e-13
aF-3.3886591416880096e-15
aF3.4599791428350486e-15
aF2.6970796398990593e-18
aF2.359667604779753e-17
aF-9.852691524663954e-21
aF6.04093992161382e-17
aF-9.005491777317756e-17
aF-5.15304742390847e-17
aF4.7811208171493415e-20
aF1.8023743518271498e-19
aF-9.03653774381955e-17
aF-6.337032497078878e-19
aF1.2565377828276917e-18
aF-2.0065172984895115e-22
aF-1.5509170626743315e-18
aF-7.239985620034013e-22
aF4.724069461274078e-21
aF-1.2075930494156565e-23
aF-3.091484055217337e-23
aF-9.110747878880774e-24
aa(lp100
F2033699.9475149615
aF63153.73582026575
aF-41451.82828039432
aF-608.2217377353303
aF399.60491681325544
aF1.747417962476368
aF-1.1477132959148175
aF1.1488053662067284e-17
aF252407.54951309835
aF1800.8017438958125
aF-3608.4010261553426
aF-13.8756426666258
aF20.64558323352293
aF0.02999216626848099
aF-0.019696967743180263
aF13058.68420382511
aF-48.57613293476985
aF-124.07750102029308
aF-0.0873204360546937
aF0.3542786722854946
aF0.0004294320968665952
aF372.30629475398024
aF-2.1923669494358475
aF-2.1282856718352656
aF-0.00305996747140148
aF0.0020210801311254696
aF6.381485483185064
aF-0.01893571897309416
aF-0.018227376275994807
aF-4.398197656638066e-05
aF0.06582133984368467
aF9.249442355110857e-05
aF-6.183461604303625e-05
aF0.00037515541871379693
aF1.3431077576516023e-06
aF8.95512277835118e-07
aI7
aa(lp101
F45.854048163271685
aF0.7871742085139113
aa(lp102
g6
a(lp103
F0.7871536488282701
aF0.7871947681995525
aaaa(lp104
(lp105
F4.114476920070104e-11
aF3.2755499338227057e-12
aF3.0462842530109288e-12
aF3.0381383573981445e-14
aF2.260944814445233e-14
aF-4.6125041582499297e-17
aF9.818888407794876e-17
aF4.4555434744366726e-33
aF-2.4330408378532776e-12
aF-9.240877317028293e-14
aF1.2018619795510337e-14
aF-2.28227461194583e-16
aF-1.9785442116095818e-16
aF-8.829592903437984e-20
aF2.9653184013657782e-19
aF5.244136761231397e-14
aF-5.012144800837056e-16
aF6.866723805978273e-15
aF-1.9522553575070464e-18
aF-7.478762801973102e-18
aF-2.6639733709952155e-20
aF4.267590137470024e-15
aF-8.753045375755484e-17
aF1.3781508366454868e-16
aF1.7014920758638886e-19
aF7.355909657615629e-23
aF-5.4270052442731467e-17
aF-5.517606302069844e-20
aF-9.665509327820522e-19
aF-2.856428386959247e-21
aF-1.3939542778047077e-18
aF1.906394372399321e-21
aF5.434712128999162e-21
aF-2.4754076884364895e-20
aF-2.9323960187285677e-23
aF2.8645874026753384e-23
aa(lp106
F2032934.3369792486
aF63134.35085085853
aF-41440.56369006494
aF-608.0985158485364
aF399.53813070430436
aF1.747246385618892
aF-1.1476414541728468
aF6.458419051175489e-17
aF252339.01722951542
aF1800.498511301704
aF-3607.798077764147
aF-13.87457272250453
aF20.644290057344598
aF0.029992354337559868
aF-0.019697792278332914
aF13056.50510145943
aF-48.56740801706026
aF-124.06973257700939
aF-0.08732850746184236
aF0.3542934856266158
aF0.0004294725008055889
aF372.2830549557701
aF-2.1922902137269364
aF-2.1283746392121055
aF-0.0030603063826846163
aF0.0020213758371784695
aF6.381753009316533
aF-0.01893703913058831
aF-0.018230041708469962
aF-4.399070749524712e-05
aF0.06583096641531096
aF9.251433345611172e-05
aF-6.185012247374675e-05
aF0.0003752494569151696
aF1.3435146491495407e-06
aF8.95830406259512e-07
aI7
aa(lp107
F45.85165232321284
aF0.7872153278851937
aa(lp108
g6
a(lp109
F0.7871947681995525
aF0.787235887570835
aaaa(lp110
(lp111
F-9.76958241683168e-11
aF-3.3876925586710366e-12
aF1.2866736276890804e-12
aF-1.1725071862781312e-14
aF1.7252371242373113e-14
aF6.615803301462391e-17
aF-9.4336804430393e-17
aF-1.892128750411238e-33
aF3.901762407259948e-12
aF2.4931737091795815e-14
aF-1.8200945688309106e-13
aF-2.0857894686552407e-17
aF9.090942020596032e-16
aF1.457632322488423e-18
aF-1.3334750693094115e-18
aF3.6059788810226e-13
aF-8.739903620315783e-16
aF-2.1679583106659183e-15
aF-2.8316864268429723e-18
aF-1.923211473533779e-17
aF1.8825549533034798e-20
aF-8.998474539327204e-15
aF-2.0743403971444696e-16
aF-9.149932728759619e-17
aF2.661035848892508e-20
aF-1.1318851597795153e-20
aF-1.1127061214296217e-16
aF1.6497789739351957e-18
aF-1.0295848944564181e-18
aF-1.0735902814702544e-21
aF-2.8380596574289357e-18
aF-4.235248632241608e-21
aF-5.167100738287872e-21
aF-1.856056384830637e-20
aF-9.524660697479436e-23
aF3.274678284186475e-23
aa(lp112
F2032169.0523754319
aF63114.972862334675
aF-41429.302704520516
aF-607.9753255371927
aF399.47135882485475
aF1.747074835074355
aF-1.147569619485205
aF4.894184863991799e-17
aF252270.50686520452
aF1800.1953479197666
aF-3607.1952578182504
aF-13.873502933103246
aF20.6429970081101
aF0.029992542406642262
aF-0.019698616784401882
aF13054.326463032892
aF-48.558684563607166
aF-124.0619648961357
aF-0.08733657904579005
aF0.35430829844235434
aF0.0004295129059873176
aF372.25981743855584
aF-2.1922134758872125
aF-2.128463603427747
aF-0.0030606453146792365
aF0.0020216715689347093
aF6.382020526055315
aF-0.018938359235661464
aF-0.018232707372267065
aF-4.399943965496896e-05
aF0.06584059382266101
aF9.253424663308974e-05
aF-6.186563191796574e-05
aF0.0003753435133775435
aF1.3439216412339062e-06
aF8.961486301311362e-07
aI7
aa(lp113
F45.8492567333982
aF0.7872564472564763
aa(lp114
g6
a(lp115
F0.787235887570835
aF0.7872770069421174
aaaa(lp116
(lp117
F-6.171764565401923e-11
aF-2.046703798836892e-12
aF-8.005470622579514e-13
aF3.9096270489138406e-14
aF2.2570289127360082e-14
aF-1.021696800477928e-16
aF1.0274871517865656e-16
aF2.8187829074701947e-33
aF-1.0680839454071946e-11
aF1.0780193749304353e-13
aF-7.322851314498934e-14
aF-1.5189355886630197e-16
aF4.300959796308795e-16
aF-1.170590487301695e-18
aF1.8026986775005969e-19
aF8.077363153067981e-13
aF2.78734501767198e-15
aF-2.743294257669471e-15
aF-3.100192020202776e-18
aF1.986863462475212e-17
aF-1.2661642813779401e-20
aF-1.3744411322956951e-14
aF2.06827115320619e-16
aF8.07438954447837e-17
aF1.7224020014218324e-19
aF2.025327748424822e-20
aF-3.892677629435069e-16
aF4.38507582789951e-19
aF-9.226459822698422e-19
aF-3.219755854792831e-22
aF-6.849847166492447e-18
aF-2.0040356405829702e-21
aF3.2565195069529913e-21
aF2.25158246402931e-20
aF-6.674441074035169e-23
aF-2.9435545435344463e-23
aa(lp118
F2031404.0935483845
aF63095.601851807565
aF-41418.04532242733
aF-607.8521667914952
aF399.40460117116464
aF1.7469033108371805
aF-1.1474977918508118
aF3.222288119093108e-17
aF252202.0184120584
aF1799.8922537298586
aF-3606.5925662838777
aF-13.872433298388506
aF20.641704085799987
aF0.02999273047572453
aF-0.01969944126138636
aF13052.148288423521
aF-48.54996257411097
aF-124.05419797755516
aF-0.08734465080648363
aF0.35432311073269557
aF0.0004295533124116431
aF372.2365822019872
aF-2.192136735917008
aF-2.1285525644821015
aF-0.0030609842673852768
aF0.00202196732639455
aF6.382288033401136
aF-0.018939679288300332
aF-0.01823537326738928
aF-4.4008173045640394e-05
aF0.06585022206574628
aF9.255416308240437e-05
aF-6.188114437609853e-05
aF0.0003754375881033699
aF1.3443287339237116e-06
aF8.964669494732087e-07
aI7
aa(lp119
F45.84686139378858
aF0.7872975666277586
aa(lp120
g6
a(lp121
F0.7872770069421174
aF0.7873181263133998
aaaa(lp122
(lp123
F-7.043706656134224e-11
aF-1.2098053159000385e-12
aF-6.36787955105997e-13
aF4.527461796240806e-14
aF2.5530755288890944e-14
aF-6.101120497345987e-17
aF-1.703600377893407e-17
aF1.2500288107218771e-33
aF8.63949950599816e-12
aF1.0267975500286447e-13
aF1.248402331810193e-13
aF-5.818924583543585e-16
aF7.277258892182034e-16
aF-4.1309715994008388e-19
aF-1.2806824146198485e-18
aF-2.6926401816425435e-13
aF-2.6345867394752e-15
aF-7.38136427200804e-16
aF-5.322620766827517e-18
aF-2.5746336778141895e-17
aF-8.149353217733087e-21
aF1.2941223416429338e-14
aF5.640693750968355e-17
aF-1.4282475754398218e-16
aF-1.6435243327243463e-20
aF-8.645169095827641e-20
aF-5.186319323014776e-18
aF-5.958717932918734e-19
aF1.4152136966332358e-18
aF1.469394961115007e-21
aF-3.59413625115985e-18
aF-1.2122790841358596e-21
aF4.220029954336282e-21
aF-2.3496769428066878e-20
aF-1.021346561477706e-22
aF-5.6577720389936386e-24
aa(lp124
F2030639.4603430491
aF63076.2378163922
aF-41406.79154245203
aF-607.729039601649
aF399.3378577394922
aF1.7467318129018352
aF-1.1474259712685846
aF3.8825895365167787e-17
aF252133.55186197202
aF1799.5892287118972
aF-3605.9900031272537
aF-13.8713638183274
aF20.640411290394784
aF0.02999291854480458
aF-0.019700265709285535
aF13049.97057750935
aF-48.54124204826954
aF-124.04643182115078
aF-0.08735272274388409
aF0.35433792249762514
aF0.0004295937200784409
aF372.21334924571374
aF-2.1920599938165957
aF-2.128641522375081
aF-0.003061323240802837
aF0.002022263109558356
aF6.38255553135373
aF-0.01894099928849093
aF-0.018238039393839816
aF-4.401690766735644e-05
aF0.06585985114457837
aF9.257408280442267e-05
aF-6.189665984855063e-05
aF0.000375531681095102
aF1.3447359272379925e-06
aF8.967853643089567e-07
aI7
aa(lp125
F45.84446630434476
aF0.787338685999041
aa(lp126
g6
a(lp127
F0.7873181263133998
aF0.7873592456846822
aaaa(lp128
(lp129
F-5.3115141502290654e-11
aF-1.1648463947227173e-12
aF-6.380235587548661e-13
aF3.3635445031236275e-14
aF2.778556956737582e-14
aF-1.6821075605551268e-17
aF-1.3443789570334436e-18
aF5.976047744053563e-34
aF-3.95299236563127e-12
aF4.83831404201772e-14
aF1.6887653668277133e-13
aF4.0892184536696287e-16
aF-2.6428754510742683e-16
aF1.0512769058815743e-18
aF-1.2054538537678506e-18
aF-7.812518208521591e-14
aF-2.8993497585933207e-15
aF-2.748214939538965e-15
aF-1.5910726208332573e-18
aF7.109230055464855e-18
aF1.0304274312001284e-20
aF-1.6073570787197496e-14
aF-1.9593824100232445e-16
aF1.343981264535855e-16
aF1.185260899661645e-19
aF-4.793394060324513e-20
aF-2.6531242368174487e-17
aF-6.148904531444838e-20
aF-8.233363204147332e-19
aF-1.3445963568252435e-21
aF-9.093188502251943e-19
aF-1.3490979872006311e-21
aF5.984358128323513e-21
aF1.0612899638147721e-20
aF-8.07640993544311e-23
aF-2.5991854300203848e-23
aa(lp130
F2029875.1526044533
aF63056.880753206846
aF-41395.54136326188
aF-607.6059439578901
aF399.2711285260971
aF1.7465603412629394
aF-1.1473541577374422
aF-5.058785362310599e-17
aF252065.10720684443
aF1799.286272845999
aF-3605.387568314618
aF-13.870294492888844
aF20.639118621875035
aF0.029993106613885493
aF-0.019701090128098602
aF13047.79333016847
aF-48.53252298577274
aF-124.03866642680568
aF-0.087360794857999
aF0.3543527337371283
aF0.00042963412898763077
aF372.1901185693859
aF-2.1919832495860647
aF-2.1287304771065987
aF-0.0030616622349325497
aF0.00202255891842649
aF6.382823019912836
aF-0.018942319236216858
aF-0.018240705751621854
aF-4.4025643520214316e-05
aF0.06586948105916889
aF9.259400579952804e-05
aF-6.191217833572745e-05
aF0.0003756257923551923
aF1.3451432211958307e-06
aF8.971038746616091e-07
aI7
aa(lp131
F45.842071465027566
aF0.7873798053703234
aa(lp132
g6
a(lp133
F0.7873592456846822
aF0.7874003650559646
aaaa(lp134
(lp135
F-2.3582256232331887e-11
aF-2.308015223104771e-12
aF-2.32932447744475e-12
aF2.847942636389168e-16
aF-2.0476468537784136e-15
aF5.330742124383815e-17
aF-8.281428972104844e-17
aF-1.4989327618465196e-33
aF-2.1825369589540245e-12
aF9.631822329938863e-14
aF-2.1898297182528002e-13
aF7.574586038548167e-16
aF-1.4203841053106211e-15
aF-1.6377192141322031e-18
aF-1.3755042984522645e-18
aF-1.9150805206396486e-13
aF4.096468456036187e-16
aF3.879200925100874e-15
aF-4.934225962072131e-19
aF-2.035249529485564e-17
aF-6.641142175856262e-21
aF7.0414940615685434e-15
aF-1.4951866130023814e-16
aF-1.5099422944452514e-16
aF2.1147763451093382e-19
aF-4.69388812875827e-20
aF-1.6321921544851652e-16
aF1.3608781748653637e-18
aF4.081408092702114e-19
aF-3.2899984609133875e-21
aF6.100908976834159e-18
aF-3.0182920370481147e-21
aF2.3840964325728175e-21
aF-3.8059149212577034e-21
aF-9.660999655117151e-23
aF-3.412489537813952e-23
aa(lp136
F2029111.1701777077
aF63037.53065936728
aF-41384.29478352472
aF-607.4828798504027
aF399.2044135272402
aF1.7463888959147988
aF-1.1472823512563035
aF-5.409497172999131e-17
aF251996.68443857768
aF1798.9833861118882
aF-3604.7852618122192
aF-13.869225322037968
aF20.637826080221284
aF0.02999329468295952
aF-0.01970191451782476
aF13045.616546278989
aF-48.523805386327574
aF-124.03090179440294
aF-0.08736886714873825
aF0.3543675444511907
aF0.0004296745391390396
aF372.166890172653
aF-2.191906503225894
aF-2.128819428676565
aF-0.0030620012497739294
aF0.0020228547529993163
aF6.383090499078179
aF-0.018943639131466756
aF-0.018243372340738598
aF-4.4034380604306534e-05
aF0.06587911180952932
aF9.261393206806944e-05
aF-6.192769983803456e-05
aF0.00037571992188609383
aF1.345550615816214e-06
aF8.974224805544011e-07
aI7
aa(lp137
F45.83967687579779
aF0.7874209247416057
aa(lp138
g6
a(lp139
F0.7874003650559646
aF0.7874414844272469
aaaa(lp140
(lp141
F1.0098507779651467e-10
aF6.176700389720002e-13
aF1.4129019884494322e-12
aF-3.318158510575303e-14
aF-1.1493441056209144e-14
aF-1.6245855096228596e-17
aF-1.0444850479263264e-16
aF-2.9427198650987884e-33
aF7.602063861188523e-12
aF-4.504647448915079e-14
aF-1.3835517698319513e-14
aF4.694613969247311e-16
aF1.6253365385738464e-16
aF-1.6982479705071597e-18
aF6.797046508747312e-19
aF5.238517544346511e-13
aF2.768279751159235e-15
aF6.241944481513081e-15
aF-6.6646275831566595e-18
aF2.2721132539392378e-17
aF-2.0233278307510948e-20
aF1.4362717499906777e-14
aF1.2498400176846498e-16
aF4.127932619405678e-17
aF-7.245892653662747e-20
aF-9.943261885002257e-20
aF1.8294487225503463e-16
aF7.256724116025482e-19
aF-4.660835167458485e-19
aF-3.124999620152089e-21
aF4.048386020959135e-18
aF5.674892937593418e-21
aF-1.1021118303497529e-21
aF5.746868525195532e-21
aF-9.656748249927256e-23
aF2.5824299192335487e-23
aa(lp142
F2028347.5129080033
aF63018.18753199391
aF-41373.051801908936
aF-607.3598472694221
aF399.13771273918354
aF1.7462174768519922
aF-1.1472105518240876
aF-4.8474526109360775e-17
aF251928.2835490775
aF1798.680568489639
aF-3604.1830835863193
aF-13.868156305743168
aF20.636533665414078
aF0.029993482752028202
aF-0.0197027388784632
aF13043.440225719072
aF-48.51508924962647
aF-124.02313792382571
aF-0.08737693961609559
aF0.3543823546397976
aF0.000429714950532574
aF372.14366405516535
aF-2.1918297547362275
aF-2.128908377084893
aF-0.0030623402853274494
aF0.002023150613277197
aF6.383357968849495
aF-0.018944958974224935
aF-0.018246039161193228
aF-4.404311891972965e-05
aF0.06588874339567127
aF9.263386161042544e-05
aF-6.194322435587745e-05
aF0.0003758140696902595
aF1.3459581111182156e-06
aF8.977411820105701e-07
aI7
aa(lp143
F45.83728253661627
aF0.7874620441128881
aa(lp144
g6
a(lp145
F0.7874414844272469
aF0.7874826037985294
aaaa(lp146
(lp147
F7.963821689028824e-11
aF1.5813882784434077e-12
aF1.2203551736973086e-12
aF1.0381134100897777e-14
aF-9.816778407355876e-15
aF2.3565336867179074e-17
aF-4.063945723963257e-17
aF4.902567971614979e-33
aF-8.338750213295442e-12
aF-1.0946793209938624e-13
aF1.3997432471752285e-13
aF-1.9485363161711327e-16
aF1.3398154943418886e-15
aF1.4775259704819002e-18
aF8.599151146246147e-19
aF2.2031130312477442e-13
aF3.4445479204121833e-15
aF-3.998635643420619e-15
aF1.0793462156185735e-18
aF-1.8086283581880166e-17
aF5.2406627388854315e-21
aF-2.5971704065758354e-14
aF-2.192089381438503e-16
aF1.0772888184115616e-16
aF1.4264472934296314e-19
aF-6.601649503937286e-20
aF7.051260160927326e-17
aF-1.720491676910495e-18
aF8.85700455730254e-19
aF-1.4047111891493144e-22
aF1.2503313281689628e-18
aF7.388717743235876e-22
aF-6.459870355839372e-21
aF-1.15897296368731e-20
aF-5.514813248771559e-23
aF4.208831391729798e-25
aa(lp148
F2027584.180640609
aF62998.85136820782
aF-41361.81241708341
aF-607.2368462051778
aF399.0710261581899
aF1.7460460840690495
aF-1.1471387594397133
aF-6.401129869755864e-17
aF251859.90453025262
aF1798.377819959269
aF-3603.5810336031855
aF-13.86708744397226
aF20.635241377433964
aF0.02999367082109142
aF-0.01970356321001311
aF13041.264368366912
aF-48.50637457536452
aF-124.01537481495714
aF-0.08738501226004979
aF0.3543971643029348
aF0.0004297553631681264
aF372.1204402165731
aF-2.1917530041172673
aF-2.1289973223314953
aF-0.0030626793415934137
aF0.0020234464992604957
aF6.383625429226521
aF-0.018946278764476493
aF-0.01824870621298895
aF-4.405185846657955e-05
aF0.06589837581760634
aF9.265379442696945e-05
aF-6.195875188966173e-05
aF0.00037590823577014304
aF1.346365707120898e-06
aF8.980599790533603e-07
aI7
aa(lp149
F45.834888447443824
aF0.7875031634841707
aa(lp150
g6
a(lp151
F0.7874826037985294
aF0.7875237231698119
aaaa(lp152
(lp153
F-6.898013649521134e-11
aF-6.575165021675733e-13
aF1.6924321201685979e-12
aF4.1149339466213784e-14
aF-2.18701849191323e-14
aF8.008346988584055e-17
aF-5.259087330832395e-17
aF1.5406721249963554e-33
aF-5.632814973607322e-12
aF2.897846197265614e-14
aF1.2677126690385043e-13
aF-5.930453539663582e-16
aF-1.408799061232032e-16
aF-8.858922715712475e-19
aF1.134951537565368e-18
aF-5.348324258328301e-13
aF-1.6068921419285002e-15
aF-5.935397496315817e-16
aF-1.3738334695907442e-18
aF3.9545943812561985e-18
aF-7.032203501001751e-21
aF-8.535878995180907e-15
aF-1.7919251955548445e-16
aF-1.2827263781521122e-16
aF-1.144904947997385e-19
aF-5.759187952007169e-20
aF1.2307020515749582e-16
aF4.2693340350232075e-19
aF-9.300339693081732e-19
aF-1.2834102156191473e-22
aF3.57427507842551e-18
aF-9.741897229673915e-22
aF-1.8368182398896584e-21
aF-2.3294727161212607e-20
aF-2.3452468410049255e-23
aF4.2763137078653615e-23
aa(lp154
F2026821.1732208878
aF62979.52216513063
aF-41350.57662771779
aF-607.1138766478894
aF399.00435378052447
aF1.7458747175604157
aF-1.147066974102101
aF-4.5651695274418507e-17
aF251791.5473740162
aF1798.0751405006945
aF-3602.9791118291055
aF-13.866018736692007
aF20.633949216261517
aF0.02999385889014599
aF-0.019704387512473685
aF13039.088974100763
aF-48.49766136324186
aF-124.0076124676805
aF-0.08739308508055174
aF0.35441197344058734
aF0.0004297957770455624
aF372.0972186565265
aF-2.1916762513693295
aF-2.1290862644162822
aF-0.003063018418571803
aF0.002023742410949573
aF6.383892880208985
aF-0.01894759850220794
aF-0.018251373496128917
aF-4.406059924495061e-05
aF0.06590800907534594
aF9.267373051806477e-05
aF-6.197428243979284e-05
aF0.0003760024201281967
aF1.3467734038432926e-06
aF8.983788717060153e-07
aI7
aa(lp155
F45.83249460824131
aF0.7875442828554531
aa(lp156
g6
a(lp157
F0.7875237231698119
aF0.7875648425410943
aaaa(lp158
(lp159
F7.117695684226576e-11
aF7.003905990138949e-13
aF-2.6394027205534722e-12
aF-3.0522247178723555e-14
aF-8.960910576295854e-15
aF7.915676203843917e-17
aF3.486081581768194e-17
aF-7.812843587469494e-35
aF2.837187477275779e-12
aF1.862863064171939e-14
aF1.3814259917665238e-13
aF-4.982862273893985e-16
aF1.088488539266828e-15
aF6.259265779863082e-19
aF-1.1551046968151968e-18
aF1.4864600496245472e-13
aF-1.0204059975609425e-15
aF1.759228359637641e-15
aF3.864897362172143e-18
aF1.2998654441071708e-17
aF8.41407550534849e-21
aF-2.1064812292842677e-15
aF1.043622004659127e-16
aF2.046905159729604e-16
aF-1.56263149087685e-19
aF1.9716257410749111e-19
aF1.887624057537098e-16
aF3.3687372815035865e-19
aF-3.4316074847008047e-19
aF8.847535951534275e-22
aF-2.962834004105671e-20
aF8.097358229284271e-22
aF-5.438296638332452e-21
aF-1.2561179495680741e-20
aF2.3977129504578654e-23
aF-2.5489721226573555e-23
aa(lp160
F2026058.490494271
aF62960.19991988554
aF-41339.344432482074
aF-606.9909385877855
aF398.9376956024524
aF1.7457033773205797
aF-1.1469951958101698
aF1.8608034600660686e-17
aF251723.21207228373
aF1797.7725300938919
aF-3602.3773182303685
aF-13.864950183869711
aF20.632657181877285
aF0.02999404695919026
aF-0.019705211785844116
aF13036.914042798886
aF-48.488949612956155
aF-123.99985088187896
aF-0.0874011580775665
aF0.3544267820527409
aF0.0004298361921647614
aF372.0739993746756
aF-2.1915994964926724
aF-2.1291752033391673
aF-0.003063357516262764
aF0.002024038348344792
aF6.384160321796621
aF-0.01894891818740508
aF-0.018254041010616336
aF-4.406934125493805e-05
aF0.06591764316890168
aF9.269366988407998e-05
aF-6.198981600667645e-05
aF0.00037609662276687455
aF1.3471812013044534e-06
aF8.986978599917878e-07
aI7
aa(lp161
F45.83010101896957
aF0.7875854022267355
aa(lp162
g6
a(lp163
F0.7875648425410943
aF0.7876059619123766
aaaa.