(lp0
(lp1
(lp2
F0.0
aF0.0
aF0.0
aF0.0
aF0.0
aF0.0
aa(lp3
F0.5
aF-5.468324674220447
aF-1.971526623413934e-15
aF-1.0
aF4.968324674220447
aF0.5
aI2
aa(lp4
F27.902574742688167
aF24.43425006846772
aa(lp5
(lp6
F27.884811174294164
aF27.92033831108217
aa(lp7
F24.41648650007371
aF24.452013636861714
aaaa.