(lp0
(lp1
(lp2
F7.139447186986675e-19
aF-8.956604770091599e-19
aF-1.910059820906014e-18
aF2.4944048607883084e-18
aF5.915899746872489e-18
aF3.771396525127108e-18
aF1.8784202781726448e-17
aF1.0700428113235664e-33
aF7.734132498202369e-18
aF1.5651171302059853e-17
aF2.3566780825812525e-17
aF-2.0463692433632936e-17
aF-1.636687006006829e-17
aF2.6941468117811466e-17
aF4.9808013096406636e-17
aF2.3019460979895084e-17
aF-5.759803962223827e-18
aF-2.6453301538907356e-17
aF-5.346893894960445e-17
aF5.273727136429583e-17
aF2.3088314013370715e-17
aF-6.965906952386405e-17
aF2.5874067728147938e-17
aF-1.5398995566115272e-17
aF-5.4858485454388394e-17
aF8.267505769756131e-18
aF-6.548852042125802e-17
aF2.3697328752608636e-17
aF2.092671479947717e-18
aF4.123209876248719e-18
aF4.5520482099348804e-17
aF-2.600639066699697e-17
aF-7.860494028541198e-19
aF-1.4519962542114649e-18
aF1.9286559062431907e-18
aF3.169369147434349e-19
aa(lp3
F0.024623188690586186
aF-0.03726017529047321
aF0.05966394945955769
aF-0.08033679133855148
aF0.15766910506459994
aF-0.11827053043344153
aF0.47170238758559746
aF5.867609421253846e-17
aF0.1968749783348793
aF-0.26048409313113224
aF0.35833351141825054
aF-0.39972069535423393
aF0.6362868974685122
aF-0.34440977266517336
aF0.968568220920958
aF0.6606465620512909
aF-0.7433210788622723
aF0.821741092889074
aF-0.745391170420582
aF0.7326577447602469
aF-0.36441480492106615
aF1.1978266757779605
aF-1.092673445526595
aF0.8816688965784498
aF-0.5784443861881265
aF0.1915038017890187
aF1.2555560439899005
aF-0.8485573085687113
aF0.4316426528088244
aF-0.11208616905400347
aF0.7490538617697103
aF-0.3164112059552158
aF0.06875182325779808
aF0.2292625317200369
aF-0.043161400078421716
aF0.027432341776717075
aI7
aa(lp4
F1.3775982927458217
aF0.17027923767805386
aa(lp5
(lp6
F1.3764880697211912
aF1.3787085157704415
aa(lp7
F0.17014045979997572
aF0.170418015556132
aaaa.