(lp0
(lp1
(cnumpy.core.multiarray
scalar
p2
(cnumpy
dtype
p3
(S'f8'
p4
I0
I1
tp5
Rp6
(I3
S'<'
p7
NNNI-1
I-1
I0
tp8
bS'\xed\x91\xe9q \xa6\x0e@'
p9
tp10
Rp11
F0.000237404166364358
tp12
ag2
(g6
S'\xf2\xe6n\x11\xd9\xc7\xa9\xbc'
p13
tp14
Rp15
aI62500000000
aF1.0
aF0.052459470661008936
ag2
(g6
S'miD+\x19\xa6\x0e@'
p16
tp17
Rp18
a(g11
F3.831088815794024
tp19
a(F3.831088815794024
F0.0002485847436384016
tp20
aa(lp21
(g11
F0.000237404166364358
tp22
ag2
(g6
S'!\xf7x\xda\xcc\xc7\xa9\xbc'
p23
tp24
Rp25
aI62500000000
aF1.0
aF0.05246391909154087
ag2
(g6
S"m\xba\x8e\xb8'\xa6\x0e@"
p26
tp27
Rp28
a(g2
(g6
S'\xed\xe23\xff.\xa6\x0e@'
p29
tp30
Rp31
g11
tp32
a(g31
F0.00022622366992035376
tp33
aa(lp34
(g31
F0.00022622366992035376
tp35
ag2
(g6
S"Q'?\xa3\xc0\xc7\xa9\xbc"
p36
tp37
Rp38
aI62500000000
aF1.0
aF0.05246836738133532
ag2
(g6
S'm\x0b\xd9E6\xa6\x0e@'
p39
tp40
Rp41
a(g2
(g6
S'\xed3~\x8c=\xa6\x0e@'
p42
tp43
Rp44
g31
tp45
a(g44
F0.0002150432543132425
tp46
aa(lp47
(g44
F0.0002150432543132425
tp48
ag2
(g6
S'`w\xc1k\xb4\xc7\xa9\xbc'
p49
tp50
Rp51
aI62500000000
aF1.0
aF0.05247281553039228
ag2
(g6
S'm\\#\xd3D\xa6\x0e@'
p52
tp53
Rp54
a(g2
(g6
S'\xed\x84\xc8\x19L\xa6\x0e@'
p55
tp56
Rp57
g44
tp58
a(g57
F0.0002038629195498779
tp59
aa(lp60
(g57
F0.0002038629195498779
tp61
ag2
(g6
S'\xb6\xe7\xff3\xa8\xc7\xa9\xbc'
p62
tp63
Rp64
aI62500000000
aF1.0
aF0.052477263679449236
ag2
(g6
S'm\xadm`S\xa6\x0e@'
p65
tp66
Rp67
a(g2
(g6
S'\xed\xd5\x12\xa7Z\xa6\x0e@'
p68
tp69
Rp70
g57
tp71
a(g70
F0.00019268266563711344
tp72
aa(lp73
(g70
F0.00019268266563711344
tp74
ag2
(g6
S'Tx\xfa\xfb\x9b\xc7\xa9\xbc'
p75
tp76
Rp77
aI62500000000
aF1.0
aF0.052481711828506195
ag2
(g6
S'm\xfe\xb7\xeda\xa6\x0e@'
p78
tp79
Rp80
a(g2
(g6
S'\xed&]4i\xa6\x0e@'
p81
tp82
Rp83
g70
tp84
a(g83
F0.00018150249258180268
tp85
aa(lp86
(g83
F0.00018150249258180268
tp87
ag2
(g6
S'\x80)\xb1\xc3\x8f\xc7\xa9\xbc'
p88
tp89
Rp90
aI62500000000
aF1.0
aF0.05248615997756315
ag2
(g6
S'mO\x02{p\xa6\x0e@'
p91
tp92
Rp93
a(g2
(g6
S'\xedw\xa7\xc1w\xa6\x0e@'
p94
tp95
Rp96
g83
tp97
a(g96
F0.000170322400390799
tp98
aa(lp99
(g96
F0.000170322400390799
tp100
ag2
(g6
S'\x81\xfb#\x8b\x83\xc7\xa9\xbc'
p101
tp102
Rp103
aI62500000000
aF1.0
aF0.05249060798588262
ag2
(g6
S'm\xa0L\x08\x7f\xa6\x0e@'
p104
tp105
Rp106
a(g2
(g6
S'\xed\xc8\xf1N\x86\xa6\x0e@'
p107
tp108
Rp109
g96
tp110
a(g109
F0.0001591423890709557
tp111
aa(lp112
(g109
F0.0001591423890709557
tp113
ag2
(g6
S'V\xeeRRw\xc7\xa9\xbc'
p114
tp115
Rp116
aI62500000000
aF1.0
aF0.0524950558534646
ag2
(g6
S'm\xf1\x96\x95\x8d\xa6\x0e@'
p117
tp118
Rp119
a(g2
(g6
S'\xed\x19<\xdc\x94\xa6\x0e@'
p120
tp121
Rp122
g109
tp123
a(g122
F0.0001479624586291261
tp124
aa(lp125
(g122
F0.0001479624586291261
tp126
ag2
(g6
S'X\x02>\x19k\xc7\xa9\xbc'
p127
tp128
Rp129
aI62500000000
aF1.0
aF0.05249950400252156
ag2
(g6
S'mB\xe1"\x9c\xa6\x0e@'
p130
tp131
Rp132
a(g2
(g6
S'\xedj\x86i\xa3\xa6\x0e@'
p133
tp134
Rp135
g122
tp136
a(g135
F0.00013678260907216332
tp137
aa(lp138
(g135
F0.00013678260907216332
tp139
ag2
(g6
S'\x977\xe5\xdf^\xc7\xa9\xbc'
p140
tp141
Rp142
aI62500000000
aF1.0
aF0.052503951870103545
ag2
(g6
S'm\x93+\xb0\xaa\xa6\x0e@'
p143
tp144
Rp145
a(g2
(g6
S'\xed\xbb\xd0\xf6\xb1\xa6\x0e@'
p146
tp147
Rp148
g135
tp149
a(g148
F0.0001256028404069205
tp150
aa(lp151
(g2
(g6
S'\xed\x0c\x1b\x84\xc0\xa6\x0e@'
p152
tp153
Rp154
F0.00011442315264025066
tp155
ag2
(g6
S'v\x8eH\xa6R\xc7\xa9\xbc'
p156
tp157
Rp158
aI62500000000
aF1.0
aF0.05250839973768553
ag2
(g6
S'm\xe4u=\xb9\xa6\x0e@'
p159
tp160
Rp161
a(g154
g148
tp162
a(g148
F0.0001256028404069205
tp163
aa(lp164
(g154
F0.00011442315264025066
tp165
ag2
(g6
S'\xe2\x06hlF\xc7\xa9\xbc'
p166
tp167
Rp168
aI62500000000
aF1.0
aF0.05251284746453002
ag2
(g6
S'm5\xc0\xca\xc7\xa6\x0e@'
p169
tp170
Rp171
a(g2
(g6
S'\xed]e\x11\xcf\xa6\x0e@'
p172
tp173
Rp174
g154
tp175
a(g174
F0.00010324354577900677
tp176
aa(lp177
(g174
F0.00010324354577900677
tp178
ag2
(g6
S'3\xa1C2:\xc7\xa9\xbc'
p179
tp180
Rp181
aI62500000000
aF1.0
aF0.05251729526174326
ag2
(g6
S'm\x86\nX\xd6\xa6\x0e@'
p182
tp183
Rp184
a(g2
(g6
S'\xed\xae\xaf\x9e\xdd\xa6\x0e@'
p185
tp186
Rp187
g174
tp188
a(g187
F9.206401983004173e-05
tp189
aa(lp190
(g187
F9.206401983004173e-05
tp191
ag2
(g6
S'\x95]\xdb\xf7-\xc7\xa9\xbc'
p192
tp193
Rp194
aI62500000000
aF1.0
aF0.05252174298858775
ag2
(g6
S'm\xd7T\xe5\xe4\xa6\x0e@'
p195
tp196
Rp197
a(g2
(g6
S'\xed\xff\xf9+\xec\xa6\x0e@'
p198
tp199
Rp200
g187
tp201
a(g200
F8.088457480020835e-05
tp202
aa(lp203
(g200
F8.088457480020835e-05
tp204
ag2
(g6
S'4</\xbd!\xc7\xa9\xbc'
p205
tp206
Rp207
aI62500000000
aF1.0
aF0.05252619071543224
ag2
(g6
S'm(\x9fr\xf3\xa6\x0e@'
p208
tp209
Rp210
a(F3.8315329050038742
g200
tp211
a(F3.8315329050038742
F6.970521069635935e-05
tp212
aa(lp213
(g2
(g6
S'\xb0\xb4\xd1\x10\x06\xa7\x0e@'
p214
tp215
Rp216
F6.099188724474318e-05
tp217
ag2
(g6
S't\xc4\x94\xdb\x16\xc7\xa9\xbc'
p218
tp219
Rp220
aI48713524163
aF1.0
aF0.05253014774086922
ag2
(g6
S'\xce\x02\x0be\x00\xa7\x0e@'
p221
tp222
Rp223
a(g216
F3.8315329050038742
tp224
a(F3.8315329050038742
F6.970521069635935e-05
tp225
aa(lp226
(g216
F6.099188724474318e-05
tp227
ag2
(g6
S'\x93\xb8\x1dS\r\xc7\xa9\xbc'
p228
tp229
Rp230
aI48713524164
aF1.0
aF0.05253361422436983
ag2
(g6
S'\x92f\x98\xbc\x0b\xa7\x0e@'
p231
tp232
Rp233
a(g2
(g6
S't\x18_h\x11\xa7\x0e@'
p234
tp235
Rp236
g216
tp237
a(g236
F5.2278612962074174e-05
tp238
aa(lp239
(g236
F5.2278612962074174e-05
tp240
ag2
(g6
S'\xa9r}\xca\x03\xc7\xa9\xbc'
p241
tp242
Rp243
aI48713524163
aF1.0
aF0.0525370807121841
ag2
(g6
S'V\xca%\x14\x17\xa7\x0e@'
p244
tp245
Rp246
a(g2
(g6
S'7|\xec\xbf\x1c\xa7\x0e@'
p247
tp248
Rp249
g236
tp250
a(g249
F4.356538785195464e-05
tp251
aa(lp252
(g249
F4.356538785195464e-05
tp253
ag2
(g6
S'\xb7\xf2\xb3A\xfa\xc6\xa9\xbc'
p254
tp255
Rp256
aI48713524163
aF1.0
aF0.05254054713992391
ag2
(g6
S'\x18.\xb3k"\xa7\x0e@'
p257
tp258
Rp259
a(g2
(g6
S'\xfa\xdfy\x17(\xa7\x0e@'
p260
tp261
Rp262
g249
tp263
a(g262
F3.4852211917450294e-05
tp264
aa(lp265
(g2
(g6
S'\xdc\x91@\xc3-\xa7\x0e@'
p266
tp267
Rp268
F3.04956423919783e-05
tp269
ag2
(g6
S'\x92\x0e\x03\x1b\xf3\xc6\xa9\xbc'
p270
tp271
Rp272
aI24356762082
aF1.0
aF0.05254314688617452
ag2
(g6
S'\xeb8]\xed*\xa7\x0e@'
p273
tp274
Rp275
a(g268
g262
tp276
a(g262
F3.4852211917450294e-05
tp277
aa(lp278
(g268
F3.04956423919783e-05
tp279
ag2
(g6
S'9c\x7fV\xee\xc6\xa9\xbc'
p280
tp281
Rp282
aI24356762082
aF1.0
aF0.052544880244838416
ag2
(g6
S'\xcd\xea#\x990\xa7\x0e@'
p283
tp284
Rp285
a(g2
(g6
S'\xbeC\x07o3\xa7\x0e@'
p286
tp287
Rp288
g268
tp289
a(g288
F2.61390851616268e-05
tp290
aa(lp291
(g288
F2.61390851616268e-05
tp292
ag2
(g6
S'bi\xf1\x91\xe9\xc6\xa9\xbc'
p293
tp294
Rp295
aI24356762082
aF1.0
aF0.05254661325599657
ag2
(g6
S'\xaf\x9c\xeaD6\xa7\x0e@'
p296
tp297
Rp298
a(g2
(g6
S'\xa0\xf5\xcd\x1a9\xa7\x0e@'
p299
tp300
Rp301
g288
tp302
a(g301
F2.178254022680136e-05
tp303
aa(lp304
(g301
F2.178254022680136e-05
tp305
ag2
(g6
S'\x1a!Y\xcd\xe4\xc6\xa9\xbc'
p306
tp307
Rp308
aI24356762081
aF1.0
aF0.05254834661897536
ag2
(g6
S'\x90N\xb1\xf0;\xa7\x0e@'
p309
tp310
Rp311
a(g2
(g6
S'\x81\xa7\x94\xc6>\xa7\x0e@'
p312
tp313
Rp314
g301
tp315
a(g314
F1.7426007588086405e-05
tp316
aa(lp317
(g2
(g6
S'bY[rD\xa7\x0e@'
p318
tp319
Rp320
F1.3069487245708627e-05
tp321
ag2
(g6
S'o\x8a\xb6\x08\xe0\xc6\xa9\xbc'
p322
tp323
Rp324
aI24356762081
aF1.0
aF0.052550079803886526
ag2
(g6
S'r\x00x\x9cA\xa7\x0e@'
p325
tp326
Rp327
a(g320
g314
tp328
a(g314
F1.7426007588086405e-05
tp329
aa(lp330
(g320
F1.3069487245708627e-05
tp331
ag2
(g6
S'S\xa5\tD\xdb\xc6\xa9\xbc'
p332
tp333
Rp334
aI24356762082
aF1.0
aF0.05255181298448251
ag2
(g6
S'S\xb2>HG\xa7\x0e@'
p335
tp336
Rp337
a(g2
(g6
S'D\x0b"\x1eJ\xa7\x0e@'
p338
tp339
Rp340
g320
tp341
a(g340
F8.712979199894726e-06
tp342
aa(lp343
(g2
(g6
S'&\xbd\xe8\xc9O\xa7\x0e@'
p344
tp345
Rp346
F4.356483451229119e-06
tp347
ag2
(g6
S'\xd2qR\x7f\xd6\xc6\xa9\xbc'
p348
tp349
Rp350
aI24356762082
aF1.0
aF0.052553546140434726
ag2
(g6
S'5d\x05\xf4L\xa7\x0e@'
p351
tp352
Rp353
a(g346
g340
tp354
a(g340
F8.712979199894726e-06
tp355
aa(lp356
(g2
(g6
S'\x17\x16\xcc\x9fR\xa7\x0e@'
p357
tp358
Rp359
F2.178240188453663e-06
tp360
ag2
(g6
S'-\x9a\xc2\xeb\xd2\xc6\xa9\xbc'
p361
tp362
Rp363
aI12178381041
aF1.0
aF0.05255484589880334
ag2
(g6
S'\x9ei\xda4Q\xa7\x0e@'
p364
tp365
Rp366
a(g359
g346
tp367
a(g346
F4.356483451229119e-06
tp368
aa(lp369
(g2
(g6
S'\x90\xc2\xbd\nT\xa7\x0e@'
p370
tp371
Rp372
F1.0891197098880193e-06
tp373
ag2
(g6
S';m\xf8!\xd1\xc6\xa9\xbc'
p374
tp375
Rp376
aI6089190521
aF1.0
aF0.05255549595758897
ag2
(g6
S'T\xecDUS\xa7\x0e@'
p377
tp378
Rp379
a(g372
g359
tp380
a(g359
F2.178240188453663e-06
tp381
aa(lp382
(g2
(g6
S'\xcc\x986\xc0T\xa7\x0e@'
p383
tp384
Rp385
F5.445597589252794e-07
tp386
ag2
(g6
S't\xc6\x12=\xd0\xc6\xa9\xbc'
p387
tp388
Rp389
aI3044595260
aF1.0
aF0.05255582089272397
ag2
(g6
S'\xae-zeT\xa7\x0e@'
p390
tp391
Rp392
a(g385
g372
tp393
a(g372
F1.0891197098880193e-06
tp394
aa(lp395
(F3.831705970207512
F1.1736302822728639e-16
tp396
ag2
(g6
S'\xa5uy\xa4\xcf\xc6\xa9\xbc'
p397
tp398
Rp399
aI3044595260
aF1.0
aF0.052556037504639365
ag2
(g6
S'\xea\x03\xf3\x1aU\xa7\x0e@'
p400
tp401
Rp402
a(F3.831705970207512
g385
tp403
a(g385
F5.445597589252794e-07
tp404
aa(lp405
(F3.831705970207512
F1.1736302822728639e-16
tp406
ag2
(g6
S'^\xf9\xaf\xe0\xce\xc6\xa9\xbc'
p407
tp408
Rp409
aI4767904740
aF1.0
aF0.052556315497775556
ag2
(g6
S'\xfa\xa8\xc7\x03V\xa7\x0e@'
p410
tp411
Rp412
a(g2
(g6
S'\xec\xe2\xdf\x91V\xa7\x0e@'
p413
tp414
Rp415
F3.831705970207512
tp416
a(g415
F-8.527924593190265e-07
tp417
aa(lp418
(g415
F-8.527924593190265e-07
tp419
ag2
(g6
S'\xb6)\xb6\xf1\xcd\xc6\xa9\xbc'
p420
tp421
Rp422
aI4767904740
aF1.0
aF0.052556654535624685
ag2
(g6
S'\xde\x1c\xf8\x1fW\xa7\x0e@'
p423
tp424
Rp425
a(g2
(g6
S'\xd0V\x10\xaeW\xa7\x0e@'
p426
tp427
Rp428
g415
tp429
a(g428
F-1.705584447504844e-06
tp430
aa(lp431
(g428
F-1.705584447504844e-06
tp432
ag2
(g6
S'\x04\xa8>\x8b\xcc\xc6\xa9\xbc'
p433
tp434
Rp435
aI9535809479
aF1.0
aF0.05255716362298352
ag2
(g6
S'\xb4\xca@\xcaX\xa7\x0e@'
p436
tp437
Rp438
a(g2
(g6
S'\x97>q\xe6Y\xa7\x0e@'
p439
tp440
Rp441
g428
tp442
a(g441
F-3.4111670099337332e-06
tp443
aa(lp444
(g441
F-3.4111670099337332e-06
tp445
ag2
(g6
S'\xf2\xe0L\xbe\xc9\xc6\xa9\xbc'
p446
tp447
Rp448
aI19071618959
aF1.0
aF0.052558181486746056
ag2
(g6
S'^&\xd2\x1e\\\xa7\x0e@'
p449
tp450
Rp451
a(g2
(g6
S'&\x0e3W^\xa7\x0e@'
p452
tp453
Rp454
g441
tp455
a(g454
F-6.822326479829658e-06
tp456
aa(lp457
(g454
F-6.822326479829658e-06
tp458
ag2
(g6
S'\x81\x93Z\x02\xc6\xc6\xa9\xbc'
p459
tp460
Rp461
aI19071618959
aF1.0
aF0.052559538582800956
ag2
(g6
S'\xee\xf5\x93\x8f`\xa7\x0e@'
p462
tp463
Rp464
a(g2
(g6
S'\xb5\xdd\xf4\xc7b\xa7\x0e@'
p465
tp466
Rp467
g454
tp468
a(g467
F-1.0233478409375717e-05
tp469
aa(lp470
(g467
F-1.0233478409375717e-05
tp471
ag2
(g6
S'|\xf4aF\xc2\xc6\xa9\xbc'
p472
tp473
Rp474
aI19071618959
aF1.0
aF0.052560895678855864
ag2
(g6
S'|\xc5U\x00e\xa7\x0e@'
p475
tp476
Rp477
a(g2
(g6
S'D\xad\xb68g\xa7\x0e@'
p478
tp479
Rp480
g467
tp481
a(g480
F-1.3644622798377222e-05
tp482
aa(lp483
(g480
F-1.3644622798377222e-05
tp484
ag2
(g6
S'\xdd\x03c\x8a\xbe\xc6\xa9\xbc'
p485
tp486
Rp487
aI19071618959
aF1.0
aF0.052562252585979116
ag2
(g6
S'\x0c\x95\x17qi\xa7\x0e@'
p488
tp489
Rp490
a(g2
(g6
S'\xd3|x\xa9k\xa7\x0e@'
p491
tp492
Rp493
g480
tp494
a(g493
F-1.7055759646639478e-05
tp495
aa(lp496
(g493
F-1.7055759646639478e-05
tp497
ag2
(g6
S'\xa8\xc1]\xce\xba\xc6\xa9\xbc'
p498
tp499
Rp500
aI19071618959
aF1.0
aF0.05256360987096567
ag2
(g6
S'\x9ad\xd9\xe1m\xa7\x0e@'
p501
tp502
Rp503
a(g2
(g6
S'bL:\x1ap\xa7\x0e@'
p504
tp505
Rp506
g493
tp507
a(g506
F-2.0466888953967797e-05
tp508
aa(lp509
(g506
F-2.0466888953967797e-05
tp510
ag2
(g6
S':;I4\xb5\xc6\xa9\xbc'
p511
tp512
Rp513
aI38143237919
aF1.0
aF0.05256564532336016
ag2
(g6
S'\xf2\x1b\xfc\x8at\xa7\x0e@'
p514
tp515
Rp516
a(g2
(g6
S'\x81\xeb\xbd\xfbx\xa7\x0e@'
p517
tp518
Rp519
g506
tp520
a(g519
F-2.7289124945222726e-05
tp521
aa(lp522
(g519
F-2.7289124945222726e-05
tp523
ag2
(g6
S'b\xcd\x18\xbc\xad\xc6\xa9\xbc'
p524
tp525
Rp526
aI38143237919
aF1.0
aF0.052568359421004
ag2
(g6
S'\x10\xbb\x7fl}\xa7\x0e@'
p527
tp528
Rp529
a(g2
(g6
S'\xa0\x8aA\xdd\x81\xa7\x0e@'
p530
tp531
Rp532
g519
tp533
a(g532
F-3.411133077040563e-05
tp534
aa(lp535
(g532
F-3.411133077040563e-05
tp536
ag2
(g6
S'U\x19\xcfC\xa6\xc6\xa9\xbc'
p537
tp538
Rp539
aI38143237918
aF1.0
aF0.05257107352140434
ag2
(g6
S'/Z\x03N\x86\xa7\x0e@'
p540
tp541
Rp542
a(g2
(g6
S'\xbe)\xc5\xbe\x8a\xa7\x0e@'
p543
tp544
Rp545
g532
tp546
a(g545
F-4.0933506427780167e-05
tp547
aa(lp548
(g545
F-4.0933506427780167e-05
tp549
ag2
(g6
S'\x15\x1fl\xcb\x9e\xc6\xa9\xbc'
p550
tp551
Rp552
aI38143237918
aF1.0
aF0.05257378752458249
ag2
(g6
S'M\xf9\x86/\x8f\xa7\x0e@'
p553
tp554
Rp555
a(g2
(g6
S'\xdc\xc8H\xa0\x93\xa7\x0e@'
p556
tp557
Rp558
g545
tp559
a(g558
F-4.7755651915967694e-05
tp560
aa(lp561
(g558
F-4.7755651915967694e-05
tp562
ag2
(g6
S'\xb1\xde\xefR\x97\xc6\xa9\xbc'
p563
tp564
Rp565
aI38143237918
aF1.0
aF0.052576501622226476
ag2
(g6
S'k\x98\n\x11\x98\xa7\x0e@'
p566
tp567
Rp568
a(g2
(g6
S'\xfag\xcc\x81\x9c\xa7\x0e@'
p569
tp570
Rp571
g558
tp572
a(g571
F-5.457776723341074e-05
tp573
aa(lp574
(g571
F-5.457776723341074e-05
tp575
ag2
(g6
S'1XZ\xda\x8f\xc6\xa9\xbc'
p576
tp577
Rp578
aI38143237918
aF1.0
aF0.05257921562540463
ag2
(g6
S'\x897\x8e\xf2\xa0\xa7\x0e@'
p579
tp580
Rp581
a(g2
(g6
S'\x18\x07Pc\xa5\xa7\x0e@'
p582
tp583
Rp584
g571
tp585
a(g584
F-6.139985237855183e-05
tp586
aa(lp587
(g584
F-6.139985237855183e-05
tp588
ag2
(g6
S'\x9b\x8b\xaba\x88\xc6\xa9\xbc'
p589
tp590
Rp591
aI38143237919
aF1.0
aF0.05258192962582572
ag2
(g6
S'\xa8\xd6\x11\xd4\xa9\xa7\x0e@'
p592
tp593
Rp594
a(g2
(g6
S'7\xa6\xd3D\xae\xa7\x0e@'
p595
tp596
Rp597
g584
tp598
a(g597
F-6.822190735001235e-05
tp599
aa(lp600
(g597
F-6.822190735001235e-05
tp601
ag2
(g6
S'\x0ey\xe3\xe8\x80\xc6\xa9\xbc'
p602
tp603
Rp604
aI38143237919
aF1.0
aF0.05258464362900373
ag2
(g6
S'\xc6u\x95\xb5\xb2\xa7\x0e@'
p605
tp606
Rp607
a(g2
(g6
S'VEW&\xb7\xa7\x0e@'
p608
tp609
Rp610
g597
tp611
a(g610
F-7.504393214605603e-05
tp612
aa(lp613
(g610
F-7.504393214605603e-05
tp614
ag2
(g6
S's \x02py\xc6\xa9\xbc'
p615
tp616
Rp617
aI38143237918
aF1.0
aF0.05258735744600745
ag2
(g6
S'\xe5\x14\x19\x97\xbb\xa7\x0e@'
p618
tp619
Rp620
a(g2
(g6
S't\xe4\xda\x07\xc0\xa7\x0e@'
p621
tp622
Rp623
g610
tp624
a(g623
F-8.186592676494654e-05
tp625
aa(lp626
(g623
F-8.186592676494654e-05
tp627
ag2
(g6
S'\x03\x82\x07\xf7q\xc6\xa9\xbc'
p628
tp629
Rp630
aI38143237918
aF1.0
aF0.0525900714491856
ag2
(g6
S'\x03\xb4\x9cx\xc4\xa7\x0e@'
p631
tp632
Rp633
a(g2
(g6
S'\x92\x83^\xe9\xc8\xa7\x0e@'
p634
tp635
Rp636
g623
tp637
a(g636
F-8.868789120530534e-05
tp638
aa(lp639
(g636
F-8.868789120530534e-05
tp640
ag2
(g6
S'\x86\x9d\xf3}j\xc6\xa9\xbc'
p641
tp642
Rp643
aI38143237918
aF1.0
aF0.052592785452363754
ag2
(g6
S'!S Z\xcd\xa7\x0e@'
p644
tp645
Rp646
a(g2
(g6
S'\xb0"\xe2\xca\xd1\xa7\x0e@'
p647
tp648
Rp649
g636
tp650
a(g649
F-9.550982546557497e-05
tp651
aa(lp652
(g649
F-9.550982546557497e-05
tp653
ag2
(g6
S'_s\xc6\x04c\xc6\xa9\xbc'
p654
tp655
Rp656
aI38143237918
aF1.0
aF0.052595499455541914
ag2
(g6
S'?\xf2\xa3;\xd6\xa7\x0e@'
p657
tp658
Rp659
a(g2
(g6
S'\xce\xc1e\xac\xda\xa7\x0e@'
p660
tp661
Rp662
g649
tp663
a(g662
F-0.00010233172954419808
tp664
aa(lp665
(g662
F-0.00010233172954419808
tp666
ag2
(g6
S'=\x03\x80\x8b[\xc6\xa9\xbc'
p667
tp668
Rp669
aI38143237919
aF1.0
aF0.05259821326703049
ag2
(g6
S"^\x91'\x1d\xdf\xa7\x0e@"
p670
tp671
Rp672
a(F3.8319769942137243
g662
tp673
a(F3.8319769942137243
F-0.00010915360343979606
tp674
aa(lp675
(F3.8319769942137243
F-0.00010915360343979606
tp676
ag2
(g6
S'\xd5\xb8\x9a/S\xc6\xa9\xbc'
p677
tp678
Rp679
aI47174345401
aF1.0
aF0.05260124832396259
ag2
(g6
S'J\x12\xd1\x0b\xe9\xa7\x0e@'
p680
tp681
Rp682
a(g2
(g6
S'\xa6\xc3\xb8\x89\xee\xa7\x0e@'
p683
tp684
Rp685
F3.8319769942137243
tp686
a(g685
F-0.00011759063869073422
tp687
aa(lp688
(g685
F-0.00011759063869073422
tp689
ag2
(g6
S'\xc0\xa7\r\xf1I\xc6\xa9\xbc'
p690
tp691
Rp692
aI47174345402
aF1.0
aF0.052604604659492495
ag2
(g6
S'\x03u\xa0\x07\xf4\xa7\x0e@'
p693
tp694
Rp695
a(g2
(g6
S'`&\x88\x85\xf9\xa7\x0e@'
p696
tp697
Rp698
g685
tp699
a(g698
F-0.00012602762776842418
tp700
aa(lp701
(g698
F-0.00012602762776842418
tp702
ag2
(g6
S'\xa1\xeeY\xb2@\xc6\xa9\xbc'
p703
tp704
Rp705
aI47174345401
aF1.0
aF0.05260796112300022
ag2
(g6
S'\xbc\xd7o\x03\xff\xa7\x0e@'
p706
tp707
Rp708
a(g2
(g6
S'\x19\x89W\x81\x04\xa8\x0e@'
p709
tp710
Rp711
g698
tp712
a(g711
F-0.00013446457066956208
tp713
aa(lp714
(g711
F-0.00013446457066956208
tp715
ag2
(g6
S'\xc2\x8d\x7fs7\xc6\xa9\xbc'
p716
tp717
Rp718
aI47174345401
aF1.0
aF0.052611317584277735
ag2
(g6
S'v:?\xff\t\xa8\x0e@'
p719
tp720
Rp721
a(g2
(g6
S'\xd2\xeb&}\x0f\xa8\x0e@'
p722
tp723
Rp724
g711
tp725
a(g724
F-0.0001429014673913807
tp726
aa(lp727
(g724
F-0.0001429014673913807
tp728
ag2
(g6
S'\xfc\x84~4.\xc6\xa9\xbc'
p729
tp730
Rp731
aI47174345401
aF1.0
aF0.05261467379852048
ag2
(g6
S'.\x9d\x0e\xfb\x14\xa8\x0e@'
p732
tp733
Rp734
a(g2
(g6
S'\x8bN\xf6x\x1a\xa8\x0e@'
p735
tp736
Rp737
g724
tp738
a(g737
F-0.00015133831793093388
tp739
aa(lp740
(g737
F-0.00015133831793093388
tp741
ag2
(g6
S'\x93\xd4V\xf5$\xc6\xa9\xbc'
p742
tp743
Rp744
aI47174345401
aF1.0
aF0.05261803001276323
ag2
(g6
S'\xe8\xff\xdd\xf6\x1f\xa8\x0e@'
p745
tp746
Rp747
a(g2
(g6
S'D\xb1\xc5t%\xa8\x0e@'
p748
tp749
Rp750
g737
tp751
a(g750
F-0.0001597751222852756
tp752
aa(lp753
(g750
F-0.0001597751222852756
tp754
ag2
(g6
S'Z|\x08\xb6\x1b\xc6\xa9\xbc'
p755
tp756
Rp757
aI47174345401
aF1.0
aF0.052621386474040736
ag2
(g6
S'\xa0b\xad\xf2*\xa8\x0e@'
p758
tp759
Rp760
a(g2
(g6
S'\xfd\x13\x95p0\xa8\x0e@'
p761
tp762
Rp763
g750
tp764
a(g763
F-0.00016821188045145974
tp765
aa(lp766
(g763
F-0.00016821188045145974
tp767
ag2
(g6
S'\xc5|\x93v\x12\xc6\xa9\xbc'
p768
tp769
Rp770
aI47174345401
aF1.0
aF0.05262474244124873
ag2
(g6
S'Z\xc5|\xee5\xa8\x0e@'
p771
tp772
Rp773
a(g2
(g6
S'\xb6vdl;\xa8\x0e@'
p774
tp775
Rp776
g763
tp777
a(g776
F-0.00017664859242654034
tp778
aa(lp779
(g776
F-0.00017664859242654034
tp780
ag2
(g6
S'v\xd5\xf76\t\xc6\xa9\xbc'
p781
tp782
Rp783
aI47174345401
aF1.0
aF0.05262809890252624
ag2
(g6
S'\x12(L\xea@\xa8\x0e@'
p784
tp785
Rp786
a(g2
(g6
S'o\xd93hF\xa8\x0e@'
p787
tp788
Rp789
g776
tp790
a(g789
F-0.00018508525820757133
tp791
aa(lp792
(g789
F-0.00018508525820757133
tp793
ag2
(g6
S'\xfa\x865\xf7\xff\xc5\xa9\xbc'
p794
tp795
Rp796
aI47174345401
aF1.0
aF0.052631455116768984
ag2
(g6
S'\xcc\x8a\x1b\xe6K\xa8\x0e@'
p797
tp798
Rp799
a(g2
(g6
S'(<\x03dQ\xa8\x0e@'
p800
tp801
Rp802
g789
tp803
a(g802
F-0.00019352187779160678
tp804
aa(lp805
(g802
F-0.00019352187779160678
tp806
ag2
(g6
S'\xf4\x90L\xb7\xf6\xc5\xa9\xbc'
p807
tp808
Rp809
aI47174345402
aF1.0
aF0.052634811081745475
ag2
(g6
S'\x85\xed\xea\xe1V\xa8\x0e@'
p810
tp811
Rp812
a(g2
(g6
S'\xe2\x9e\xd2_\\\xa8\x0e@'
p813
tp814
Rp815
g802
tp816
a(g815
F-0.00020195845117587953
tp817
aa(lp818
(g815
F-0.00020195845117587953
tp819
ag2
(g6
S'\xd7\xf3<w\xed\xc5\xa9\xbc'
p820
tp821
Rp822
aI47174345401
aF1.0
aF0.052638167298219726
ag2
(g6
S'>P\xba\xdda\xa8\x0e@'
p823
tp824
Rp825
a(g2
(g6
S'\x9b\x01\xa2[g\xa8\x0e@'
p826
tp827
Rp828
g815
tp829
a(g828
F-0.000210394978357086
tp830
aa(lp831
(g828
F-0.000210394978357086
tp832
ag2
(g6
S'u\xaf\x067\xe4\xc5\xa9\xbc'
p833
tp834
Rp835
aI47174345401
aF1.0
aF0.05264152351246247
ag2
(g6
S'\xf8\xb2\x89\xd9l\xa8\x0e@'
p836
tp837
Rp838
a(g2
(g6
S'TdqWr\xa8\x0e@'
p839
tp840
Rp841
g828
tp842
a(g841
F-0.0002188314593324591
tp843
aa(lp844
(g841
F-0.0002188314593324591
tp845
ag2
(g6
S'\x18\xc4\xa9\xf6\xda\xc5\xa9\xbc'
p846
tp847
Rp848
aI47174345402
aF1.0
aF0.05264487972447329
ag2
(g6
S'\xb1\x15Y\xd5w\xa8\x0e@'
p849
tp850
Rp851
a(g2
(g6
S'\x0e\xc7@S}\xa8\x0e@'
p852
tp853
Rp854
g841
tp855
a(g854
F-0.0002272678940992318
tp856
aa(lp857
(g854
F-0.0002272678940992318
tp858
ag2
(g6
S'\x9e1&\xb6\xd1\xc5\xa9\xbc'
p859
tp860
Rp861
aI47174345401
aF1.0
aF0.05264823544687845
ag2
(g6
S'jx(\xd1\x82\xa8\x0e@'
p862
tp863
Rp864
a(g2
(g6
S'\xc7)\x10O\x88\xa8\x0e@'
p865
tp866
Rp867
g854
tp868
a(g867
F-0.00023570428265410053
tp869
aa(lp870
(g867
F-0.00023570428265410053
tp871
ag2
(g6
S'@\xf8{u\xc8\xc5\xa9\xbc'
p872
tp873
Rp874
aI47174345401
aF1.0
aF0.052651591661121204
ag2
(g6
S'$\xdb\xf7\xcc\x8d\xa8\x0e@'
p875
tp876
Rp877
a(F3.832312188098115
g867
tp878
a(F3.832312188098115
F-0.00024414062499429832
tp879
aa.