(lp0
(lp1
(F3.9571280425955466
F0.00022156551031088235
tp2
acnumpy.core.multiarray
scalar
p3
(cnumpy
dtype
p4
(S'f8'
p5
I0
I1
tp6
Rp7
(I3
S'<'
p8
NNNI-1
I-1
I0
tp9
bS"\xcb1\x99\x00'\xc4\xa9\xbc"
p10
tp11
Rp12
aI62500000000
aF1.0
aF0.050761703814220294
ag3
(g7
S'\xcaj\xed\x05:\xa8\x0f@'
p13
tp14
Rp15
a(g3
(g7
S'J\x93\x92LA\xa8\x0f@'
p16
tp17
Rp18
F3.9571280425955466
tp19
a(g18
F0.0002103911935748838
tp20
aa(lp21
(g18
F0.0002103911935748838
tp22
ag3
(g7
S'\x03\xe0\xd1.\x1b\xc4\xa9\xbc'
p23
tp24
Rp25
aI62500000000
aF1.0
aF0.0507665779756545
ag3
(g7
S'\xca\xbb7\x93H\xa8\x0f@'
p26
tp27
Rp28
a(g3
(g7
S'J\xe4\xdc\xd9O\xa8\x0f@'
p29
tp30
Rp31
g18
tp32
a(g31
F0.00019921695505342867
tp33
aa(lp34
(g31
F0.00019921695505342867
tp35
ag3
(g7
S'\x1f.\xc0\\\x0f\xc4\xa9\xbc'
p36
tp37
Rp38
aI62500000000
aF1.0
aF0.05077145241856369
ag3
(g7
S'\xca\x0c\x82 W\xa8\x0f@'
p39
tp40
Rp41
a(g3
(g7
S"J5'g^\xa8\x0f@"
p42
tp43
Rp44
g31
tp45
a(g44
F0.00018804279475402694
tp46
aa(lp47
(g44
F0.00018804279475402694
tp48
ag3
(g7
S'\x9c\x1cd\x8a\x03\xc4\xa9\xbc'
p49
tp50
Rp51
aI62500000000
aF1.0
aF0.0507763265799979
ag3
(g7
S'\xca]\xcc\xade\xa8\x0f@'
p52
tp53
Rp54
a(g3
(g7
S'J\x86q\xf4l\xa8\x0f@'
p55
tp56
Rp57
g44
tp58
a(g57
F0.0001768687126841884
tp59
aa(lp60
(g57
F0.0001768687126841884
tp61
ag3
(g7
S'y\xab\xbd\xb7\xf7\xc3\xa9\xbc'
p62
tp63
Rp64
aI62500000000
aF1.0
aF0.050781200600694625
ag3
(g7
S'\xca\xae\x16;t\xa8\x0f@'
p65
tp66
Rp67
a(g3
(g7
S'J\xd7\xbb\x81{\xa8\x0f@'
p68
tp69
Rp70
g57
tp71
a(g70
F0.0001656947088514229
tp72
aa(lp73
(g70
F0.0001656947088514229
tp74
ag3
(g7
S'\x0e\xdb\xcc\xe4\xeb\xc3\xa9\xbc'
p75
tp76
Rp77
aI62500000000
aF1.0
aF0.05078607462139134
ag3
(g7
S'\xca\xff`\xc8\x82\xa8\x0f@'
p78
tp79
Rp80
a(g3
(g7
S'J(\x06\x0f\x8a\xa8\x0f@'
p81
tp82
Rp83
g70
tp84
a(g83
F0.00015452078326324008
tp85
aa(lp86
(g83
F0.00015452078326324008
tp87
ag3
(g7
S'\xa1\xab\x91\x11\xe0\xc3\xa9\xbc'
p88
tp89
Rp90
aI62500000000
aF1.0
aF0.05079094850135058
ag3
(g7
S'\xcaP\xabU\x91\xa8\x0f@'
p91
tp92
Rp93
a(g3
(g7
S'JyP\x9c\x98\xa8\x0f@'
p94
tp95
Rp96
g83
tp97
a(g96
F0.0001433469359271495
tp98
aa(lp99
(g96
F0.0001433469359271495
tp100
ag3
(g7
S'V\x1d\x0c>\xd4\xc3\xa9\xbc'
p101
tp102
Rp103
aI62500000000
aF1.0
aF0.050795822381309814
ag3
(g7
S'\xca\xa1\xf5\xe2\x9f\xa8\x0f@'
p104
tp105
Rp106
a(g3
(g7
S'J\xca\x9a)\xa7\xa8\x0f@'
p107
tp108
Rp109
g96
tp110
a(g109
F0.0001321731668506607
tp111
aa(lp112
(g3
(g7
S'J\x1b\xe5\xb6\xb5\xa8\x0f@'
p113
tp114
Rp115
F0.00012099947604128302
tp116
ag3
(g7
S'\x850<j\xc8\xc3\xa9\xbc'
p117
tp118
Rp119
aI62500000000
aF1.0
aF0.05080069640200653
ag3
(g7
S'\xca\xf2?p\xae\xa8\x0f@'
p120
tp121
Rp122
a(g115
g109
tp123
a(g109
F0.0001321731668506607
tp124
aa(lp125
(g115
F0.00012099947604128302
tp126
ag3
(g7
S'\xf9\xc31\x8b\xbf\xc3\xa9\xbc'
p127
tp128
Rp129
aI31250000000
aF1.0
aF0.050804351636054096
ag3
(g7
S'\x8a\xaf7Z\xb9\xa8\x0f@'
p130
tp131
Rp132
a(g3
(g7
S'\xcaC\x8a\xfd\xbc\xa8\x0f@'
p133
tp134
Rp135
g115
tp136
a(g135
F0.00011541265998910751
tp137
aa(lp138
(g135
F0.00011541265998910751
tp139
ag3
(g7
S'\xdc\x06\x12\xa1\xb9\xc3\xa9\xbc'
p140
tp141
Rp142
aI31250000000
aF1.0
aF0.05080678864640246
ag3
(g7
S'\n\xd8\xdc\xa0\xc0\xa8\x0f@'
p143
tp144
Rp145
a(g3
(g7
S'Jl/D\xc4\xa8\x0f@'
p146
tp147
Rp148
g135
tp149
a(g148
F0.00010982586350652576
tp150
aa(lp151
(g148
F0.00010982586350652576
tp152
ag3
(g7
S'N\xb2\xdf\xb6\xb3\xc3\xa9\xbc'
p153
tp154
Rp155
aI31250000000
aF1.0
aF0.05080922565675082
ag3
(g7
S'\x8a\x00\x82\xe7\xc7\xa8\x0f@'
p156
tp157
Rp158
a(g3
(g7
S'\xca\x94\xd4\x8a\xcb\xa8\x0f@'
p159
tp160
Rp161
g148
tp162
a(g161
F0.00010423908659447641
tp163
aa(lp164
(g161
F0.00010423908659447641
tp165
ag3
(g7
S'O\xc6\x9a\xcc\xad\xc3\xa9\xbc'
p166
tp167
Rp168
aI31250000000
aF1.0
aF0.050811662104149224
ag3
(g7
S"\n)'.\xcf\xa8\x0f@"
p169
tp170
Rp171
a(g3
(g7
S'J\xbdy\xd1\xd2\xa8\x0f@'
p172
tp173
Rp174
g161
tp175
a(g174
F9.865232925389809e-05
tp176
aa(lp177
(g174
F9.865232925389809e-05
tp178
ag3
(g7
S'\xbbBC\xe2\xa7\xc3\xa9\xbc'
p179
tp180
Rp181
aI31250000000
aF1.0
aF0.050814099114497586
ag3
(g7
S'\x8aQ\xcct\xd6\xa8\x0f@'
p182
tp183
Rp184
a(g3
(g7
S'\xca\xe5\x1e\x18\xda\xa8\x0f@'
p185
tp186
Rp187
g174
tp188
a(g187
F9.306559148572946e-05
tp189
aa(lp190
(g187
F9.306559148572946e-05
tp191
ag3
(g7
S"\xea'\xd9\xf7\xa1\xc3\xa9\xbc"
p192
tp193
Rp194
aI31250000000
aF1.0
aF0.05081653584337097
ag3
(g7
S'\nzq\xbb\xdd\xa8\x0f@'
p195
tp196
Rp197
a(g3
(g7
S'J\x0e\xc4^\xe1\xa8\x0f@'
p198
tp199
Rp200
g187
tp201
a(g200
F8.747887329090912e-05
tp202
aa(lp203
(g200
F8.747887329090912e-05
tp204
ag3
(g7
S'\xa9u\\\r\x9c\xc3\xa9\xbc'
p205
tp206
Rp207
aI31250000000
aF1.0
aF0.050818972853719335
ag3
(g7
S'\x8a\xa2\x16\x02\xe5\xa8\x0f@'
p208
tp209
Rp210
a(g3
(g7
S'\xca6i\xa5\xe8\xa8\x0f@'
p211
tp212
Rp213
g200
tp214
a(g213
F8.189217467037569e-05
tp215
aa(lp216
(g213
F8.189217467037569e-05
tp217
ag3
(g7
S'\xf6+\xcd"\x96\xc3\xa9\xbc'
p218
tp219
Rp220
aI31250000000
aF1.0
aF0.05082140930111774
ag3
(g7
S'\n\xcb\xbbH\xec\xa8\x0f@'
p221
tp222
Rp223
a(g3
(g7
S'J_\x0e\xec\xef\xa8\x0f@'
p224
tp225
Rp226
g213
tp227
a(g226
F7.630549562506782e-05
tp228
aa(lp229
(g226
F7.630549562506782e-05
tp230
ag3
(g7
S'\x19K+8\x90\xc3\xa9\xbc'
p231
tp232
Rp233
aI31250000000
aF1.0
aF0.0508238463114661
ag3
(g7
S'\x8a\xf3`\x8f\xf3\xa8\x0f@'
p234
tp235
Rp236
a(g3
(g7
S'\xca\x87\xb32\xf7\xa8\x0f@'
p237
tp238
Rp239
g226
tp240
a(g239
F7.071883615592409e-05
tp241
aa(lp242
(g239
F7.071883615592409e-05
tp243
ag3
(g7
S'\xed\xd2vM\x8a\xc3\xa9\xbc'
p244
tp245
Rp246
aI31250000000
aF1.0
aF0.05082628304033949
ag3
(g7
S'\n\x1c\x06\xd6\xfa\xa8\x0f@'
p247
tp248
Rp249
a(g3
(g7
S'J\xb0Xy\xfe\xa8\x0f@'
p250
tp251
Rp252
g239
tp253
a(g252
F6.51321962638831e-05
tp254
aa(lp255
(g3
(g7
S'\xca\xd8\xfd\xbf\x05\xa9\x0f@'
p256
tp257
Rp258
F5.954557594988346e-05
tp259
ag3
(g7
S't\xc3\xafb\x84\xc3\xa9\xbc'
p260
tp261
Rp262
aI31250000000
aF1.0
aF0.05082871976921287
ag3
(g7
S'\x8aD\xab\x1c\x02\xa9\x0f@'
p263
tp264
Rp265
a(g258
g252
tp266
a(g252
F6.51321962638831e-05
tp267
aa(lp268
(g258
F5.954557594988346e-05
tp269
ag3
(g7
S'\xc6\x1c\xd6w~\xc3\xa9\xbc'
p270
tp271
Rp272
aI31250000000
aF1.0
aF0.050831156498086255
ag3
(g7
S'\nmPc\t\xa9\x0f@'
p273
tp274
Rp275
a(g3
(g7
S'J\x01\xa3\x06\r\xa9\x0f@'
p276
tp277
Rp278
g258
tp279
a(g278
F5.395897521486376e-05
tp280
aa(lp281
(g278
F5.395897521486376e-05
tp282
ag3
(g7
S'\xee\xde\xe9\x8cx\xc3\xa9\xbc'
p283
tp284
Rp285
aI31250000000
aF1.0
aF0.05083359308622215
ag3
(g7
S'\x8a\x95\xf5\xa9\x10\xa9\x0f@'
p286
tp287
Rp288
a(g3
(g7
S'\xca)HM\x14\xa9\x0f@'
p289
tp290
Rp291
g278
tp292
a(g291
F4.8372394059762574e-05
tp293
aa(lp294
(g291
F4.8372394059762574e-05
tp295
ag3
(g7
S'\xe2\t\xeb\xa1r\xc3\xa9\xbc'
p296
tp297
Rp298
aI31250000000
aF1.0
aF0.05083602981509553
ag3
(g7
S'\n\xbe\x9a\xf0\x17\xa9\x0f@'
p299
tp300
Rp301
a(F3.9575721318053967
g291
tp302
a(F3.9575721318053967
F4.278583248551849e-05
tp303
aa(lp304
(F3.9575721318053967
F4.278583248551849e-05
tp305
ag3
(g7
S'he(\xd7l\xc3\xa9\xbc'
p306
tp307
Rp308
aI29917274250
aF1.0
aF0.05083841458063448
ag3
(g7
S'\x8f\x02\x88\x0f\x1f\xa9\x0f@'
p309
tp310
Rp311
a(g3
(g7
S'\xd4\xb2"\x8b"\xa9\x0f@'
p312
tp313
Rp314
F3.9575721318053967
tp315
a(g314
F3.743754060104786e-05
tp316
aa(lp317
(g314
F3.743754060104786e-05
tp318
ag3
(g7
S'G\xfa\xa2,g\xc3\xa9\xbc'
p319
tp320
Rp321
aI29917274250
aF1.0
aF0.05084074709092379
ag3
(g7
S'\x19c\xbd\x06&\xa9\x0f@'
p322
tp323
Rp324
a(g3
(g7
S'^\x13X\x82)\xa9\x0f@'
p325
tp326
Rp327
g314
tp328
a(g327
F3.2089266664593074e-05
tp329
aa(lp330
(g3
(g7
S'\xe8s\x8dy0\xa9\x0f@'
p331
tp332
Rp333
F2.674101067697765e-05
tp334
ag3
(g7
S'a\x85\x0c\x82a\xc3\xa9\xbc'
p335
tp336
Rp337
aI29917274250
aF1.0
aF0.05084307983154656
ag3
(g7
S'\xa3\xc3\xf2\xfd,\xa9\x0f@'
p338
tp339
Rp340
a(g333
g327
tp341
a(g327
F3.2089266664593074e-05
tp342
aa(lp343
(g333
F2.674101067697765e-05
tp344
ag3
(g7
S'\xa7\x06e\xd7[\xc3\xa9\xbc'
p345
tp346
Rp347
aI29917274251
aF1.0
aF0.050845412568770273
ag3
(g7
S'.$(\xf53\xa9\x0f@'
p348
tp349
Rp350
a(g3
(g7
S's\xd4\xc2p7\xa9\x0f@'
p351
tp352
Rp353
g333
tp354
a(g353
F2.1392772638846357e-05
tp355
aa(lp356
(g353
F2.1392772638846357e-05
tp357
ag3
(g7
S'9~\xac,V\xc3\xa9\xbc'
p358
tp359
Rp360
aI29917274251
aF1.0
aF0.05084774530939289
ag3
(g7
S'\xb8\x84]\xec:\xa9\x0f@'
p361
tp362
Rp363
a(g3
(g7
S'\xfe4\xf8g>\xa9\x0f@'
p364
tp365
Rp366
g353
tp367
a(g366
F1.604455255120147e-05
tp368
aa(lp369
(g3
(g7
S'\x88\x95-_E\xa9\x0f@'
p370
tp371
Rp372
F1.0696350415045275e-05
tp373
ag3
(g7
S'\x0c\xec\xe2\x81P\xc3\xa9\xbc'
p374
tp375
Rp376
aI29917274250
aF1.0
aF0.05085007797663706
ag3
(g7
S'C\xe5\x92\xe3A\xa9\x0f@'
p377
tp378
Rp379
a(g372
g366
tp380
a(g366
F1.604455255120147e-05
tp381
aa(lp382
(g372
F1.0696350415045275e-05
tp383
ag3
(g7
S'`\x18\xc1AL\xc3\xa9\xbc'
p384
tp385
Rp386
aI14958637125
aF1.0
aF0.05085182751290969
ag3
(g7
S'\xaa\xed\xfa\x1cG\xa9\x0f@'
p387
tp388
Rp389
a(g3
(g7
S'\xcdE\xc8\xdaH\xa9\x0f@'
p390
tp391
Rp392
g372
tp393
a(g392
F8.022256078965743e-06
tp394
aa(lp395
(g3
(g7
S'\x12\xf6bVL\xa9\x0f@'
p396
tp397
Rp398
F5.348166231022506e-06
tp399
ag3
(g7
S'\t\x88OlI\xc3\xa9\xbc'
p400
tp401
Rp402
aI14958637125
aF1.0
aF0.05085299376805434
ag3
(g7
S'\xf0\x9d\x95\x98J\xa9\x0f@'
p403
tp404
Rp405
a(g398
g392
tp406
a(g392
F8.022256078965743e-06
tp407
aa(lp408
(g3
(g7
S'W\xa6\xfd\xd1O\xa9\x0f@'
p409
tp410
Rp411
F2.6740808713185027e-06
tp412
ag3
(g7
S'E\xb5\xd9\x96F\xc3\xa9\xbc'
p413
tp414
Rp415
aI14958637125
aF1.0
aF0.050854160099976814
ag3
(g7
S'4N0\x14N\xa9\x0f@'
p416
tp417
Rp418
a(g411
g398
tp419
a(g398
F5.348166231022506e-06
tp420
aa(lp421
(g3
(g7
S'z\xfe\xca\x8fQ\xa9\x0f@'
p422
tp423
Rp424
F1.3370398744989984e-06
tp425
ag3
(g7
S'\xb2\xad\xbevD\xc3\xa9\xbc'
p426
tp427
Rp428
aI7479318563
aF1.0
aF0.05085503482292479
ag3
(g7
S'hR\xe4\xb0P\xa9\x0f@'
p429
tp430
Rp431
a(g424
g411
tp432
a(g411
F2.6740808713185027e-06
tp433
aa(lp434
(g3
(g7
S'\x8b\xaa\xb1nR\xa9\x0f@'
p435
tp436
Rp437
F6.685197969647283e-07
tp438
ag3
(g7
S'`;\xb0fC\xc3\xa9\xbc'
p439
tp440
Rp441
aI3739659281
aF1.0
aF0.05085547216300849
ag3
(g7
S'\x82T>\xffQ\xa9\x0f@'
p442
tp443
Rp444
a(g437
g424
tp445
a(g424
F1.3370398744989984e-06
tp446
aa(lp447
(F3.957678419314858
F-4.3331064642935194e-17
tp448
ag3
(g7
S'\xa3\xe9P\xb1B\xc3\xa9\xbc'
p449
tp450
Rp451
aI3739659281
aF1.0
aF0.05085576384196142
ag3
(g7
S'\x94\x00%\xdeR\xa9\x0f@'
p452
tp453
Rp454
a(F3.957678419314858
g437
tp455
a(g437
F6.685197969647283e-07
tp456
aa(lp457
(F3.957678419314858
F-4.3331064642935194e-17
tp458
ag3
(g7
S'\xd6\x18\x93\x0eB\xc3\xa9\xbc'
p459
tp460
Rp461
aI2971335180
aF1.0
aF0.05085602542086525
ag3
(g7
S'\xa2\xd3%\xa6S\xa9\x0f@'
p462
tp463
Rp464
a(g3
(g7
S'\xa8P\xb3\xfeS\xa9\x0f@'
p465
tp466
Rp467
F3.957678419314858
tp468
a(g467
F-5.31170220163039e-07
tp469
aa(lp470
(g467
F-5.31170220163039e-07
tp471
ag3
(g7
S'\xbc\xd9v~A\xc3\xa9\xbc'
p472
tp473
Rp474
aI2971335180
aF1.0
aF0.050856257224091574
ag3
(g7
S'\xae\xcd@WT\xa9\x0f@'
p475
tp476
Rp477
a(g3
(g7
S'\xb4J\xce\xafT\xa9\x0f@'
p478
tp479
Rp480
g467
tp481
a(g480
F-1.0623402631833295e-06
tp482
aa(lp483
(g480
F-1.0623402631833295e-06
tp484
ag3
(g7
S'\x06%L\xa6@\xc3\xa9\xbc'
p485
tp486
Rp487
aI5942670359
aF1.0
aF0.05085660470281151
ag3
(g7
S'\xc0D\xe9`U\xa9\x0f@'
p488
tp489
Rp490
a(g3
(g7
S'\xcb>\x04\x12V\xa9\x0f@'
p491
tp492
Rp493
g480
tp494
a(g493
F-2.1246798177436662e-06
tp495
aa(lp496
(g493
F-2.1246798177436662e-06
tp497
ag3
(g7
S'w\x8e\xf5\xf5>\xc3\xa9\xbc'
p498
tp499
Rp500
aI11885340719
aF1.0
aF0.05085729961746215
ag3
(g7
S'\xe22:tW\xa9\x0f@'
p501
tp502
Rp503
a(g3
(g7
S'\xfa&p\xd6X\xa9\x0f@'
p504
tp505
Rp506
g493
tp507
a(g506
F-4.249356801814598e-06
tp508
aa(lp509
(g506
F-4.249356801814598e-06
tp510
ag3
(g7
S'\xad\xacC\x95;\xc3\xa9\xbc'
p511
tp512
Rp513
aI23770681437
aF1.0
aF0.05085868965058475
ag3
(g7
S'(\x0f\xdc\x9a[\xa9\x0f@'
p514
tp515
Rp516
a(g3
(g7
S'W\xf7G_^\xa9\x0f@'
p517
tp518
Rp519
g506
tp520
a(g519
F-8.498702268682957e-06
tp521
aa(lp522
(g519
F-8.498702268682957e-06
tp523
ag3
(g7
S'\x07\x89M\x147\xc3\xa9\xbc'
p524
tp525
Rp526
aI23770681437
aF1.0
aF0.05086054304264583
ag3
(g7
S'\x86\xdf\xb3#a\xa9\x0f@'
p527
tp528
Rp529
a(g3
(g7
S'\xb4\xc7\x1f\xe8c\xa9\x0f@'
p530
tp531
Rp532
g519
tp533
a(g532
F-1.2748036400414105e-05
tp534
aa(lp535
(g532
F-1.2748036400414105e-05
tp536
ag3
(g7
S'\xec\xa3L\x932\xc3\xa9\xbc'
p537
tp538
Rp539
aI23770681438
aF1.0
aF0.050862396369618666
ag3
(g7
S'\xe3\xaf\x8b\xacf\xa9\x0f@'
p540
tp541
Rp542
a(g3
(g7
S'\x12\x98\xf7pi\xa9\x0f@'
p543
tp544
Rp545
g532
tp546
a(g545
F-1.699735919677375e-05
tp547
aa(lp548
(g545
F-1.699735919677375e-05
tp549
ag3
(g7
S'W\xfd@\x12.\xc3\xa9\xbc'
p550
tp551
Rp552
aI23770681438
aF1.0
aF0.05086424970087077
ag3
(g7
S'A\x80c5l\xa9\x0f@'
p553
tp554
Rp555
a(g3
(g7
S'ph\xcf\xf9n\xa9\x0f@'
p556
tp557
Rp558
g545
tp559
a(g558
F-2.1246670657170064e-05
tp560
aa(lp561
(g558
F-2.1246670657170064e-05
tp562
ag3
(g7
S'M\x95*\x91)\xc3\xa9\xbc'
p563
tp564
Rp565
aI23770681437
aF1.0
aF0.050866103036402606
ag3
(g7
S'\x9eP;\xbeq\xa9\x0f@'
p566
tp567
Rp568
a(g3
(g7
S'\xcd8\xa7\x82t\xa9\x0f@'
p569
tp570
Rp571
g558
tp572
a(g571
F-2.549597078101123e-05
tp573
aa(lp574
(g571
F-2.549597078101123e-05
tp575
ag3
(g7
S'\xd6k\t\x10%\xc3\xa9\xbc'
p576
tp577
Rp578
aI23770681437
aF1.0
aF0.050867956367654864
ag3
(g7
S'\xfc \x13Gw\xa9\x0f@'
p579
tp580
Rp581
a(g3
(g7
S'*\t\x7f\x0bz\xa9\x0f@'
p582
tp583
Rp584
g571
tp585
a(g584
F-2.974525956806296e-05
tp586
aa(lp587
(g584
F-2.974525956806296e-05
tp588
ag3
(g7
S'\xe5\x80\xdd\x8e \xc3\xa9\xbc'
p589
tp590
Rp591
aI23770681438
aF1.0
aF0.05086980981624472
ag3
(g7
S'Y\xf1\xea\xcf|\xa9\x0f@'
p592
tp593
Rp594
a(g3
(g7
S'\x88\xd9V\x94\x7f\xa9\x0f@'
p595
tp596
Rp597
g584
tp598
a(g597
F-3.399453701809095e-05
tp599
aa(lp600
(g597
F-3.399453701809095e-05
tp601
ag3
(g7
S'\xc2\x1d\x06\xcd\x19\xc3\xa9\xbc'
p602
tp603
Rp604
aI47541362875
aF1.0
aF0.05087258969364537
ag3
(g7
S'\xe6\xa9.\x1d\x85\xa9\x0f@'
p605
tp606
Rp607
a(g3
(g7
S'Cz\x06\xa6\x8a\xa9\x0f@'
p608
tp609
Rp610
g597
tp611
a(g610
F-4.249305790470851e-05
tp612
aa(lp613
(g610
F-4.249305790470851e-05
tp614
ag3
(g7
S'\x8b\xbfm\xca\x10\xc3\xa9\xbc'
p615
tp616
Rp617
aI47541362875
aF1.0
aF0.050876296295340906
ag3
(g7
S'\xa0J\xde.\x90\xa9\x0f@'
p618
tp619
Rp620
a(g3
(g7
S'\xfe\x1a\xb6\xb7\x95\xa9\x0f@'
p621
tp622
Rp623
g610
tp624
a(g623
F-5.0991533437559506e-05
tp625
aa(lp626
(g623
F-5.0991533437559506e-05
tp627
ag3
(g7
S'\xe9[\xaa\xc7\x07\xc3\xa9\xbc'
p628
tp629
Rp630
aI47541362874
aF1.0
aF0.05088000283836808
ag3
(g7
S'[\xeb\x8d@\x9b\xa9\x0f@'
p631
tp632
Rp633
a(g3
(g7
S'\xb8\xbbe\xc9\xa0\xa9\x0f@'
p634
tp635
Rp636
g623
tp637
a(g636
F-5.948996361316085e-05
tp638
aa(lp639
(g636
F-5.948996361316085e-05
tp640
ag3
(g7
S'\xe5\xf2\xbb\xc4\xfe\xc2\xa9\xbc'
p641
tp642
Rp643
aI47541362875
aF1.0
aF0.050883709377114346
ag3
(g7
S'\x16\x8c=R\xa6\xa9\x0f@'
p644
tp645
Rp646
a(g3
(g7
S's\\\x15\xdb\xab\xa9\x0f@'
p647
tp648
Rp649
g636
tp650
a(g649
F-6.798834842856573e-05
tp651
aa(lp652
(g649
F-6.798834842856573e-05
tp653
ag3
(g7
S'\xa4\x84\xa2\xc1\xf5\xc2\xa9\xbc'
p654
tp655
Rp656
aI47541362875
aF1.0
aF0.05088741579638342
ag3
(g7
S'\xd0,\xedc\xb1\xa9\x0f@'
p657
tp658
Rp659
a(g3
(g7
S'.\xfd\xc4\xec\xb6\xa9\x0f@'
p660
tp661
Rp662
g649
tp663
a(g662
F-7.648668788029111e-05
tp664
aa(lp665
(g662
F-7.648668788029111e-05
tp666
ag3
(g7
S'G\x11^\xbe\xec\xc2\xa9\xbc'
p667
tp668
Rp669
aI47541362874
aF1.0
aF0.05089112221779342
ag3
(g7
S'\x8b\xcd\x9cu\xbc\xa9\x0f@'
p670
tp671
Rp672
a(g3
(g7
S'\xe8\x9dt\xfe\xc1\xa9\x0f@'
p673
tp674
Rp675
g662
tp676
a(g675
F-8.498498196485399e-05
tp677
aa(lp678
(g675
F-8.498498196485399e-05
tp679
ag3
(g7
S'\xd3\x98\xee\xba\xe3\xc2\xa9\xbc'
p680
tp681
Rp682
aI47541362875
aF1.0
aF0.050894828756539216
ag3
(g7
S'FnL\x87\xc7\xa9\x0f@'
p683
tp684
Rp685
a(g3
(g7
S'\xa3>$\x10\xcd\xa9\x0f@'
p686
tp687
Rp688
g675
tp689
a(g688
F-9.348323067930765e-05
tp690
aa(lp691
(g688
F-9.348323067930765e-05
tp692
ag3
(g7
S'\x88\x1bT\xb7\xda\xc2\xa9\xbc'
p693
tp694
Rp695
aI47541362875
aF1.0
aF0.05089853505419065
ag3
(g7
S'\x00\x0f\xfc\x98\xd2\xa9\x0f@'
p696
tp697
Rp698
a(g3
(g7
S'^\xdf\xd3!\xd8\xa9\x0f@'
p699
tp700
Rp701
g688
tp702
a(g701
F-0.00010198143402016915
tp703
aa(lp704
(g701
F-0.00010198143402016915
tp705
ag3
(g7
S'g\x99\x8e\xb3\xd1\xc2\xa9\xbc'
p706
tp707
Rp708
aI47541362875
aF1.0
aF0.050902241473459724
ag3
(g7
S'\xbc\xaf\xab\xaa\xdd\xa9\x0f@'
p709
tp710
Rp711
a(g3
(g7
S'\x19\x80\x833\xe3\xa9\x0f@'
p712
tp713
Rp714
g701
tp715
a(g714
F-0.00011047959198413436
tp716
aa(lp717
(g714
F-0.00011047959198413436
tp718
ag3
(g7
S'\x94\x12\x9e\xaf\xc8\xc2\xa9\xbc'
p719
tp720
Rp721
aI47541362875
aF1.0
aF0.050905947771111154
ag3
(g7
S'vP[\xbc\xe8\xa9\x0f@'
p722
tp723
Rp724
a(g3
(g7
S'\xd4 3E\xee\xa9\x0f@'
p725
tp726
Rp727
g714
tp728
a(g727
F-0.00011897770456789914
tp729
aa(lp730
(g727
F-0.00011897770456789914
tp731
ag3
(g7
S'1\x87\x82\xab\xbf\xc2\xa9\xbc'
p732
tp733
Rp734
aI47541362875
aF1.0
aF0.05090965370390966
ag3
(g7
S'2\xf1\n\xce\xf3\xa9\x0f@'
p735
tp736
Rp737
a(g3
(g7
S'\x8f\xc1\xe2V\xf9\xa9\x0f@'
p738
tp739
Rp740
g727
tp741
a(g740
F-0.0001274757717681594
tp742
aa(lp743
(g740
F-0.0001274757717681594
tp744
ag3
(g7
S'>\xf7;\xa7\xb6\xc2\xa9\xbc'
p745
tp746
Rp747
aI47541362875
aF1.0
aF0.050913360123178736
ag3
(g7
S'\xec\x91\xba\xdf\xfe\xa9\x0f@'
p748
tp749
Rp750
a(F3.9580162210152467
g740
tp751
a(F3.9580162210152467
F-0.0001359737935816111
tp752
aa(lp753
(F3.9580162210152467
F-0.0001359737935816111
tp754
ag3
(g7
S'd\xa4w\xf8\xaa\xc2\xa9\xbc'
p755
tp756
Rp757
aI75643877972
aF1.0
aF0.05091816173923855
ag3
(g7
S't_\xef6\r\xaa\x0f@'
p758
tp759
Rp760
a(g3
(g7
S'\x9e\\L\x05\x16\xaa\x0f@'
p761
tp762
Rp763
F3.9580162210152467
tp764
a(g763
F-0.00014949504829209694
tp765
aa(lp766
(g763
F-0.00014949504829209694
tp767
ag3
(g7
S':\xa2\t\x9f\x9c\xc2\xa9\xbc'
p768
tp769
Rp770
aI75643877973
aF1.0
aF0.050924058598220884
ag3
(g7
S'\xc8Y\xa9\xd3\x1e\xaa\x0f@'
p771
tp772
Rp773
a(g3
(g7
S"\xf3V\x06\xa2'\xaa\x0f@"
p774
tp775
Rp776
g763
tp777
a(g776
F-0.00016301618807740176
tp778
aa(lp779
(g776
F-0.00016301618807740176
tp780
ag3
(g7
S'S\xb9.E\x8e\xc2\xa9\xbc'
p781
tp782
Rp783
aI75643877973
aF1.0
aF0.05092995536247185
ag3
(g7
S'\x1eTcp0\xaa\x0f@'
p784
tp785
Rp786
a(g3
(g7
S'HQ\xc0>9\xaa\x0f@'
p787
tp788
Rp789
g776
tp790
a(g789
F-0.00017653721292403804
tp791
aa(lp792
(g789
F-0.00017653721292403804
tp793
ag3
(g7
S'\x1f\xea\xe6\xea\x7f\xc2\xa9\xbc'
p794
tp795
Rp796
aI75643877972
aF1.0
aF0.050935852128069545
ag3
(g7
S'rN\x1d\rB\xaa\x0f@'
p797
tp798
Rp799
a(g3
(g7
S'\x9cKz\xdbJ\xaa\x0f@'
p800
tp801
Rp802
g789
tp803
a(g802
F-0.00019005812281851851
tp804
aa(lp805
(g802
F-0.00019005812281851851
tp806
ag3
(g7
S'"52\x90q\xc2\xa9\xbc'
p807
tp808
Rp809
aI75643877972
aF1.0
aF0.050941748700165414
ag3
(g7
S'\xc6H\xd7\xa9S\xaa\x0f@'
p810
tp811
Rp812
a(g3
(g7
S'\xf0E4x\\\xaa\x0f@'
p813
tp814
Rp815
g802
tp816
a(g815
F-0.00020357891774771362
tp817
aa(lp818
(g815
F-0.00020357891774771362
tp819
ag3
(g7
S'\xab\x9a\x105c\xc2\xa9\xbc'
p820
tp821
Rp822
aI75643877972
aF1.0
aF0.050947645176183665
ag3
(g7
S'\x1aC\x91Fe\xaa\x0f@'
p823
tp824
Rp825
a(g3
(g7
S'D@\xee\x14n\xaa\x0f@'
p826
tp827
Rp828
g815
tp829
a(g828
F-0.00021709959769831521
tp830
aa(lp831
(g828
F-0.00021709959769831521
tp832
ag3
(g7
S'M\x1b\x82\xd9T\xc2\xa9\xbc'
p833
tp834
Rp835
aI75643877972
aF1.0
aF0.05095354155612429
ag3
(g7
S'n=K\xe3v\xaa\x0f@'
p836
tp837
Rp838
a(g3
(g7
S'\x98:\xa8\xb1\x7f\xaa\x0f@'
p839
tp840
Rp841
g828
tp842
a(g841
F-0.00023062016265701542
tp843
aa(lp844
(g841
F-0.00023062016265701542
tp845
ag3
(g7
S'h\xb7\x86}F\xc2\xa9\xbc'
p846
tp847
Rp848
aI75643877973
aF1.0
aF0.050959437934717564
ag3
(g7
S'\xc27\x05\x80\x88\xaa\x0f@'
p849
tp850
Rp851
a(F3.9582849620552367
g841
tp852
a(F3.9582849620552367
F-0.00024414061261068527
tp853
aa.