(lp0
(lp1
(F0.7745152762047034
F-0.00024414062492429228
tp2
acnumpy.core.multiarray
scalar
p3
(cnumpy
dtype
p4
(S'f8'
p5
I0
I1
tp6
Rp7
(I3
S'<'
p8
NNNI-1
I-1
I0
tp9
bS'\x8a\x9c\xe5\xb2\x1f\xfe\xb7<'
p10
tp11
Rp12
aI45820206264
aF1.0
aF5.808883649377779
ag3
(g7
S'"\x15>\x98\xd9\xc8\xe8?'
p13
tp14
Rp15
a(g3
(g7
S'~\x83\xca\xed\xde\xc8\xe8?'
p16
tp17
Rp18
F0.7745152762047034
tp19
a(g18
F-0.000228884090797334
tp20
aa(lp21
(g18
F-0.000228884090797334
tp22
ag3
(g7
S'zT<\xaf>\xfe\xb7<'
p23
tp24
Rp25
aI45820206264
aF1.0
aF5.808921800154103
ag3
(g7
S'\xda\xf1VC\xe4\xc8\xe8?'
p26
tp27
Rp28
a(g3
(g7
S'6`\xe3\x98\xe9\xc8\xe8?'
p29
tp30
Rp31
g18
tp32
a(g31
F-0.00021362725602215438
tp33
aa(lp34
(g31
F-0.00021362725602215438
tp35
ag3
(g7
S'\xe8b\xa0\xab]\xfe\xb7<'
p36
tp37
Rp38
aI45820206264
aF1.0
aF5.8089599551200575
ag3
(g7
S'\x92\xceo\xee\xee\xc8\xe8?'
p39
tp40
Rp41
a(g3
(g7
S'\xee<\xfcC\xf4\xc8\xe8?'
p42
tp43
Rp44
g31
tp45
a(g44
F-0.0001983701205967787
tp46
aa(lp47
(g44
F-0.0001983701205967787
tp48
ag3
(g7
S'\xa5\xc7\x11\xa8|\xfe\xb7<'
p49
tp50
Rp51
aI45820206264
aF1.0
aF5.808998110086012
ag3
(g7
S'J\xab\x88\x99\xf9\xc8\xe8?'
p52
tp53
Rp54
a(g3
(g7
S'\xa6\x19\x15\xef\xfe\xc8\xe8?'
p55
tp56
Rp57
g44
tp58
a(g57
F-0.00018311268451923234
tp59
aa(lp60
(g57
F-0.00018311268451923234
tp61
ag3
(g7
S'\xe0\x82\x90\xa4\x9b\xfe\xb7<'
p62
tp63
Rp64
aI45820206264
aF1.0
aF5.809036260862337
ag3
(g7
S'\x02\x88\xa1D\x04\xc9\xe8?'
p65
tp66
Rp67
a(g3
(g7
S'^\xf6-\x9a\t\xc9\xe8?'
p68
tp69
Rp70
g57
tp71
a(g70
F-0.0001678549477875406
tp72
aa(lp73
(g70
F-0.0001678549477875406
tp74
ag3
(g7
S'u\x94\x1c\xa1\xba\xfe\xb7<'
p75
tp76
Rp77
aI45820206264
aF1.0
aF5.809074411638661
ag3
(g7
S'\xbad\xba\xef\x0e\xc9\xe8?'
p78
tp79
Rp80
a(g3
(g7
S'\x16\xd3FE\x14\xc9\xe8?'
p81
tp82
Rp83
g70
tp84
a(g83
F-0.00015259691039972887
tp85
aa(lp86
(g83
F-0.00015259691039972887
tp87
ag3
(g7
S'|\xfc\xb5\x9d\xd9\xfe\xb7<'
p88
tp89
Rp90
aI45820206264
aF1.0
aF5.809112570794246
ag3
(g7
S'rA\xd3\x9a\x19\xc9\xe8?'
p91
tp92
Rp93
a(g3
(g7
S'\xce\xaf_\xf0\x1e\xc9\xe8?'
p94
tp95
Rp96
g83
tp97
a(g96
F-0.00013733857235382244
tp98
aa(lp99
(g96
F-0.00013733857235382244
tp100
ag3
(g7
S'\xde\xba\\\x9a\xf8\xfe\xb7<'
p101
tp102
Rp103
aI45820206265
aF1.0
aF5.809150721317008
ag3
(g7
S'*\x1e\xecE$\xc9\xe8?'
p104
tp105
Rp106
a(g3
(g7
S'\x87\x8cx\x9b)\xc9\xe8?'
p107
tp108
Rp109
g96
tp110
a(g109
F-0.00012207993364751367
tp111
aa(lp112
(g3
(g7
S'@i\x91F4\xc9\xe8?'
p113
tp114
Rp115
F-0.00010682099427916085
tp116
ag3
(g7
S'\xc1\xcf\x10\x97\x17\xff\xb7<'
p117
tp118
Rp119
aI45820206265
aF1.0
aF5.80918887209333
ag3
(g7
S'\xe4\xfa\x04\xf1.\xc9\xe8?'
p120
tp121
Rp122
a(g115
g109
tp123
a(g109
F-0.00012207993364751367
tp124
aa(lp125
(g115
F-0.00010682099427916085
tp126
ag3
(g7
S'\xf7:\xd2\x936\xff\xb7<'
p127
tp128
Rp129
aI45820206264
aF1.0
aF5.809227025218035
ag3
(g7
S'\x9c\xd7\x1d\x9c9\xc9\xe8?'
p130
tp131
Rp132
a(g3
(g7
S'\xf8E\xaa\xf1>\xc9\xe8?'
p133
tp134
Rp135
g115
tp136
a(g135
F-9.156175424712239e-05
tp137
aa(lp138
(g135
F-9.156175424712239e-05
tp139
ag3
(g7
S'\xa3\xfc\xa0\x90U\xff\xb7<'
p140
tp141
Rp142
aI45820206264
aF1.0
aF5.809265178089174
ag3
(g7
S'T\xb46GD\xc9\xe8?'
p143
tp144
Rp145
a(g3
(g7
S'\xb0"\xc3\x9cI\xc9\xe8?'
p146
tp147
Rp148
g135
tp149
a(g148
F-7.630221354909058e-05
tp150
aa(lp151
(g148
F-7.630221354909058e-05
tp152
ag3
(g7
S'\xaf\x14}\x8dt\xff\xb7<'
p153
tp154
Rp155
aI45820206264
aF1.0
aF5.809303328865498
ag3
(g7
S'\x0c\x91O\xf2N\xc9\xe8?'
p156
tp157
Rp158
a(g3
(g7
S'h\xff\xdbGT\xc9\xe8?'
p159
tp160
Rp161
g148
tp162
a(g161
F-6.104237218309077e-05
tp163
aa(lp164
(g3
(g7
S' \xdc\xf4\xf2^\xc9\xe8?'
p165
tp166
Rp167
F-4.57822301471483e-05
tp168
ag3
(g7
S'+\x83f\x8a\x93\xff\xb7<'
p169
tp170
Rp171
aI45820206264
aF1.0
aF5.809341483831453
ag3
(g7
S'\xc4mh\x9dY\xc9\xe8?'
p172
tp173
Rp174
a(g167
g161
tp175
a(g161
F-6.104237218309077e-05
tp176
aa(lp177
(g167
F-4.57822301471483e-05
tp178
ag3
(g7
S'\tH]\x87\xb2\xff\xb7<'
p179
tp180
Rp181
aI45820206264
aF1.0
aF5.809379636702593
ag3
(g7
S'|J\x81Hd\xc9\xe8?'
p182
tp183
Rp184
a(g3
(g7
S'\xd8\xb8\r\x9ei\xc9\xe8?'
p185
tp186
Rp187
g167
tp188
a(g187
F-3.05217874392885e-05
tp189
aa(lp190
(g3
(g7
S"4'\x9a\xf3n\xc9\xe8?"
p191
tp192
Rp193
F-2.2891453332772524e-05
tp194
ag3
(g7
S'\xb0\xb1\x1e\xc5\xc9\xff\xb7<'
p195
tp196
Rp197
aI22910103132
aF1.0
aF5.809408253974467
ag3
(g7
S'\x06\xf0\xd3Hl\xc9\xe8?'
p198
tp199
Rp200
a(g193
g187
tp201
a(g187
F-3.05217874392885e-05
tp202
aa(lp203
(g193
F-2.2891453332772524e-05
tp204
ag3
(g7
S'\xf2\x14\xa4C\xd9\xff\xb7<'
p205
tp206
Rp207
aI22910103132
aF1.0
aF5.809427329362629
ag3
(g7
S'b^`\x9eq\xc9\xe8?'
p208
tp209
Rp210
a(g3
(g7
S'\x90\x95&It\xc9\xe8?'
p211
tp212
Rp213
g193
tp214
a(g213
F-1.5261044057536714e-05
tp215
aa(lp216
(g3
(g7
S'\xec\x03\xb3\x9ey\xc9\xe8?'
p217
tp218
Rp219
F-7.630559613334242e-06
tp220
ag3
(g7
S'\xcb\xcd,\xc2\xe8\xff\xb7<'
p221
tp222
Rp223
aI22910103132
aF1.0
aF5.809446404750791
ag3
(g7
S'\xbe\xcc\xec\xf3v\xc9\xe8?'
p224
tp225
Rp226
a(g219
g213
tp227
a(g213
F-1.5261044057536714e-05
tp228
aa(lp229
(g3
(g7
S'\x1a;yI|\xc9\xe8?'
p230
tp231
Rp232
F-3.815289202793372e-06
tp233
ag3
(g7
S'\xeem\x15a\xf4\xff\xb7<'
p234
tp235
Rp236
aI11455051566
aF1.0
aF5.8094607123393205
ag3
(g7
S'\x83\x1f\x16\xf4z\xc9\xe8?'
p237
tp238
Rp239
a(g232
g219
tp240
a(g219
F-7.630559613334242e-06
tp241
aa(lp242
(g3
(g7
S'\xb1V\xdc\x9e}\xc9\xe8?'
p243
tp244
Rp245
F-1.9076469503995298e-06
tp246
ag3
(g7
S'\xb9x\x8a0\xfa\xff\xb7<'
p247
tp248
Rp249
aI5727525783
aF1.0
aF5.8094678682284
ag3
(g7
S'\xe6\xc8*\xf4|\xc9\xe8?'
p250
tp251
Rp252
a(g245
g232
tp253
a(g232
F-3.815289202793372e-06
tp254
aa(lp255
(F0.7745966692414834
F8.17261852047821e-17
tp256
ag3
(g7
S'b\x1c.\x10\xfe\xff\xb7<'
p257
tp258
Rp259
aI5727525783
aF1.0
aF5.809472636028033
ag3
(g7
S'|\xe4\x8dI~\xc9\xe8?'
p260
tp261
Rp262
a(F0.7745966692414834
g245
tp263
a(g245
F-1.9076469503995298e-06
tp264
aa(lp265
(F0.7745966692414834
F8.17261852047821e-17
tp266
ag3
(g7
S'h\xf5\xa9\xef\x01\x00\xb8<'
p267
tp268
Rp269
aI5725720844
aF1.0
aF5.809477402708859
ag3
(g7
S'\xce:\xe3\x9e\x7f\xc9\xe8?'
p270
tp271
Rp272
a(g3
(g7
S'T\x03\x87I\x80\xc9\xe8?'
p273
tp274
Rp275
F0.7745966692414834
tp276
a(g275
F1.9070504817232033e-06
tp277
aa(lp278
(g275
F1.9070504817232033e-06
tp279
ag3
(g7
S'\xc2\x03\xfe\xce\x05\x00\xb8<'
p280
tp281
Rp282
aI5725720843
aF1.0
aF5.809482171351892
ag3
(g7
S'\xda\xcb*\xf4\x80\xc9\xe8?'
p283
tp284
Rp285
a(g3
(g7
S'_\x94\xce\x9e\x81\xc9\xe8?'
p286
tp287
Rp288
g275
tp289
a(g288
F3.8141056581661443e-06
tp290
aa(lp291
(g288
F3.8141056581661443e-06
tp292
ag3
(g7
S'\xe8\x83\xfc\x9d\x0b\x00\xb8<'
p293
tp294
Rp295
aI11451441687
aF1.0
aF5.809489322354063
ag3
(g7
S'j%\x16\xf4\x82\xc9\xe8?'
p296
tp297
Rp298
a(g3
(g7
S'v\xb6]I\x84\xc9\xe8?'
p299
tp300
Rp301
g288
tp302
a(g301
F7.6282300968041e-06
tp303
aa(lp304
(g301
F7.6282300968041e-06
tp305
ag3
(g7
S'o\xf9\xfa;\x17\x00\xb8<'
p306
tp307
Rp308
aI22902883374
aF1.0
aF5.809503625339593
ag3
(g7
S'\x8d\xd8\xec\xf3\x86\xc9\xe8?'
p309
tp310
Rp311
a(g3
(g7
S'\xa4\xfa{\x9e\x89\xc9\xe8?'
p312
tp313
Rp314
g301
tp315
a(g314
F1.5256535315863927e-05
tp316
aa(lp317
(g314
F1.5256535315863927e-05
tp318
ag3
(g7
S'\xae\x07Q\xb9&\x00\xb8<'
p319
tp320
Rp321
aI22902883374
aF1.0
aF5.809522694938899
ag3
(g7
S'\xbb\x1c\x0bI\x8c\xc9\xe8?'
p322
tp323
Rp324
a(g3
(g7
S'\xd2>\x9a\xf3\x8e\xc9\xe8?'
p325
tp326
Rp327
g314
tp328
a(g327
F2.2884915657507803e-05
tp329
aa(lp330
(g327
F2.2884915657507803e-05
tp331
ag3
(g7
S'\x01k\xaa66\x00\xb8<'
p332
tp333
Rp334
aI22902883375
aF1.0
aF5.809541767175088
ag3
(g7
S'\xea`)\x9e\x91\xc9\xe8?'
p335
tp336
Rp337
a(g3
(g7
S'\x01\x83\xb8H\x94\xc9\xe8?'
p338
tp339
Rp340
g327
tp341
a(g340
F3.0513371122315412e-05
tp342
aa(lp343
(g340
F3.0513371122315412e-05
tp344
ag3
(g7
S' *\xb7rM\x00\xb8<'
p345
tp346
Rp347
aI45805766749
aF1.0
aF5.809570371303671
ag3
(g7
S'0\xc7\xd6\x9d\x99\xc9\xe8?'
p348
tp349
Rp350
a(g3
(g7
S'^\x0b\xf5\xf2\x9e\xc9\xe8?'
p351
tp352
Rp353
g340
tp354
a(g353
F4.577050742107592e-05
tp355
aa(lp356
(g353
F4.577050742107592e-05
tp357
ag3
(g7
S'$\xef}ml\x00\xb8<'
p358
tp359
Rp360
aI45805766748
aF1.0
aF5.809608512852081
ag3
(g7
S'\x8cO\x13H\xa4\xc9\xe8?'
p361
tp362
Rp363
a(g3
(g7
S'\xba\x931\x9d\xa9\xc9\xe8?'
p364
tp365
Rp366
g353
tp367
a(g366
F6.102794421378514e-05
tp368
aa(lp369
(g366
F6.102794421378514e-05
tp370
ag3
(g7
S'n\x08Rh\x8b\x00\xb8<'
p371
tp372
Rp373
aI45805766748
aF1.0
aF5.809646654146828
ag3
(g7
S'\xe8\xd7O\xf2\xae\xc9\xe8?'
p374
tp375
Rp376
a(g3
(g7
S'\x16\x1cnG\xb4\xc9\xe8?'
p377
tp378
Rp379
g366
tp380
a(g379
F7.628568150274896e-05
tp381
aa(lp382
(g379
F7.628568150274896e-05
tp383
ag3
(g7
S'\xf8u3c\xaa\x00\xb8<'
p384
tp385
Rp386
aI45805766748
aF1.0
aF5.80968479334544
ag3
(g7
S'D`\x8c\x9c\xb9\xc9\xe8?'
p387
tp388
Rp389
a(g3
(g7
S'r\xa4\xaa\xf1\xbe\xc9\xe8?'
p390
tp391
Rp392
g379
tp393
a(g392
F9.154371928994018e-05
tp394
aa(lp395
(g392
F9.154371928994018e-05
tp396
ag3
(g7
S'\xc27"^\xc9\x00\xb8<'
p397
tp398
Rp399
aI45805766748
aF1.0
aF5.809722934640187
ag3
(g7
S'\xa0\xe8\xc8F\xc4\xc9\xe8?'
p400
tp401
Rp402
a(g3
(g7
S'\xce,\xe7\x9b\xc9\xc9\xe8?'
p403
tp404
Rp405
g392
tp406
a(g405
F0.00010680205757733159
tp407
aa(lp408
(g405
F0.00010680205757733159
tp409
ag3
(g7
S'\xd2M\x1eY\xe8\x00\xb8<'
p410
tp411
Rp412
aI45805766749
aF1.0
aF5.809761075681266
ag3
(g7
S'\xfcp\x05\xf1\xce\xc9\xe8?'
p413
tp414
Rp415
a(g3
(g7
S'+\xb5#F\xd4\xc9\xe8?'
p416
tp417
Rp418
g405
tp419
a(g418
F0.0001220606963672291
tp420
aa(lp421
(g418
F0.0001220606963672291
tp422
ag3
(g7
S"'\xb8'T\x07\x01\xb8<"
p423
tp424
Rp425
aI45805766749
aF1.0
aF5.809799219072148
ag3
(g7
S'Z\xf9A\x9b\xd9\xc9\xe8?'
p426
tp427
Rp428
a(g3
(g7
S'\x88=`\xf0\xde\xc9\xe8?'
p429
tp430
Rp431
g418
tp432
a(g431
F0.00013731963566127243
tp433
aa(lp434
(g431
F0.00013731963566127243
tp435
ag3
(g7
S'\xb7v>O&\x01\xb8<'
p436
tp437
Rp438
aI45805766748
aF1.0
aF5.809837356428295
ag3
(g7
S'\xb6\x81~E\xe4\xc9\xe8?'
p439
tp440
Rp441
a(g3
(g7
S'\xe4\xc5\x9c\x9a\xe9\xc9\xe8?'
p442
tp443
Rp444
g431
tp445
a(g444
F0.0001525788754611012
tp446
aa(lp447
(g444
F0.0001525788754611012
tp448
ag3
(g7
S'\x90\x89bJE\x01\xb8<'
p449
tp450
Rp451
aI45805766748
aF1.0
aF5.8098755019153145
ag3
(g7
S'\x12\n\xbb\xef\xee\xc9\xe8?'
p452
tp453
Rp454
a(g3
(g7
S'@N\xd9D\xf4\xc9\xe8?'
p455
tp456
Rp457
g444
tp458
a(g457
F0.00016783841576902139
tp459
aa(lp460
(g457
F0.00016783841576902139
tp461
ag3
(g7
S'\x9b\xf0\x93Ed\x01\xb8<'
p462
tp463
Rp464
aI45805766748
aF1.0
aF5.809913643210062
ag3
(g7
S'n\x92\xf7\x99\xf9\xc9\xe8?'
p465
tp466
Rp467
a(g3
(g7
S'\x9c\xd6\x15\xef\xfe\xc9\xe8?'
p468
tp469
Rp470
g457
tp471
a(g470
F0.0001830982565870057
tp472
aa(lp473
(g470
F0.0001830982565870057
tp474
ag3
(g7
S'\xfb\xab\xd2@\x83\x01\xb8<'
p475
tp476
Rp477
aI45805766748
aF1.0
aF5.809951780312537
ag3
(g7
S'\xca\x1a4D\x04\xca\xe8?'
p478
tp479
Rp480
a(g3
(g7
S'\xf8^R\x99\t\xca\xe8?'
p481
tp482
Rp483
g470
tp484
a(g483
F0.00019835839791702703
tp485
aa(lp486
(g483
F0.00019835839791702703
tp487
ag3
(g7
S'\x96\xbb\x1e<\xa2\x01\xb8<'
p488
tp489
Rp490
aI45805766749
aF1.0
aF5.809989925545877
ag3
(g7
S'&\xa3p\xee\x0e\xca\xe8?'
p491
tp492
Rp493
a(g3
(g7
S'U\xe7\x8eC\x14\xca\xe8?'
p494
tp495
Rp496
g483
tp497
a(g496
F0.00021361883976139128
tp498
aa(lp499
(g496
F0.00021361883976139128
tp500
ag3
(g7
S'n\x1fx7\xc1\x01\xb8<'
p501
tp502
Rp503
aI45805766749
aF1.0
aF5.810028062648351
ag3
(g7
S'\x84+\xad\x98\x19\xca\xe8?'
p504
tp505
Rp506
a(g3
(g7
S'\xb2o\xcb\xed\x1e\xca\xe8?'
p507
tp508
Rp509
g496
tp510
a(g509
F0.0002288795821217381
tp511
aa(lp512
(g509
F0.0002288795821217381
tp513
ag3
(g7
S'\x8e\xd7\xde2\xe0\x01\xb8<'
p514
tp515
Rp516
aI45805766748
aF1.0
aF5.810066200004508
ag3
(g7
S'\xe0\xb3\xe9B$\xca\xe8?'
p517
tp518
Rp519
a(F0.7746780366285309
g509
tp520
a(F0.7746780366285309
F0.00024414062499970713
tp521
aa.