(lp0
(lp1
(F-3.9999999999999996
F3.545524518541676e-18
tp2
acnumpy.core.multiarray
scalar
p3
(cnumpy
dtype
p4
(S'f8'
p5
I0
I1
tp6
Rp7
(I3
S'<'
p8
NNNI-1
I-1
I0
tp9
bS'\xb3\xaee\xc3\xd1YP<'
p10
tp11
Rp12
aI4267167139
aF1.0
aF0.0028687028162817964
ag3
(g7
S'.\x19\xd4\x80\xff\xff\x0f\xc0'
p13
tp14
Rp15
a(g3
(g7
S'\\2\xa8\x01\xff\xff\x0f\xc0'
p16
tp17
Rp18
F-3.9999999999999996
tp19
a(g18
F1.5129356021206357e-08
tp20
aa(lp21
(g18
F1.5129356021206357e-08
tp22
ag3
(g7
S"\xee'\xf88\xd3YP<"
p23
tp24
Rp25
aI4267167140
aF1.0
aF0.002868692606004374
ag3
(g7
S'\x8aK|\x82\xfe\xff\x0f\xc0'
p26
tp27
Rp28
a(g3
(g7
S'\xb8dP\x03\xfe\xff\x0f\xc0'
p29
tp30
Rp31
g18
tp32
a(g31
F3.0258732645605826e-08
tp33
aa(lp34
(g31
F3.0258732645605826e-08
tp35
ag3
(g7
S'\x7f/Si\xd5YP<'
p36
tp37
Rp38
aI8534334280
aF1.0
aF0.00286867729260506
ag3
(g7
S'\x14\x97\xf8\x04\xfd\xff\x0f\xc0'
p39
tp40
Rp41
a(g3
(g7
S'p\xc9\xa0\x06\xfc\xff\x0f\xc0'
p42
tp43
Rp44
g31
tp45
a(g44
F6.051754770369076e-08
tp46
aa(lp47
(g44
F6.051754770369076e-08
tp48
ag3
(g7
S'\xa6\xdc\x06\xca\xd9YP<'
p49
tp50
Rp51
aI17068668558
aF1.0
aF0.00286864666095039
ag3
(g7
S').\xf1\t\xfa\xff\x0f\xc0'
p52
tp53
Rp54
a(g3
(g7
S'\xe2\x92A\r\xf8\xff\x0f\xc0'
p55
tp56
Rp57
g44
tp58
a(g57
F1.2103542504786022e-07
tp59
aa(lp60
(g57
F1.2103542504786022e-07
tp61
ag3
(g7
S'\xad9G\xa0\xdfYP<'
p62
tp63
Rp64
aI17068668559
aF1.0
aF0.0028686058175116814
ag3
(g7
S'\x9a\xf7\x91\x10\xf6\xff\x0f\xc0'
p65
tp66
Rp67
a(g3
(g7
S'S\\\xe2\x13\xf4\xff\x0f\xc0'
p68
tp69
Rp70
g57
tp71
a(g70
F1.815536320384518e-07
tp72
aa(lp73
(g70
F1.815536320384518e-07
tp74
ag3
(g7
S't$\x82v\xe5YP<'
p75
tp76
Rp77
aI17068668559
aF1.0
aF0.0028685649762518702
ag3
(g7
S'\x0c\xc12\x17\xf2\xff\x0f\xc0'
p78
tp79
Rp80
a(g3
(g7
S'\xc4%\x83\x1a\xf0\xff\x0f\xc0'
p81
tp82
Rp83
g70
tp84
a(g83
F2.420721686672266e-07
tp85
aa(lp86
(g83
F2.420721686672266e-07
tp87
ag3
(g7
S'\xf6\x9c\xb7L\xebYP<'
p88
tp89
Rp90
aI17068668559
aF1.0
aF0.002868524133149292
ag3
(g7
S'|\x8a\xd3\x1d\xee\xff\x0f\xc0'
p91
tp92
Rp93
a(g3
(g7
S'5\xef#!\xec\xff\x0f\xc0'
p94
tp95
Rp96
g83
tp97
a(g96
F3.025910349294913e-07
tp98
aa(lp99
(g96
F3.025910349294913e-07
tp100
ag3
(g7
S'8\xa3\xe7"\xf1YP<'
p101
tp102
Rp103
aI17068668559
aF1.0
aF0.0028684832900467134
ag3
(g7
S'\xeeSt$\xea\xff\x0f\xc0'
p104
tp105
Rp106
a(g3
(g7
S"\xa6\xb8\xc4'\xe8\xff\x0f\xc0"
p107
tp108
Rp109
g96
tp110
a(g109
F3.631102308205525e-07
tp111
aa(lp112
(g109
F3.631102308205525e-07
tp113
ag3
(g7
S'(7\x12\xf9\xf6YP<'
p114
tp115
Rp116
aI17068668559
aF1.0
aF0.0028684424469441346
ag3
(g7
S'^\x1d\x15+\xe6\xff\x0f\xc0'
p117
tp118
Rp119
a(g3
(g7
S'\x17\x82e.\xe4\xff\x0f\xc0'
p120
tp121
Rp122
g109
tp123
a(g122
F4.2362975633571664e-07
tp124
aa(lp125
(g122
F4.2362975633571664e-07
tp126
ag3
(g7
S'\xceX7\xcf\xfcYP<'
p127
tp128
Rp129
aI17068668559
aF1.0
aF0.002868401600156021
ag3
(g7
S'\xd0\xe6\xb51\xe2\xff\x0f\xc0'
p130
tp131
Rp132
a(g3
(g7
S'\x88K\x065\xe0\xff\x0f\xc0'
p133
tp134
Rp135
g122
tp136
a(g135
F4.841496114702903e-07
tp137
aa(lp138
(g135
F4.841496114702903e-07
tp139
ag3
(g7
S'\xa1&d\x90\x05ZP<'
p140
tp141
Rp142
aI34137337118
aF1.0
aF0.002868340335502153
ag3
(g7
S'\xf9\x14\xa7;\xdc\xff\x0f\xc0'
p143
tp144
Rp145
a(g3
(g7
S'j\xdeGB\xd8\xff\x0f\xc0'
p146
tp147
Rp148
g135
tp149
a(g148
F6.051903105788918e-07
tp150
aa(lp151
(g148
F6.051903105788918e-07
tp152
ag3
(g7
S'\xdd\xbb\x8d<\x11ZP<'
p153
tp154
Rp155
aI34137337118
aF1.0
aF0.0028682586456114604
ag3
(g7
S'\xdb\xa7\xe8H\xd4\xff\x0f\xc0'
p156
tp157
Rp158
a(g3
(g7
S'Lq\x89O\xd0\xff\x0f\xc0'
p159
tp160
Rp161
g148
tp162
a(g161
F7.262323281088076e-07
tp163
aa(lp164
(g161
F7.262323281088076e-07
tp165
ag3
(g7
S'\x97\x87\xa1\xe8\x1cZP<'
p166
tp167
Rp168
aI34137337118
aF1.0
aF0.0028681769501924647
ag3
(g7
S'\xbd:*V\xcc\xff\x0f\xc0'
p169
tp170
Rp171
a(g3
(g7
S'.\x04\xcb\\\xc8\xff\x0f\xc0'
p172
tp173
Rp174
g161
tp175
a(g174
F8.472756640224877e-07
tp176
aa(lp177
(g174
F8.472756640224877e-07
tp178
ag3
(g7
S'\xaf\x89\x9f\x94(ZP<'
p179
tp180
Rp181
aI34137337118
aF1.0
aF0.002868095254773469
ag3
(g7
S'\x9f\xcdkc\xc4\xff\x0f\xc0'
p182
tp183
Rp184
a(g3
(g7
S'\x10\x97\x0cj\xc0\xff\x0f\xc0'
p185
tp186
Rp187
g174
tp188
a(g187
F9.683203182823812e-07
tp189
aa(lp190
(g187
F9.683203182823812e-07
tp191
ag3
(g7
S'\xf8\xc1\x87@4ZP<'
p192
tp193
Rp194
aI34137337118
aF1.0
aF0.002868013557511706
ag3
(g7
S'\x81`\xadp\xbc\xff\x0f\xc0'
p195
tp196
Rp197
a(g3
(g7
S'\xf2)Nw\xb8\xff\x0f\xc0'
p198
tp199
Rp200
g187
tp201
a(g200
F1.089366290850936e-06
tp202
aa(lp203
(g200
F1.089366290850936e-06
tp204
ag3
(g7
S'c0Z\xec?ZP<'
p205
tp206
Rp207
aI34137337118
aF1.0
aF0.0028679318602499427
ag3
(g7
S'c\xf3\xee}\xb4\xff\x0f\xc0'
p208
tp209
Rp210
a(g3
(g7
S'\xd4\xbc\x8f\x84\xb0\xff\x0f\xc0'
p211
tp212
Rp213
g200
tp214
a(g213
F1.2104135816905998e-06
tp215
aa(lp216
(g213
F1.2104135816905998e-06
tp217
ag3
(g7
S'\xca\xd4\x16\x98KZP<'
p218
tp219
Rp220
aI34137337118
aF1.0
aF0.002867850155617109
ag3
(g7
S'E\x860\x8b\xac\xff\x0f\xc0'
p221
tp222
Rp223
a(g3
(g7
S'\xb6O\xd1\x91\xa8\xff\x0f\xc0'
p224
tp225
Rp226
g213
tp227
a(g226
F1.331462190763819e-06
tp228
aa(lp229
(g226
F1.331462190763819e-06
tp230
ag3
(g7
S'\x02\xaf\xbdCWZP<'
p231
tp232
Rp233
aI34137337117
aF1.0
aF0.002867768454837824
ag3
(g7
S'(\x19r\x98\xa4\xff\x0f\xc0'
p234
tp235
Rp236
a(g3
(g7
S'\x99\xe2\x12\x9f\xa0\xff\x0f\xc0'
p237
tp238
Rp239
g226
tp240
a(g239
F1.4525121180294932e-06
tp241
aa(lp242
(g239
F1.4525121180294932e-06
tp243
ag3
(g7
S'\xed\xbeN\xefbZP<'
p244
tp245
Rp246
aI34137337117
aF1.0
aF0.0028676867538905207
ag3
(g7
S'\n\xac\xb3\xa5\x9c\xff\x0f\xc0'
p247
tp248
Rp249
a(g3
(g7
S'|uT\xac\x98\xff\x0f\xc0'
p250
tp251
Rp252
g239
tp253
a(g252
F1.5735633634536129e-06
tp254
aa(lp255
(g252
F1.5735633634536129e-06
tp256
ag3
(g7
S'v\x04\xca\x9anZP<'
p257
tp258
Rp259
aI34137337118
aF1.0
aF0.0028676050454041428
ag3
(g7
S'\xed>\xf5\xb2\x94\xff\x0f\xc0'
p260
tp261
Rp262
a(g3
(g7
S'^\x08\x96\xb9\x90\xff\x0f\xc0'
p263
tp264
Rp265
g252
tp266
a(g265
F1.694615927002168e-06
tp267
aa(lp268
(g265
F1.694615927002168e-06
tp269
ag3
(g7
S'x\x7f/FzZP<'
p270
tp271
Rp272
aI34137337118
aF1.0
aF0.0028675233334002383
ag3
(g7
S'\xcf\xd16\xc0\x8c\xff\x0f\xc0'
p273
tp274
Rp275
a(g3
(g7
S'@\x9b\xd7\xc6\x88\xff\x0f\xc0'
p276
tp277
Rp278
g265
tp279
a(g278
F1.815669808634056e-06
tp280
aa(lp281
(g278
F1.815669808634056e-06
tp282
ag3
(g7
S'\xce/\x7f\xf1\x85ZP<'
p283
tp284
Rp285
aI34137337118
aF1.0
aF0.0028674416250818687
ag3
(g7
S'\xb1dx\xcd\x84\xff\x0f\xc0'
p286
tp287
Rp288
a(g3
(g7
S'".\x19\xd4\x80\xff\x0f\xc0'
p289
tp290
Rp291
g278
tp292
a(g291
F1.936725008311719e-06
tp293
aa(lp294
(g291
F1.936725008311719e-06
tp295
ag3
(g7
S'P\x15\xb9\x9c\x91ZP<'
p296
tp297
Rp298
aI34137337118
aF1.0
aF0.002867359920449035
ag3
(g7
S'\x93\xf7\xb9\xda|\xff\x0f\xc0'
p299
tp300
Rp301
a(g3
(g7
S'\x04\xc1Z\xe1x\xff\x0f\xc0'
p302
tp303
Rp304
g291
tp305
a(g304
F2.0577815259975975e-06
tp306
aa(lp307
(g304
F2.0577815259975975e-06
tp308
ag3
(g7
S'\xee/\xddG\x9dZP<'
p309
tp310
Rp311
aI34137337118
aF1.0
aF0.002867278204759595
ag3
(g7
S'u\x8a\xfb\xe7t\xff\x0f\xc0'
p312
tp313
Rp314
a(g3
(g7
S'\xe6S\x9c\xeep\xff\x0f\xc0'
p315
tp316
Rp317
g304
tp318
a(g317
F2.178839361654133e-06
tp319
aa(lp320
(g317
F2.178839361654133e-06
tp321
ag3
(g7
S'\x7f\x7f\xeb\xf2\xa8ZP<'
p322
tp323
Rp324
aI34137337118
aF1.0
aF0.0028671964890701553
ag3
(g7
S'W\x1d=\xf5l\xff\x0f\xc0'
p325
tp326
Rp327
a(g3
(g7
S'\xc8\xe6\xdd\xfbh\xff\x0f\xc0'
p328
tp329
Rp330
g317
tp331
a(g330
F2.2998985152437642e-06
tp332
aa(lp333
(g330
F2.2998985152437642e-06
tp334
ag3
(g7
S'\xd9\x03\xe4\x9d\xb4ZP<'
p335
tp336
Rp337
aI34137337117
aF1.0
aF0.00286711476617762
ag3
(g7
S':\xb0~\x02e\xff\x0f\xc0'
p338
tp339
Rp340
a(g3
(g7
S'\xaby\x1f\ta\xff\x0f\xc0'
p341
tp342
Rp343
g330
tp344
a(g343
F2.420958986725384e-06
tp345
aa(lp346
(g343
F2.420958986725384e-06
tp347
ag3
(g7
S'\xf2\xbc\xc6H\xc0ZP<'
p348
tp349
Rp350
aI34137337117
aF1.0
aF0.0028670330431171047
ag3
(g7
S'\x1cC\xc0\x0f]\xff\x0f\xc0'
p351
tp352
Rp353
a(g3
(g7
S'\x8e\x0ca\x16Y\xff\x0f\xc0'
p354
tp355
Rp356
g343
tp357
a(g356
F2.5420207760649767e-06
tp358
aa(lp359
(g356
F2.5420207760649767e-06
tp360
ag3
(g7
S'\xa4\xaa\x93\xf3\xcbZP<'
p361
tp362
Rp363
aI34137337118
aF1.0
aF0.002866951327259694
ag3
(g7
S'\xff\xd5\x01\x1dU\xff\x0f\xc0'
p364
tp365
Rp366
a(g3
(g7
S'p\x9f\xa2#Q\xff\x0f\xc0'
p367
tp368
Rp369
g356
tp370
a(g369
F2.6630838832285257e-06
tp371
aa(lp372
(g369
F2.6630838832285257e-06
tp373
ag3
(g7
S'\xa0\xccJ\x9e\xd7ZP<'
p374
tp375
Rp376
aI34137337118
aF1.0
aF0.002866869604199184
ag3
(g7
S'\xe1hC*M\xff\x0f\xc0'
p377
tp378
Rp379
a(g3
(g7
S'R2\xe40I\xff\x0f\xc0'
p380
tp381
Rp382
g369
tp383
a(g382
F2.78414830817492e-06
tp384
aa(lp385
(g382
F2.78414830817492e-06
tp386
ag3
(g7
S'\x1f#\xecH\xe3ZP<'
p387
tp388
Rp389
aI34137337118
aF1.0
aF0.0028667878811386733
ag3
(g7
S'\xc3\xfb\x847E\xff\x0f\xc0'
p390
tp391
Rp392
a(g3
(g7
S'4\xc5%>A\xff\x0f\xc0'
p393
tp394
Rp395
g382
tp396
a(g395
F2.905214050866596e-06
tp397
aa(lp398
(g395
F2.905214050866596e-06
tp399
ag3
(g7
S'\xa0\xadw\xf3\xeeZP<'
p400
tp401
Rp402
aI34137337118
aF1.0
aF0.002866706150707092
ag3
(g7
S'\xa5\x8e\xc6D=\xff\x0f\xc0'
p403
tp404
Rp405
a(g3
(g7
S'\x16XgK9\xff\x0f\xc0'
p406
tp407
Rp408
g395
tp409
a(g408
F3.0262811112659873e-06
tp410
aa(lp411
(g408
F3.0262811112659873e-06
tp412
ag3
(g7
S'Sl\xed\x9d\xfaZP<'
p413
tp414
Rp415
aI34137337118
aF1.0
aF0.002866624420275511
ag3
(g7
S'\x87!\x08R5\xff\x0f\xc0'
p416
tp417
Rp418
a(g3
(g7
S'\xf8\xea\xa8X1\xff\x0f\xc0'
p419
tp420
Rp421
g408
tp422
a(g421
F3.147349489335528e-06
tp423
aa(lp424
(g421
F3.147349489335528e-06
tp425
ag3
(g7
S'\xd8^MH\x06[P<'
p426
tp427
Rp428
aI34137337118
aF1.0
aF0.0028665426898439295
ag3
(g7
S'i\xb4I_-\xff\x0f\xc0'
p429
tp430
Rp431
a(g3
(g7
S'\xda}\xeae)\xff\x0f\xc0'
p432
tp433
Rp434
g421
tp435
a(g434
F3.2684191850376506e-06
tp436
aa(lp437
(g434
F3.2684191850376506e-06
tp438
ag3
(g7
S'@\x85\x97\xf2\x11[P<'
p439
tp440
Rp441
aI34137337117
aF1.0
aF0.0028664609522092146
ag3
(g7
S'LG\x8bl%\xff\x0f\xc0'
p442
tp443
Rp444
a(g3
(g7
S'\xbd\x10,s!\xff\x0f\xc0'
p445
tp446
Rp447
g434
tp448
a(g447
F3.3894901983312404e-06
tp449
aa(lp450
(g447
F3.3894901983312404e-06
tp451
ag3
(g7
S'I\xdf\xcb\x9c\x1d[P<'
p452
tp453
Rp454
aI34137337117
aF1.0
aF0.002866379229148699
ag3
(g7
S'.\xda\xccy\x1d\xff\x0f\xc0'
p455
tp456
Rp457
a(g3
(g7
S'\xa0\xa3m\x80\x19\xff\x0f\xc0'
p458
tp459
Rp460
g447
tp461
a(g460
F3.510562529182275e-06
tp462
aa(lp463
(g460
F3.510562529182275e-06
tp464
ag3
(g7
S'\xdel\xeaF)[P<'
p465
tp466
Rp467
aI34137337118
aF1.0
aF0.0028662974911781154
ag3
(g7
S'\x11m\x0e\x87\x15\xff\x0f\xc0'
p468
tp469
Rp470
a(g3
(g7
S'\x826\xaf\x8d\x11\xff\x0f\xc0'
p471
tp472
Rp473
g460
tp474
a(g473
F3.631636177556731e-06
tp475
aa(lp476
(g473
F3.631636177556731e-06
tp477
ag3
(g7
S'\xd7-\xf3\xf04[P<'
p478
tp479
Rp480
aI34137337118
aF1.0
aF0.002866215746004393
ag3
(g7
S'\xf3\xffO\x94\r\xff\x0f\xc0'
p481
tp482
Rp483
a(g3
(g7
S'd\xc9\xf0\x9a\t\xff\x0f\xc0'
p484
tp485
Rp486
g473
tp487
a(g486
F3.752711143413491e-06
tp488
aa(lp489
(g486
F3.752711143413491e-06
tp490
ag3
(g7
S'1"\xe6\x9a@[P<'
p491
tp492
Rp493
aI34137337118
aF1.0
aF0.0028661340082017407
ag3
(g7
S'\xd5\x92\x91\xa1\x05\xff\x0f\xc0'
p494
tp495
Rp496
a(F-3.999514879261855
g486
tp497
a(F-3.999514879261855
F3.873787426714984e-06
tp498
aa.