(lp0
(lp1
(F-3.1430015356337515
F0.0009765624999879329
tp2
acnumpy.core.multiarray
scalar
p3
(cnumpy
dtype
p4
(S'f8'
p5
I0
I1
tp6
Rp7
(I3
S'<'
p8
NNNI-1
I-1
I0
tp9
bS'\xfa0\xd7~B.\xb6\xbc'
p10
tp11
Rp12
aI122340599843
aF1.0
aF-0.00017271457095530097
ag3
(g7
S'>d\xf5\xc7\xcf$\t\xc0'
p13
tp14
Rp15
a(g3
(g7
S'\xef0%\x81\xc1$\t\xc0'
p16
tp17
Rp18
F-3.1430015356337515
tp19
a(g18
F0.0009389037293750391
tp20
aa(lp21
(g18
F0.0009389037293750391
tp22
ag3
(g7
S'\x82\xb9\xc9\x88B.\xb6\xbc'
p23
tp24
Rp25
aI124120292132
aF1.0
aF-0.00016587388957706967
ag3
(g7
S'\x94\xba?\x17\xb3$\t\xc0'
p26
tp27
Rp28
a(g3
(g7
S'\xcb\xd5\xff\x9a\xa4$\t\xc0'
p29
tp30
Rp31
g18
tp32
a(g31
F0.0009006971345017999
tp33
aa(lp34
(g31
F0.0009006971345017999
tp35
ag3
(g7
S'F.v\x92B.\xb6\xbc'
p36
tp37
Rp38
aI125722255738
aF1.0
aF-0.00015893929800928433
ag3
(g7
S'\x9a\xe6\xca\x01\x96$\t\xc0'
p39
tp40
Rp41
a(g3
(g7
S'Qt^U\x87$\t\xc0'
p42
tp43
Rp44
g31
tp45
a(g44
F0.0008619974236496075
tp46
aa(lp47
(g44
F0.0008619974236496075
tp48
ag3
(g7
S'Q#\xdb\x9bB.\xb6\xbc'
p49
tp50
Rp51
aI127816852287
aF1.0
aF-0.00015190231255060054
ag3
(g7
S'\xa9\x84\x00\x83x$\t\xc0'
p52
tp53
Rp54
a(g3
(g7
S'\x12\x11\xe4\x92i$\t\xc0'
p55
tp56
Rp57
g44
tp58
a(g57
F0.0008226529549922411
tp59
aa(lp60
(g57
F0.0008226529549922411
tp61
ag3
(g7
S'\xd5\x95\xb1\xa4B.\xb6\xbc'
p62
tp63
Rp64
aI121857819612
aF1.0
aF-0.0001449725389632959
ag3
(g7
S'O\xa2\x95w[$\t\xc0'
p65
tp66
Rp67
a(g3
(g7
S'6M\x993M$\t\xc0'
p68
tp69
Rp70
g57
tp71
a(g70
F0.0007851427895292681
tp72
aa(lp73
(g70
F0.0007851427895292681
tp74
ag3
(g7
S'\xcc\x1d\xfc\xacB.\xb6\xbc'
p75
tp76
Rp77
aI123811897701
aF1.0
aF-0.00013815368247617723
ag3
(g7
S'\xb7\t\xf4\xd9>$\t\xc0'
p78
tp79
Rp80
a(g3
(g7
S'\xd1\xab\xd5_0$\t\xc0'
p81
tp82
Rp83
g70
tp84
a(g83
F0.0007470311206408021
tp85
aa(lp86
(g83
F0.0007470311206408021
tp87
ag3
(g7
S'\x80\xc4\x00\xb5B.\xb6\xbc'
p88
tp89
Rp90
aI125898268520
aF1.0
aF-0.0001312229572615086
ag3
(g7
S'\x08_<\xce!$\t\xc0'
p91
tp92
Rp93
a(g3
(g7
S'i\x8c\xb6\x0f\x13$\t\xc0'
p94
tp95
Rp96
g83
tp97
a(g96
F0.000708277226096371
tp98
aa(lp99
(g96
F0.000708277226096371
tp100
ag3
(g7
S'\xe7\xc7\xbe\xbcB.\xb6\xbc'
p101
tp102
Rp103
aI128432014167
aF1.0
aF-0.0001241637312535843
ag3
(g7
S'\xa1}c.\x04$\t\xc0'
p104
tp105
Rp106
a(F-3.1425574464239014
g96
tp107
a(F-3.1425574464239014
F0.0006687433953676467
tp108
aa(lp109
(F-3.1425574464239014
F0.0006687433953676467
tp110
ag3
(g7
S'\x10z\xc5\xc3B.\xb6\xbc'
p111
tp112
Rp113
aI115443933672
aF1.0
aF-0.0001173948552189499
ag3
(g7
S'\x95\x1d5\xcb\xe7#\t\xc0'
p114
tp115
Rp116
a(g3
(g7
S'*\xe7\x92G\xda#\t\xc0'
p117
tp118
Rp119
F-3.1425574464239014
tp120
a(g119
F0.0006332075435925299
tp121
aa(lp122
(g119
F0.0006332075435925299
tp123
ag3
(g7
S'\xacw\x1d\xcaB.\xb6\xbc'
p124
tp125
Rp126
aI117648364145
aF1.0
aF-0.00011092525012545942
ag3
(g7
S'^7x\xa9\xcc#\t\xc0'
p127
tp128
Rp129
a(g3
(g7
S'\xb9T/\xe3\xbe#\t\xc0'
p130
tp131
Rp132
g119
tp133
a(g132
F0.0005969931253192489
tp134
aa(lp135
(g132
F0.0005969931253192489
tp136
ag3
(g7
S'\x12T7\xd0B.\xb6\xbc'
p137
tp138
Rp139
aI120142191619
aF1.0
aF-0.0001043251830982316
ag3
(g7
S'\xc2\xf7B\xf5\xb0#\t\xc0'
p140
tp141
Rp142
a(g3
(g7
S'\xb6\xf8&\xea\xa2#\t\xc0'
p143
tp144
Rp145
g132
tp146
a(g145
F0.0005600110586113029
tp147
aa(lp148
(g145
F0.0005600110586113029
tp149
ag3
(g7
S'\xfe\x9e\x10\xd6B.\xb6\xbc'
p150
tp151
Rp152
aI122890156125
aF1.0
aF-9.75796435639677e-05
ag3
(g7
S'~\xfew\xab\x94#\t\xc0'
p153
tp154
Rp155
a(g3
(g7
S'Y\x00TM\x86#\t\xc0'
p156
tp157
Rp158
g145
tp159
a(g158
F0.0005221831152239628
tp160
aa(lp161
(g158
F0.0005221831152239628
tp162
ag3
(g7
S'\x96\x13E\xdaB.\xb6\xbc'
p163
tp164
Rp165
aI62189786643
aF1.0
aF-9.244317115201642e-05
ag3
(g7
S'\xcf\xd0\xf7\x17\x7f#\t\xc0'
p166
tp167
Rp168
a(g3
(g7
S'F*\x87\xd2w#\t\xc0'
p169
tp170
Rp171
g158
tp172
a(g171
F0.0005030399077518235
tp173
aa(lp174
(g3
(g7
S'c\x92F\x17i#\t\xc0'
p175
tp176
Rp177
F0.00048356384664360733
tp178
ag3
(g7
S'\x9b\x96\xfb\xdcB.\xb6\xbc'
p179
tp180
Rp181
aI63271114723
aF1.0
aF-8.896102999402971e-05
ag3
(g7
S'_Ra}p#\t\xc0'
p182
tp183
Rp184
a(g177
g171
tp185
a(g171
F0.0005030399077518235
tp186
aa(lp187
(g177
F0.00048356384664360733
tp188
ag3
(g7
S'5\x92\x9f\xdfB.\xb6\xbc'
p189
tp190
Rp191
aI63745559399
aF1.0
aF-8.543512030037064e-05
ag3
(g7
S'\xa6\xba\xf0\xafa#\t\xc0'
p192
tp193
Rp194
a(g3
(g7
S'\xfc\x86\xbe?Z#\t\xc0'
p195
tp196
Rp197
g177
tp198
a(g197
F0.00046394174223660936
tp199
aa(lp200
(g197
F0.00046394174223660936
tp201
ag3
(g7
S'\x9d\xc7/\xe2B.\xb6\xbc'
p202
tp203
Rp204
aI64787278543
aF1.0
aF-8.186786286974441e-05
ag3
(g7
S'f\xd4(\xbaR#\t\xc0'
p205
tp206
Rp207
a(g3
(g7
S'-\x1c\x1f*K#\t\xc0'
p208
tp209
Rp210
g197
tp211
a(g210
F0.0004439989765826824
tp212
aa(lp213
(g210
F0.0004439989765826824
tp214
ag3
(g7
S'\x1c\xac\xad\xe4B.\xb6\xbc'
p215
tp216
Rp217
aI65769499672
aF1.0
aF-7.824413916905447e-05
ag3
(g7
S'\xfb\x8eI\x88C#\t\xc0'
p218
tp219
Rp220
a(g3
(g7
S'\x150\xf4\xd9;#\t\xc0'
p221
tp222
Rp223
g210
tp224
a(g223
F0.0004237538643104211
tp225
aa(lp226
(g223
F0.0004237538643104211
tp227
ag3
(g7
S'.\xb2\x17\xe7B.\xb6\xbc'
p228
tp229
Rp230
aI66765775282
aF1.0
aF-7.456540208576574e-05
ag3
(g7
S'V\xd7\x15\x1e4#\t\xc0'
p231
tp232
Rp233
a(g3
(g7
S'cNgN,#\t\xc0'
p234
tp235
Rp236
g223
tp237
a(g236
F0.00040320207918147043
tp238
aa(lp239
(g236
F0.00040320207918147043
tp240
ag3
(g7
S'\x92\xbcm\xe9B.\xb6\xbc'
p241
tp242
Rp243
aI68032214857
aF1.0
aF-7.08240335016477e-05
ag3
(g7
S'\xbf\xa1`m$#\t\xc0'
p244
tp245
Rp246
a(g3
(g7
S'\x1a\x17^w\x1c#\t\xc0'
p247
tp248
Rp249
g236
tp250
a(g249
F0.0003822604595498642
tp251
aa(lp252
(g249
F0.0003822604595498642
tp253
ag3
(g7
S'$l\xaf\xebB.\xb6\xbc'
p254
tp255
Rp256
aI69314125320
aF1.0
aF-6.701177718740784e-05
ag3
(g7
S'\x1b\x8f\xdbp\x14#\t\xc0'
p257
tp258
Rp259
a(F-3.1421133572140514
g249
tp260
a(F-3.1421133572140514
F0.0003609242431793969
tp261
aa(lp262
(F-3.1421133572140514
F0.0003609242431793969
tp263
ag3
(g7
S'\xd9y\x9b\xedB.\xb6\xbc'
p264
tp265
Rp266
aI54009523737
aF1.0
aF-6.358899144422754e-05
ag3
(g7
S'\xb0\xd3?\x10\x06#\t\xc0'
p267
tp268
Rp269
a(g3
(g7
S'\xf9\x8a\xb4\xc0\xff"\t\xc0'
p270
tp271
Rp272
F-3.1421133572140514
tp273
a(g272
F0.00034429907644533667
tp274
aa(lp275
(g272
F0.00034429907644533667
tp276
ag3
(g7
S'\xfd|8\xefB.\xb6\xbc'
p277
tp278
Rp279
aI55006767213
aF1.0
aF-6.056327942176947e-05
ag3
(g7
S'\x92,\x99_\xf9"\t\xc0'
p280
tp281
Rp282
a(g3
(g7
S'\x8c\xe2\x0b\xf2\xf2"\t\xc0'
p283
tp284
Rp285
g272
tp286
a(g285
F0.00032736693897944064
tp287
aa(lp288
(g285
F0.00032736693897944064
tp289
ag3
(g7
S'\xbb-\xc8\xf0B.\xb6\xbc'
p290
tp291
Rp292
aI55949693773
aF1.0
aF-5.7483292880627755e-05
ag3
(g7
S'\x1d\xf0\xe8q\xec"\t\xc0'
p293
tp294
Rp295
a(g3
(g7
S'?O/\xeb\xe5"\t\xc0'
p296
tp297
Rp298
g285
tp299
a(g298
F0.0003101445505695656
tp300
aa(lp301
(g298
F0.0003101445505695656
tp302
ag3
(g7
S'\xf4\xd7I\xf2B.\xb6\xbc'
p303
tp304
Rp305
aI57066857911
aF1.0
aF-5.434648403796159e-05
ag3
(g7
S'/1wM\xdf"\t\xc0'
p306
tp307
Rp308
a(g3
(g7
S'\x88)\xbc\xa1\xd8"\t\xc0'
p309
tp310
Rp311
g298
tp312
a(g311
F0.0002925782775486491
tp313
aa(lp314
(g311
F0.0002925782775486491
tp315
ag3
(g7
S'\x9eR\xbc\xf3B.\xb6\xbc'
p316
tp317
Rp318
aI58013470686
aF1.0
aF-5.115255421789891e-05
ag3
(g7
S'\xe3\xe0\xf9\xee\xd1"\t\xc0'
p319
tp320
Rp321
a(g3
(g7
S'\xaa\xd9\xdc\x1f\xcb"\t\xc0'
p322
tp323
Rp324
g311
tp325
a(g324
F0.00027472061889651753
tp326
aa(lp327
(g324
F0.00027472061889651753
tp328
ag3
(g7
S'\xbfy\x1f\xf5B.\xb6\xbc'
p329
tp330
Rp331
aI59503721731
aF1.0
aF-4.78905085870723e-05
ag3
(g7
S'\xfe\xa4U?\xc4"\t\xc0'
p332
tp333
Rp334
a(g3
(g7
S'\xa7\x1c*E\xbd"\t\xc0'
p335
tp336
Rp337
g324
tp338
a(g337
F0.00025640423232974296
tp339
aa(lp340
(g3
(g7
S'\xd9\x03\xcc\x16\xaf"\t\xc0'
p341
tp342
Rp343
F0.00023765574788887832
tp344
ag3
(g7
S'^\x1cs\xf6B.\xb6\xbc'
p345
tp346
Rp347
aI60907460814
aF1.0
aF-4.4548712287933735e-05
ag3
(g7
S'\xf8\x03N>\xb6"\t\xc0'
p348
tp349
Rp350
a(g343
g337
tp351
a(g337
F0.00025640423232974296
tp352
aa(lp353
(g343
F0.00023765574788887832
tp354
ag3
(g7
S'\t\xc6\xb5\xf7B.\xb6\xbc'
p355
tp356
Rp357
aI62527980945
aF1.0
aF-4.112255318196325e-05
ag3
(g7
S'\tr\xeb\xdc\xa7"\t\xc0'
p358
tp359
Rp360
a(g3
(g7
S'H\xbe\xd6\x87\xa0"\t\xc0'
p361
tp362
Rp363
g343
tp364
a(g363
F0.00021840843621032067
tp365
aa(lp366
(g363
F0.00021840843621032067
tp367
ag3
(g7
S'\xae\x02\xd7\xf8B.\xb6\xbc'
p368
tp369
Rp370
aI57503672977
aF1.0
aF-3.7791102260601325e-05
ag3
(g7
S'\x13\xdf\x93\xe4\x99"\t\xc0'
p371
tp372
Rp373
a(g3
(g7
S'\xb7SZ$\x93"\t\xc0'
p374
tp375
Rp376
g363
tp377
a(g376
F0.00020070770282530926
tp378
aa(lp379
(g376
F0.00020070770282530926
tp380
ag3
(g7
S' \xfa\xd8\xf9B.\xb6\xbc'
p381
tp382
Rp383
aI59379322762
aF1.0
aF-3.454699749674135e-05
ag3
(g7
S'\xdb\x98\xfbJ\x8c"\t\xc0'
p384
tp385
Rp386
a(g3
(g7
S'-\xc4\x11Q\x85"\t\xc0'
p387
tp388
Rp389
g376
tp390
a(g389
F0.0001824296084145535
tp391
aa(lp392
(g389
F0.0001824296084145535
tp393
ag3
(g7
S'u?\xcb\xfaB.\xb6\xbc'
p394
tp395
Rp396
aI61412749359
aF1.0
aF-3.1194256632065574e-05
ag3
(g7
S'\xfa\x92Q<~"\t\xc0'
p397
tp398
Rp399
a(g3
(g7
S'\xfe\x93\x95\x04w"\t\xc0'
p400
tp401
Rp402
g389
tp403
a(g402
F0.00016352558624909861
tp404
aa(lp405
(g402
F0.00016352558624909861
tp406
ag3
(g7
S'\x9e\x84\xac\xfbB.\xb6\xbc'
p407
tp408
Rp409
aI63942629295
aF1.0
aF-2.77150269350722e-05
ag3
(g7
S'\xe8\xd6.\xado"\t\xc0'
p410
tp411
Rp412
a(g3
(g7
S'O|N!h"\t\xc0'
p413
tp414
Rp415
g402
tp416
a(g415
F0.00014384281846903447
tp417
aa(lp418
(g415
F0.00014384281846903447
tp419
ag3
(g7
S'\x9e2z\xfcB.\xb6\xbc'
p420
tp421
Rp422
aI66173248022
aF1.0
aF-2.4103439045168876e-05
ag3
(g7
S'Q\xe2\xc8\x84`"\t\xc0'
p423
tp424
Rp425
a(g3
(g7
S'9\xda\x12\xb9X"\t\xc0'
p426
tp427
Rp428
g415
tp429
a(g428
F0.00012347342341534183
tp430
aa(lp431
(g3
(g7
S'\xdc\xc3K\xb0P"\t\xc0'
p432
tp433
Rp434
F0.00011285150582550919
tp435
ag3
(g7
S'\xe8\xa0\x06\xfdB.\xb6\xbc'
p436
tp437
Rp438
aI34507003485
aF1.0
aF-2.130930993157522e-05
ag3
(g7
S'\nO\xaf\xb4T"\t\xc0'
p439
tp440
Rp441
a(g434
g428
tp442
a(g428
F0.00012347342341534183
tp443
aa(lp444
(g434
F0.00011285150582550919
tp445
ag3
(g7
S'\x82\x9f]\xfdB.\xb6\xbc'
p446
tp447
Rp448
aI35598202624
aF1.0
aF-1.9363305547073e-05
ag3
(g7
S'\\\x08c\x8bL"\t\xc0'
p449
tp450
Rp451
a(g3
(g7
S'\xdcLzfH"\t\xc0'
p452
tp453
Rp454
g434
tp455
a(g454
F0.00010189369619918356
tp456
aa(lp457
(g454
F0.00010189369619918356
tp458
ag3
(g7
S'\xef\x8a\xae\xfdB.\xb6\xbc'
p459
tp460
Rp461
aI36627609450
aF1.0
aF-1.7358767451273063e-05
ag3
(g7
S'\'\xd1\xe3"D"\t\xc0'
p462
tp463
Rp464
a(g3
(g7
S'rUM\xdf?"\t\xc0'
p465
tp466
Rp467
g454
tp468
a(g467
F9.061901539575355e-05
tp469
aa(lp470
(g467
F9.061901539575355e-05
tp471
ag3
(g7
S'\tK\xf9\xfdB.\xb6\xbc'
p472
tp473
Rp474
aI38471993275
aF1.0
aF-1.527406671966424e-05
ag3
(g7
S'\x94Q\xbfd;"\t\xc0'
p475
tp476
Rp477
a(g3
(g7
S'\xb7M1\xea6"\t\xc0'
p478
tp479
Rp480
g467
tp481
a(g480
F7.877659786152155e-05
tp482
aa(lp483
(g480
F7.877659786152155e-05
tp484
ag3
(g7
S'\xa7p=\xfeB.\xb6\xbc'
p485
tp486
Rp487
aI40309647881
aF1.0
aF-1.3087621984218175e-05
ag3
(g7
S'\xb2\x18\xdf82"\t\xc0'
p488
tp489
Rp490
a(g3
(g7
S'\xae\xe3\x8c\x87-"\t\xc0'
p491
tp492
Rp493
g480
tp494
a(g493
F6.63685149791524e-05
tp495
aa(lp496
(F-3.1416692680042013
F5.3105065318475666e-05
tp497
ag3
(g7
S'\xfb\x19z\xfeB.\xb6\xbc'
p498
tp499
Rp500
aI43088444060
aF1.0
aF-1.0772731208533287e-05
ag3
(g7
S'`&j\x83("\t\xc0'
p501
tp502
Rp503
a(F-3.1416692680042013
g493
tp504
a(g493
F6.63685149791524e-05
tp505
aa(lp506
(F-3.1416692680042013
F5.3105065318475666e-05
tp507
ag3
(g7
S'\x81|\xa8\xfeB.\xb6\xbc'
p508
tp509
Rp510
aI35053671168
aF1.0
aF-8.603861098390155e-06
ag3
(g7
S'\x92\x1f\x99j\x1f"\t\xc0'
p511
tp512
Rp513
a(g3
(g7
S'\x12\xd6\xeaU\x1b"\t\xc0'
p514
tp515
Rp516
F-3.1416692680042013
tp517
a(g516
F4.2314872882247326e-05
tp518
aa(lp519
(g3
(g7
S't\x03hi\x12"\t\xc0'
p520
tp521
Rp522
F3.0516860804309452e-05
tp523
ag3
(g7
S'\x8cd\xca\xfeB.\xb6\xbc'
p524
tp525
Rp526
aI38327734942
aF1.0
aF-6.567156030138381e-06
ag3
(g7
S'\xc3l\xa9\xdf\x16"\t\xc0'
p527
tp528
Rp529
a(g522
g516
tp530
a(g516
F4.2314872882247326e-05
tp531
aa(lp532
(g522
F3.0516860804309452e-05
tp533
ag3
(g7
S'\xf9*\xe0\xfeB.\xb6\xbc'
p534
tp535
Rp536
aI23401173589
aF1.0
aF-4.853776837819516e-06
ag3
(g7
S'J:\xff\xaf\x0f"\t\xc0'
p537
tp538
Rp539
a(g3
(g7
S'\x1fq\x96\xf6\x0c"\t\xc0'
p540
tp541
Rp542
g522
tp543
a(g542
F2.331353065391465e-05
tp544
aa(lp545
(g3
(g7
S'\x9a_\xda\xde\x06"\t\xc0'
p546
tp547
Rp548
F1.5258516717176078e-05
tp549
ag3
(g7
S'\x9d\xbb\xec\xfeB.\xb6\xbc'
p550
tp551
Rp552
aI26168004997
aF1.0
aF-3.478000035910886e-06
ag3
(g7
S'\\h\xb8\xea\t"\t\xc0'
p553
tp554
Rp555
a(g548
g542
tp556
a(g542
F2.331353065391465e-05
tp557
aa(lp558
(g3
(g7
S'ql\x91\x19\x01"\t\xc0'
p559
tp560
Rp561
F7.629301707041003e-06
tp562
ag3
(g7
S'\xb5^\xf5\xfeB.\xb6\xbc'
p563
tp564
Rp565
aI24784728873
aF1.0
aF-2.063711660829775e-06
ag3
(g7
S'\x06\xe65\xfc\x03"\t\xc0'
p566
tp567
Rp568
a(g561
g548
tp569
a(g548
F1.5258516717176078e-05
tp570
aa(lp571
(g3
(g7
S'\xc4\xcc\xea6\xfe!\t\xc0'
p572
tp573
Rp574
F3.814650853344984e-06
tp575
ag3
(g7
S' \x03\xf9\xfeB.\xb6\xbc'
p576
tp577
Rp578
aI12392505261
aF1.0
aF-1.0318603459098786e-06
ag3
(g7
S'\x9a\x1c>\xa8\xff!\t\xc0'
p579
tp580
Rp581
a(g574
g561
tp582
a(g561
F7.629301707041003e-06
tp583
aa(lp584
(g3
(g7
S'\xee|\x97\xc5\xfc!\t\xc0'
p585
tp586
Rp587
F1.9073254266326532e-06
tp588
ag3
(g7
S'<\xec\xf9\xfeB.\xb6\xbc'
p589
tp590
Rp591
aI6196252630
aF1.0
aF-5.16153906851317e-07
ag3
(g7
S'\xd9$A~\xfd!\t\xc0'
p592
tp593
Rp594
a(g587
g574
tp595
a(g574
F3.814650853344984e-06
tp596
aa(lp597
(F-3.141592653589793
F-8.488604760107495e-17
tp598
ag3
(g7
S'\xd5.\xfa\xfeB.\xb6\xbc'
p599
tp600
Rp601
aI6196252630
aF1.0
aF-1.7199536883049414e-07
ag3
(g7
S'\x03\xd5\xed\x0c\xfc!\t\xc0'
p602
tp603
Rp604
a(F-3.141592653589793
g587
tp605
a(g587
F1.9073254266326532e-06
tp606
aa(lp607
(F-3.141592653589793
F-8.488604760107495e-17
tp608
ag3
(g7
S'\xe0)\xfa\xfeB.\xb6\xbc'
p609
tp610
Rp611
aI7451728342
aF1.0
aF2.069043491147541e-07
ag3
(g7
S'-\x000v\xfa!\t\xc0'
p612
tp613
Rp614
a(g3
(g7
S'B\xd3\x1b\x98\xf9!\t\xc0'
p615
tp616
Rp617
F-3.141592653589793
tp618
a(g617
F-2.2937849356557658e-06
tp619
aa(lp620
(g617
F-2.2937849356557658e-06
tp621
ag3
(g7
S'\x8f\xc9\xf9\xfeB.\xb6\xbc'
p622
tp623
Rp624
aI7451728341
aF1.0
aF6.204810052501063e-07
ag3
(g7
S'X\xa6\x07\xba\xf8!\t\xc0'
p625
tp626
Rp627
a(g3
(g7
S'my\xf3\xdb\xf7!\t\xc0'
p628
tp629
Rp630
g617
tp631
a(g630
F-4.587569870909767e-06
tp632
aa(lp633
(g630
F-4.587569870909767e-06
tp634
ag3
(g7
S'jx\xf8\xfeB.\xb6\xbc'
p635
tp636
Rp637
aI14903456683
aF1.0
aF1.2409620103336792e-06
ag3
(g7
S'\x98\x1f\xcb\x1f\xf6!\t\xc0'
p638
tp639
Rp640
a(g3
(g7
S'\xc2\xc5\xa2c\xf4!\t\xc0'
p641
tp642
Rp643
g630
tp644
a(g643
F-9.175139741662169e-06
tp645
aa(lp646
(g643
F-9.175139741662169e-06
tp647
ag3
(g7
S'\xd93\xf3\xfeB.\xb6\xbc'
p648
tp649
Rp650
aI29806913366
aF1.0
aF2.4819240206673584e-06
ag3
(g7
S'\x17\x12R\xeb\xf0!\t\xc0'
p651
tp652
Rp653
a(g3
(g7
S'l^\x01s\xed!\t\xc0'
p654
tp655
Rp656
g643
tp657
a(g656
F-1.835027948265962e-05
tp658
aa(lp659
(g656
F-1.835027948265962e-05
tp660
ag3
(g7
S'h)\xe7\xfeB.\xb6\xbc'
p661
tp662
Rp663
aI29806913366
aF1.0
aF4.136617381865838e-06
ag3
(g7
S'\xc1\xaa\xb0\xfa\xe9!\t\xc0'
p664
tp665
Rp666
a(g3
(g7
S'\x16\xf7_\x82\xe6!\t\xc0'
p667
tp668
Rp669
g656
tp670
a(g669
F-2.7525419222497406e-05
tp671
aa(lp672
(g669
F-2.7525419222497406e-05
tp673
ag3
(g7
S'\xc2\x19\xd5\xfeB.\xb6\xbc'
p674
tp675
Rp676
aI29806913367
aF1.0
aF5.7911560478352575e-06
ag3
(g7
S'jC\x0f\n\xe3!\t\xc0'
p677
tp678
Rp679
a(g3
(g7
S'\xbf\x8f\xbe\x91\xdf!\t\xc0'
p680
tp681
Rp682
g669
tp683
a(g682
F-3.670055896090352e-05
tp684
aa(lp685
(g682
F-3.670055896090352e-05
tp686
ag3
(g7
S'l\xd5\xbc\xfeB.\xb6\xbc'
p687
tp688
Rp689
aI30199955008
aF1.0
aF7.456662601741482e-06
ag3
(g7
S'\x9f0\xb7\r\xdc!\t\xc0'
p690
tp691
Rp692
a(g3
(g7
S'\x7f\xd1\xaf\x89\xd8!\t\xc0'
p693
tp694
Rp695
g682
tp696
a(g695
F-4.599668445399691e-05
tp697
aa(lp698
(g695
F-4.599668445399691e-05
tp699
ag3
(g7
S'\x1aA\x9e\xfeB.\xb6\xbc'
p700
tp701
Rp702
aI30199955008
aF1.0
aF9.133138319060385e-06
ag3
(g7
S'_r\xa8\x05\xd5!\t\xc0'
p703
tp704
Rp705
a(g3
(g7
S'?\x13\xa1\x81\xd1!\t\xc0'
p706
tp707
Rp708
g695
tp709
a(g708
F-5.529280994410632e-05
tp710
aa(lp711
(g708
F-5.529280994410632e-05
tp712
ag3
(g7
S'\xb4\x06z\xfeB.\xb6\xbc'
p713
tp714
Rp715
aI29413871725
aF1.0
aF1.0787797524511262e-05
ag3
(g7
S'\x08\x0b\x07\x15\xce!\t\xc0'
p716
tp717
Rp718
a(g3
(g7
S'\xd2\x02m\xa8\xca!\t\xc0'
p719
tp720
Rp721
g708
tp722
a(g721
F-6.434696391649351e-05
tp723
aa(lp724
(g721
F-6.434696391649351e-05
tp725
ag3
(g7
S'_\\P\xfeB.\xb6\xbc'
p726
tp727
Rp728
aI29413871724
aF1.0
aF1.2420685224400873e-05
ag3
(g7
S'\x9c\xfa\xd2;\xc7!\t\xc0'
p729
tp730
Rp731
a(g3
(g7
S'f\xf28\xcf\xc3!\t\xc0'
p732
tp733
Rp734
g721
tp735
a(g734
F-7.340111788461294e-05
tp736
aa(lp737
(g734
F-7.340111788461294e-05
tp738
ag3
(g7
S'\xb7e\x05\xfeB.\xb6\xbc'
p739
tp740
Rp741
aI59613826732
aF1.0
aF1.489154412400415e-05
ag3
(g7
S'\x10\x8b\x97\xde\xbc!\t\xc0'
p742
tp743
Rp744
a(g3
(g7
S'\xba#\xf6\xed\xb5!\t\xc0'
p745
tp746
Rp747
g734
tp748
a(g747
F-9.175139732080117e-05
tp749
aa(lp750
(g747
F-9.175139732080117e-05
tp751
ag3
(g7
S'X\xfd\x8c\xfdB.\xb6\xbc'
p752
tp753
Rp754
aI59613826732
aF1.0
aF1.8200776151560626e-05
ag3
(g7
S'd\xbcT\xfd\xae!\t\xc0'
p755
tp756
Rp757
a(g3
(g7
S'\x0eU\xb3\x0c\xa8!\t\xc0'
p758
tp759
Rp760
g747
tp761
a(g760
F-0.00011010167673379615
tp762
aa(lp763
(g760
F-0.00011010167673379615
tp764
ag3
(g7
S'\x14\x80\xfc\xfcB.\xb6\xbc'
p765
tp766
Rp767
aI59613826733
aF1.0
aF2.151000817839546e-05
ag3
(g7
S'\xb8\xed\x11\x1c\xa1!\t\xc0'
p768
tp769
Rp770
a(g3
(g7
S'a\x86p+\x9a!\t\xc0'
p771
tp772
Rp773
g760
tp774
a(g773
F-0.00012845195611926703
tp775
aa(lp776
(g773
F-0.00012845195611926703
tp777
ag3
(g7
S'\xf9\xedS\xfcB.\xb6\xbc'
p778
tp779
Rp780
aI59613826732
aF1.0
aF2.4819240206673583e-05
ag3
(g7
S'\x0b\x1f\xcf:\x93!\t\xc0'
p781
tp782
Rp783
a(g3
(g7
S'\xb5\xb7-J\x8c!\t\xc0'
p784
tp785
Rp786
g773
tp787
a(g786
F-0.00014680223547195955
tp788
aa(lp789
(g786
F-0.00014680223547195955
tp790
ag3
(g7
S'\x94\xbd\xaa\xfbB.\xb6\xbc'
p791
tp792
Rp793
aI46091953144
aF1.0
aF2.77529280337433e-05
ag3
(g7
S'\xb6\x05\x88\xec\x86!\t\xc0'
p794
tp795
Rp796
a(g3
(g7
S'\xbdS\xe2\x8e\x81!\t\xc0'
p797
tp798
Rp799
g786
tp800
a(g799
F-0.00016099022273880411
tp801
aa(lp802
(g799
F-0.00016099022273880411
tp803
ag3
(g7
S'\xfcc\x07\xfbB.\xb6\xbc'
p804
tp805
Rp806
aI46091953144
aF1.0
aF3.031167926824328e-05
ag3
(g7
S'\xc1\xa1<1|!\t\xc0'
p807
tp808
Rp809
a(g3
(g7
S'\xc5\xef\x96\xd3v!\t\xc0'
p810
tp811
Rp812
g799
tp813
a(g812
F-0.00017517820998132078
tp814
aa(lp815
(g812
F-0.00017517820998132078
tp816
ag3
(g7
S'\x04\xa5U\xfaB.\xb6\xbc'
p817
tp818
Rp819
aI46091953144
aF1.0
aF3.287043050274326e-05
ag3
(g7
S'\xc9=\xf1uq!\t\xc0'
p820
tp821
Rp822
a(g3
(g7
S'\xcd\x8bK\x18l!\t\xc0'
p823
tp824
Rp825
g812
tp826
a(g825
F-0.00018936619719736554
tp827
aa(lp828
(g825
F-0.00018936619719736554
tp829
ag3
(g7
S'\xae\x80\x95\xf9B.\xb6\xbc'
p830
tp831
Rp832
aI46091953144
aF1.0
aF3.542892296385787e-05
ag3
(g7
S'\xd1\xd9\xa5\xbaf!\t\xc0'
p833
tp834
Rp835
a(g3
(g7
S"\xd5'\x00]a!\t\xc0"
p836
tp837
Rp838
g825
tp839
a(g838
F-0.00020355418438479438
tp840
aa(lp841
(g838
F-0.00020355418438479438
tp842
ag3
(g7
S'_\xc7i\xf8B.\xb6\xbc'
p843
tp844
Rp845
aI85103635530
aF1.0
aF3.9070414917932196e-05
ag3
(g7
S'\xb0\xf1\xb6tW!\t\xc0'
p846
tp847
Rp848
a(g3
(g7
S'\x8b\xbbm\x8cM!\t\xc0'
p849
tp850
Rp851
g838
tp852
a(g851
F-0.00022975071554354304
tp853
aa(lp854
(g851
F-0.00022975071554354304
tp855
ag3
(g7
S'\xf9;\xc6\xf6B.\xb6\xbc'
p856
tp857
Rp858
aI81097613945
aF1.0
aF4.368340015144755e-05
ag3
(g7
S'C\x17\xfe\x05D!\t\xc0'
p859
tp860
Rp861
a(F-3.1412251787943513
g851
tp862
a(F-3.1412251787943513
F-0.0002547141163198279
tp863
aa(lp864
(F-3.1412251787943513
F-0.0002547141163198279
tp865
ag3
(g7
S'\x1bY)\xf5B.\xb6\xbc'
p866
tp867
Rp868
aI67012202162
aF1.0
aF4.779432248699109e-05
ag3
(g7
S'\xb9\xd1\x83\xdd2!\t\xc0'
p869
tp870
Rp871
a(g3
(g7
S'`Je\x10+!\t\xc0'
p872
tp873
Rp874
F-3.1412251787943513
tp875
a(g874
F-0.0002753417571448182
tp876
aa(lp877
(g874
F-0.0002753417571448182
tp878
ag3
(g7
S'\x8c*\x93\xf3B.\xb6\xbc'
p879
tp880
Rp881
aI67012202163
aF1.0
aF5.151425948171829e-05
ag3
(g7
S'\x06\xc3FC#!\t\xc0'
p882
tp883
Rp884
a(g3
(g7
S'\xad;(v\x1b!\t\xc0'
p885
tp886
Rp887
g874
tp888
a(g887
F-0.00029596939788216654
tp889
aa(lp890
(g887
F-0.00029596939788216654
tp891
ag3
(g7
S'Q\x17\xeb\xf1B.\xb6\xbc'
p892
tp893
Rp894
aI63330264345
aF1.0
aF5.513181027125563e-05
ag3
(g7
S'\x1f\xa9\xc4\x16\x14!\t\xc0'
p895
tp896
Rp897
a(g3
(g7
S'\x94\x16a\xb7\x0c!\t\xc0'
p898
tp899
Rp900
g887
tp901
a(g900
F-0.0003154636674738022
tp902
aa(lp903
(g900
F-0.0003154636674738022
tp904
ag3
(g7
S'\x97J3\xf0B.\xb6\xbc'
p905
tp906
Rp907
aI63330264346
aF1.0
aF5.864742061876446e-05
ag3
(g7
S'\x07\x84\xfdW\x05!\t\xc0'
p908
tp909
Rp910
a(g3
(g7
S'z\xf1\x99\xf8\xfd \t\xc0'
p911
tp912
Rp913
g900
tp914
a(g913
F-0.0003349579369757489
tp915
aa(lp916
(g913
F-0.0003349579369757489
tp917
ag3
(g7
S'\x90\xbce\xeeB.\xb6\xbc'
p918
tp919
Rp920
aI61913615111
aF1.0
aF6.212349432327807e-05
ag3
(g7
S'\xf5\x8bn\xc3\xf6 \t\xc0'
p921
tp922
Rp923
a(g3
(g7
S's&C\x8e\xef \t\xc0'
p924
tp925
Rp926
g913
tp927
a(g926
F-0.0003540161345915342
tp928
aa(lp929
(g926
F-0.0003540161345915342
tp930
ag3
(g7
S'\xab{\x89\xecB.\xb6\xbc'
p931
tp932
Rp933
aI60363695818
aF1.0
aF6.551790685751102e-05
ag3
(g7
S'\xe9\x06\xf7~\xe8 \t\xc0'
p934
tp935
Rp936
a(g3
(g7
S'\xa9?N\x80\xe1 \t\xc0'
p937
tp938
Rp939
g926
tp940
a(g939
F-0.00037259723724407466
tp941
aa(lp942
(g939
F-0.00037259723724407466
tp943
ag3
(g7
S'D\x94\x9f\xeaB.\xb6\xbc'
p944
tp945
Rp946
aI59132437217
aF1.0
aF6.883446370944329e-05
ag3
(g7
S'\xa9\xbeN\x96\xda \t\xc0'
p947
tp948
Rp949
a(g3
(g7
S'\xc8\xdc\xbc\xbb\xd3 \t\xc0'
p950
tp951
Rp952
g939
tp953
a(g952
F-0.0003907993348042778
tp954
aa(lp955
(g952
F-0.0003907993348042778
tp956
ag3
(g7
S'\x19N\xa8\xe8B.\xb6\xbc'
p957
tp958
Rp959
aI57905318838
aF1.0
aF7.20828735455444e-05
ag3
(g7
S'w\xc0A\xfa\xcc \t\xc0'
p960
tp961
Rp962
a(g3
(g7
S'\x12\xd1O@\xc6 \t\xc0'
p963
tp964
Rp965
g952
tp966
a(g965
F-0.0004086237017132203
tp967
aa(lp968
(g965
F-0.0004086237017132203
tp969
ag3
(g7
S'\xe5Dz\xe6B.\xb6\xbc'
p970
tp971
Rp972
aI65917684039
aF1.0
aF7.551944644010334e-05
ag3
(g7
S'n\xcc\xcf\x93\xbe \t\xc0'
p973
tp974
Rp975
a(g3
(g7
S'\xcb\xc7O\xe7\xb6 \t\xc0'
p976
tp977
Rp978
g965
tp979
a(g978
F-0.0004289144280712519
tp980
aa(lp981
(g978
F-0.0004289144280712519
tp982
ag3
(g7
S'\xe6f\x12\xe4B.\xb6\xbc'
p983
tp984
Rp985
aI64576437640
aF1.0
aF7.914127258712389e-05
ag3
(g7
S'\x07\xa9\xc8b\xaf \t\xc0'
p986
tp987
Rp988
a(g3
(g7
S'C\x8aA\xde\xa7 \t\xc0'
p989
tp990
Rp991
g978
tp992
a(g991
F-0.0004487922929562457
tp993
aa(lp994
(g991
F-0.0004487922929562457
tp995
ag3
(g7
S'\xb1\x08\x9b\xe1B.\xb6\xbc'
p996
tp997
Rp998
aI63273877399
aF1.0
aF8.26900073399051e-05
ag3
(g7
S'x*\x8c\x80\xa0 \t\xc0'
p999
tp1000
Rp1001
a(g3
(g7
S'\xac\xca\xd6"\x99 \t\xc0'
p1002
tp1003
Rp1004
g991
tp1005
a(g1004
F-0.0004682692047110096
tp1006
aa(lp1007
(g1004
F-0.0004682692047110096
tp1008
ag3
(g7
S'\xa7A\x14\xdfB.\xb6\xbc'
p1009
tp1010
Rp1011
aI62240425137
aF1.0
aF8.617376910614272e-05
ag3
(g7
S'y\x0c\x86\xdd\x91 \t\xc0'
p1012
tp1013
Rp1014
a(g3
(g7
S'\xfbE\x05\xa5\x8a \t\xc0'
p1015
tp1016
Rp1017
g1004
tp1018
a(g1017
F-0.0004874279999291016
tp1019
aa(lp1020
(g1017
F-0.0004874279999291016
tp1021
ag3
(g7
S';\x8a \xdbB.\xb6\xbc'
p1022
tp1023
Rp1024
aI123917430856
aF1.0
aF9.134059469300341e-05
ag3
(g7
S'\xb9\xf3f\x16| \t\xc0'
p1025
tp1026
Rp1027
a(g3
(g7
S'\xb3U\xf7\xcam \t\xc0'
p1028
tp1029
Rp1030
g1017
tp1031
a(g1030
F-0.0005255721586697184
tp1032
aa(lp1033
(g1030
F-0.0005255721586697184
tp1034
ag3
(g7
S'\xd3 \x9e\xd5B.\xb6\xbc'
p1035
tp1036
Rp1037
aI120074144929
aF1.0
aF9.811275368860976e-05
ag3
(g7
S'\xa4+\xf3\xb0_ \t\xc0'
p1038
tp1039
Rp1040
a(F-3.140781089584501
g1030
tp1041
a(F-3.140781089584501
F-0.0005625332798402248
tp1042
aa(lp1043
(F-3.140781089584501
F-0.0005625332798402248
tp1044
ag3
(g7
S'`\xfb\x92\xcfB.\xb6\xbc'
p1045
tp1046
Rp1047
aI129375226820
aF1.0
aF0.00010503645760303497
ag3
(g7
S'\xbf\xa2X\xa8B \t\xc0'
p1048
tp1049
Rp1050
a(g3
(g7
S'N\xfd\x9f\xb63 \t\xc0'
p1051
tp1052
Rp1053
F-3.140781089584501
tp1054
a(g1053
F-0.000602357451481207
tp1055
aa(lp1056
(g1053
F-0.000602357451481207
tp1057
ag3
(g7
S'R\xd5\xf8\xc8B.\xb6\xbc'
p1058
tp1059
Rp1060
aI125705409266
aF1.0
aF0.00011211632144148508
ag3
(g7
S'\xdf\xf7\xf3\xf8$ \t\xc0'
p1061
tp1062
Rp1063
a(g3
(g7
S'\\\xaa\xffq\x16 \t\xc0'
p1064
tp1065
Rp1066
g1053
tp1067
a(g1066
F-0.000641051982335698
tp1068
aa(lp1069
(g1066
F-0.000641051982335698
tp1070
ag3
(g7
S'\xe8y\x17\xc2B.\xb6\xbc'
p1071
tp1072
Rp1073
aI123989018742
aF1.0
aF0.00011904679340672493
ag3
(g7
S'\x87\xe6\xf0\xf0\x07 \t\xc0'
p1074
tp1075
Rp1076
a(g3
(g7
S'\xe6a\xad\x93\xf9\x1f\t\xc0'
p1077
tp1078
Rp1079
g1066
tp1080
a(g1079
F-0.000679218174631161
tp1081
aa(lp1082
(g1079
F-0.000679218174631161
tp1083
ag3
(g7
S'\x06I\xf1\xbaB.\xb6\xbc'
p1084
tp1085
Rp1086
aI120930345172
aF1.0
aF0.0001258446858178158
ag3
(g7
S'\xf7<\x9an\xeb\x1f\t\xc0'
p1087
tp1088
Rp1089
a(g3
(g7
S'\x12\xc1\xaak\xdd\x1f\t\xc0'
p1090
tp1091
Rp1092
g1079
tp1093
a(g1092
F-0.0007164428479639302
tp1094
aa(lp1095
(g1092
F-0.0007164428479639302
tp1096
ag3
(g7
S'\xba8@\xb3B.\xb6\xbc'
p1097
tp1098
Rp1099
aI128496520021
aF1.0
aF0.00013276761421550723
ag3
(g7
S"/'\xc4e\xce\x1f\t\xc0"
p1100
tp1101
Rp1102
a(g3
(g7
S'\xbdu\xad\x80\xbf\x1f\t\xc0'
p1103
tp1104
Rp1105
g1092
tp1106
a(g1105
F-0.000755996533819289
tp1107
aa(lp1108
(g1105
F-0.000755996533819289
tp1109
ag3
(g7
S'\x0fQ\xff\xaaB.\xb6\xbc'
p1110
tp1111
Rp1112
aI125525045681
aF1.0
aF0.00013981813732925384
ag3
(g7
S'I\x8c\xf8\xd3\xb0\x1f\t\xc0'
p1113
tp1114
Rp1115
a(g3
(g7
S'\x0cD\xcdF\xa2\x1f\t\xc0'
p1116
tp1117
Rp1118
g1105
tp1119
a(g1118
F-0.000794635542198002
tp1120
aa(lp1121
(g1118
F-0.000794635542198002
tp1122
ag3
(g7
S'\xe98v\xa2B.\xb6\xbc'
p1123
tp1124
Rp1125
aI124339177396
aF1.0
aF0.00014675316563235563
ag3
(g7
S'}\x08\x0e\xb8\x93\x1f\t\xc0'
p1126
tp1127
Rp1128
a(g3
(g7
S'X\xfc\x9bS\x85\x1f\t\xc0'
p1129
tp1130
Rp1131
g1118
tp1132
a(g1131
F-0.0008329095167737129
tp1133
aa(lp1134
(g1131
F-0.0008329095167737129
tp1135
ag3
(g7
S'\x8f\xe7\xa7\x99B.\xb6\xbc'
p1136
tp1137
Rp1138
aI121639256902
aF1.0
aF0.00015358049161225742
ag3
(g7
S'O;k\x1cw\x1f\t\xc0'
p1139
tp1140
Rp1141
a(F-3.140337000374651
g1131
tp1142
a(F-3.140337000374651
F-0.0008703524033474246
tp1143
aa(lp1144
(F-3.140337000374651
F-0.0008703524033474246
tp1145
ag3
(g7
S'D\x88\xda\x91B.\xb6\xbc'
p1146
tp1147
Rp1148
aI87695131063
aF1.0
aF0.0001593906950423402
ag3
(g7
S'w@\x00\xc5^\x1f\t\xc0'
p1149
tp1150
Rp1151
a(g3
(g7
S'[\xb7N\x96T\x1f\t\xc0'
p1152
tp1153
Rp1154
F-3.140337000374651
tp1155
a(g1154
F-0.0008973466390920554
tp1156
aa(lp1157
(g1154
F-0.0008973466390920554
tp1158
ag3
(g7
S'fM!\x8bB.\xb6\xbc'
p1159
tp1160
Rp1161
aI86593343993
aF1.0
aF0.00016422802713877643
ag3
(g7
S'vgP~J\x1f\t\xc0'
p1162
tp1163
Rp1164
a(g3
(g7
S'b%\xf1l@\x1f\t\xc0'
p1165
tp1166
Rp1167
g1154
tp1168
a(g1167
F-0.0009240017232580162
tp1169
aa(lp1170
(g1167
F-0.0009240017232580162
tp1171
ag3
(g7
S'D=F\x84B.\xb6\xbc'
p1172
tp1173
Rp1174
aI85984331875
aF1.0
aF0.00016901798405462214
ag3
(g7
S'\xc9\x97\xe6c6\x1f\t\xc0'
p1175
tp1176
Rp1177
a(g3
(g7
S'\xff\\\xe0g,\x1f\t\xc0'
p1178
tp1179
Rp1180
g1167
tp1181
a(g1180
F-0.0009504693413816857
tp1182
aa(lp1183
(g1180
F-0.0009504693413816857
tp1184
ag3
(g7
S'\xf2\x1cL}B.\xb6\xbc'
p1185
tp1186
Rp1187
aI84767841196
aF1.0
aF0.00017375761313832537
ag3
(g7
S'3\x12e\x83"\x1f\t\xc0'
p1188
tp1189
Rp1190
a(F-3.1401837715458583
g1180
tp1191
a(F-3.1401837715458583
F-0.0009765624999717883
tp1192
aa.