(lp0
(lp1
(F0.8812009640651985
F-0.00024414062497830506
tp2
acnumpy.core.multiarray
scalar
p3
(cnumpy
dtype
p4
(S'f8'
p5
I0
I1
tp6
Rp7
(I3
S'<'
p8
NNNI-1
I-1
I0
tp9
bS"'\x12g,L\xa1\xa6<"
p10
tp11
Rp12
aI125000000000
aF1.0
aF-0.5002343815671717
ag3
(g7
S'l\xf4\x85\xea\xda2\xec?'
p13
tp14
Rp15
a(g3
(g7
S'lE\xd0w\xe92\xec?'
p16
tp17
Rp18
F0.8812009640651985
tp19
a(g18
F-0.00022451216937734186
tp20
aa(lp21
(g18
F-0.00022451216937734186
tp22
ag3
(g7
S'jop\x9d=\xa1\xa6<'
p23
tp24
Rp25
aI125000000000
aF1.0
aF-0.5002147441839465
ag3
(g7
S'l\x96\x1a\x05\xf82\xec?'
p26
tp27
Rp28
a(g3
(g7
S'l\xe7d\x92\x063\xec?'
p29
tp30
Rp31
g18
tp32
a(g31
F-0.0002048839064558715
tp33
aa(lp34
(g31
F-0.0002048839064558715
tp35
ag3
(g7
S'\xdd@\x9f\x0e/\xa1\xa6<'
p36
tp37
Rp38
aI125000000000
aF1.0
aF-0.5001951079266213
ag3
(g7
S'l8\xaf\x1f\x153\xec?'
p39
tp40
Rp41
a(g3
(g7
S'l\x89\xf9\xac#3\xec?'
p42
tp43
Rp44
g31
tp45
a(g44
F-0.0001852558362063302
tp46
aa(lp47
(g44
F-0.0001852558362063302
tp48
ag3
(g7
S')\x86\xf3\x7f \xa1\xa6<'
p49
tp50
Rp51
aI125000000000
aF1.0
aF-0.5001754727951958
ag3
(g7
S'l\xdaC:23\xec?'
p52
tp53
Rp54
a(g3
(g7
S'l+\x8e\xc7@3\xec?'
p55
tp56
Rp57
g44
tp58
a(g57
F-0.00016562795862115452
tp59
aa(lp60
(g57
F-0.00016562795862115452
tp61
ag3
(g7
S'\xae>m\xf1\x11\xa1\xa6<'
p62
tp63
Rp64
aI125000000000
aF1.0
aF-0.5001558382267204
ag3
(g7
S'l|\xd8TO3\xec?'
p65
tp66
Rp67
a(g3
(g7
S'l\xcd"\xe2]3\xec?'
p68
tp69
Rp70
g57
tp71
a(g70
F-0.00014600027369278146
tp72
aa(lp73
(g70
F-0.00014600027369278146
tp74
ag3
(g7
S'\x0cj\x0cc\x03\xa1\xa6<'
p75
tp76
Rp77
aI125000000000
aF1.0
aF-0.5001362053470948
ag3
(g7
S'l\x1emol3\xec?'
p78
tp79
Rp80
a(g3
(g7
S'lo\xb7\xfcz3\xec?'
p81
tp82
Rp83
g70
tp84
a(g83
F-0.00012637278141364834
tp85
aa(lp86
(g3
(g7
S'l\xc0\x01\x8a\x893\xec?'
p87
tp88
Rp89
F-0.00011655910751518353
tp90
ag3
(g7
S'\t2[x\xf8\xa0\xa6<'
p91
tp92
Rp93
aI62500000000
aF1.0
aF-0.5001214802651632
ag3
(g7
S'\xec\x97\\C\x823\xec?'
p94
tp95
Rp96
a(g89
g83
tp97
a(g83
F-0.00012637278141364834
tp98
aa(lp99
(g89
F-0.00011655910751518353
tp100
ag3
(g7
S'm\xddF1\xf1\xa0\xa6<'
p101
tp102
Rp103
aI62500000000
aF1.0
aF-0.5001116646697753
ag3
(g7
S'\xec\xe8\xa6\xd0\x903\xec?'
p104
tp105
Rp106
a(g3
(g7
S'l\x11L\x17\x983\xec?'
p107
tp108
Rp109
g89
tp110
a(g109
F-0.00010674548177619287
tp111
aa(lp112
(g109
F-0.00010674548177619287
tp113
ag3
(g7
S'=\xe5;\xea\xe9\xa0\xa6<'
p114
tp115
Rp116
aI62500000000
aF1.0
aF-0.5001018490743875
ag3
(g7
S'\xec9\xf1]\x9f3\xec?'
p117
tp118
Rp119
a(g3
(g7
S'lb\x96\xa4\xa63\xec?'
p120
tp121
Rp122
g109
tp123
a(g122
F-9.693190419573113e-05
tp124
aa(lp125
(g122
F-9.693190419573113e-05
tp126
ag3
(g7
S'oI:\xa3\xe2\xa0\xa6<'
p127
tp128
Rp129
aI62500000000
aF1.0
aF-0.5000920334789997
ag3
(g7
S'\xec\x8a;\xeb\xad3\xec?'
p130
tp131
Rp132
a(F0.8813119863676611
g122
tp133
a(F0.8813119863676611
F-8.71183747728531e-05
tp134
aa(lp135
(F0.8813119863676611
F-8.71183747728531e-05
tp136
ag3
(g7
S'\xdb\xa2\x13\xf6\xda\xa0\xa6<'
p137
tp138
Rp139
aI69356168216
aF1.0
aF-0.5000816798071384
ag3
(g7
S'xE\xdaD\xbd3\xec?'
p140
tp141
Rp142
a(g3
(g7
S'\x84\xd7\xd3W\xc53\xec?'
p143
tp144
Rp145
F0.8813119863676611
tp146
a(g145
F-7.62283703841526e-05
tp147
aa(lp148
(g145
F-7.62283703841526e-05
tp149
ag3
(g7
S'Bc\xc9\xe2\xd2\xa0\xa6<'
p150
tp151
Rp152
aI69356168215
aF1.0
aF-0.5000707886569976
ag3
(g7
S'\x90i\xcdj\xcd3\xec?'
p153
tp154
Rp155
a(g3
(g7
S'\x9b\xfb\xc6}\xd53\xec?'
p156
tp157
Rp158
g145
tp159
a(g158
F-6.533842529590403e-05
tp160
aa(lp161
(g3
(g7
S'\xb2\x1f\xba\xa3\xe53\xec?'
p162
tp163
Rp164
F-5.444853950665884e-05
tp165
ag3
(g7
S'i\xaa\x8a\xcf\xca\xa0\xa6<'
p166
tp167
Rp168
aI69356168215
aF1.0
aF-0.5000598974924363
ag3
(g7
S'\xa6\x8d\xc0\x90\xdd3\xec?'
p169
tp170
Rp171
a(g164
g158
tp172
a(g158
F-6.533842529590403e-05
tp173
aa(lp174
(g164
F-5.444853950665884e-05
tp175
ag3
(g7
S':xW\xbc\xc2\xa0\xa6<'
p176
tp177
Rp178
aI69356168216
aF1.0
aF-0.5000490063134553
ag3
(g7
S'\xbe\xb1\xb3\xb6\xed3\xec?'
p179
tp180
Rp181
a(g3
(g7
S'\xcaC\xad\xc9\xf53\xec?'
p182
tp183
Rp184
g164
tp185
a(g184
F-4.355871301496851e-05
tp186
aa(lp187
(g184
F-4.355871301496851e-05
tp188
ag3
(g7
S'\x9c\xcc/\xa9\xba\xa0\xa6<'
p189
tp190
Rp191
aI69356168215
aF1.0
aF-0.5000381151633138
ag3
(g7
S'\xd6\xd5\xa6\xdc\xfd3\xec?'
p192
tp193
Rp194
a(g3
(g7
S'\xe1g\xa0\xef\x054\xec?'
p195
tp196
Rp197
g184
tp198
a(g197
F-3.266894581985561e-05
tp199
aa(lp200
(g3
(g7
S'\xf8\x8b\x93\x15\x164\xec?'
p201
tp202
Rp203
F-2.177923791987168e-05
tp204
ag3
(g7
S'\x84\xa7\x13\x96\xb2\xa0\xa6<'
p205
tp206
Rp207
aI69356168215
aF1.0
aF-0.5000272246844788
ag3
(g7
S'\xec\xf9\x99\x02\x0e4\xec?'
p208
tp209
Rp210
a(g203
g197
tp211
a(g197
F-3.266894581985561e-05
tp212
aa(lp213
(g203
F-2.177923791987168e-05
tp214
ag3
(g7
S'\xb5\xbf\xc5\x87\xac\xa0\xa6<'
p215
tp216
Rp217
aI34678084108
aF1.0
aF-0.5000190574395165
ag3
(g7
S'\xfeT\x10\x1f\x1a4\xec?'
p218
tp219
Rp220
a(g3
(g7
S'\x04\x1e\x8d(\x1e4\xec?'
p221
tp222
Rp223
g203
tp224
a(g223
F-1.6334406205071014e-05
tp225
aa(lp226
(g3
(g7
S'\x10\xb0\x86;&4\xec?'
p227
tp228
Rp229
F-1.0889589313568315e-05
tp230
ag3
(g7
S'\xfdQ@~\xa8\xa0\xa6<'
p231
tp232
Rp233
aI34678084108
aF1.0
aF-0.5000136123143869
ag3
(g7
S'\n\xe7\t2"4\xec?'
p234
tp235
Rp236
a(g229
g223
tp237
a(g223
F-1.6334406205071014e-05
tp238
aa(lp239
(g3
(g7
S'\x1cB\x80N.4\xec?'
p240
tp241
Rp242
F-5.444787245202172e-06
tp243
ag3
(g7
S'\xd2\xc5\xbdt\xa4\xa0\xa6<'
p244
tp245
Rp246
aI34678084108
aF1.0
aF-0.5000081671892573
ag3
(g7
S'\x16y\x03E*4\xec?'
p247
tp248
Rp249
a(g242
g229
tp250
a(g229
F-1.0889589313568315e-05
tp251
aa(lp252
(g3
(g7
S'"\x0b\xfdW24\xec?'
p253
tp254
Rp255
F-2.722391769644864e-06
tp256
ag3
(g7
S'\xaf\xa9\x9dm\xa1\xa0\xa6<'
p257
tp258
Rp259
aI17339042054
aF1.0
aF-0.500004083002547
ag3
(g7
S'\x9f\xa6>S04\xec?'
p260
tp261
Rp262
a(g255
g242
tp263
a(g242
F-5.444787245202172e-06
tp264
aa(lp265
(g3
(g7
S'\xa4o\xbb\\44\xec?'
p266
tp267
Rp268
F-1.3611954216708332e-06
tp269
ag3
(g7
S'\xf6<\x0e\xea\x9f\xa0\xa6<'
p270
tp271
Rp272
aI8669521026
aF1.0
aF-0.5000020405673878
ag3
(g7
S'c=\\Z34\xec?'
p273
tp274
Rp275
a(g268
g255
tp276
a(g255
F-2.722391769644864e-06
tp277
aa(lp278
(F0.881373587019543
F3.1827525243774055e-17
tp279
ag3
(g7
S'\x9b\xdc\xae\xe7\x9e\xa0\xa6<'
p280
tp281
Rp282
aI8669521027
aF1.0
aF-0.5000006804279236
ag3
(g7
S'\xe6\xa1\x1a_54\xec?'
p283
tp284
Rp285
a(F0.881373587019543
g268
tp286
a(g268
F-1.3611954216708332e-06
tp287
aa(lp288
(F0.881373587019543
F3.1827525243774055e-17
tp289
ag3
(g7
S'\xb675\x97\x9d\xa0\xa6<'
p290
tp291
Rp292
aI13910957947
aF1.0
aF-0.49999890802295255
ag3
(g7
S'\xe4\x03\x0e\x0084\xec?'
p293
tp294
Rp295
a(g3
(g7
S'\xa23\xa2\x9e94\xec?'
p296
tp297
Rp298
F0.881373587019543
tp299
a(g298
F2.1841478239720155e-06
tp300
aa(lp301
(g298
F2.1841478239720155e-06
tp302
ag3
(g7
S'\xa7~\xa1\xf8\x9b\xa0\xa6<'
p303
tp304
Rp305
aI13910957946
aF1.0
aF-0.49999672379881277
ag3
(g7
S'_c6=;4\xec?'
p306
tp307
Rp308
a(g3
(g7
S'\x1c\x93\xca\xdb<4\xec?'
p309
tp310
Rp311
g298
tp312
a(g311
F4.3682932625121505e-06
tp313
aa(lp314
(g311
F4.3682932625121505e-06
tp315
ag3
(g7
S's\xd6\xc4\x8a\x99\xa0\xa6<'
p316
tp317
Rp318
aI27821915892
aF1.0
aF-0.4999934475323309
ag3
(g7
S'\x96\xf2\xf2\x18@4\xec?'
p319
tp320
Rp321
a(g3
(g7
S'\x10R\x1bVC4\xec?'
p322
tp323
Rp324
g311
tp325
a(g324
F8.736576983904969e-06
tp326
aa(lp327
(g324
F8.736576983904969e-06
tp328
ag3
(g7
S'\xd1\xc4\x0e\xaf\x94\xa0\xa6<'
p329
tp330
Rp331
aI55643831784
aF1.0
aF-0.49998689517692335
ag3
(g7
S'\x04\x11l\xd0I4\xec?'
p332
tp333
Rp334
a(g3
(g7
S'\xf8\xcf\xbcJP4\xec?'
p335
tp336
Rp337
g324
tp338
a(g337
F1.7473115804232533e-05
tp339
aa(lp340
(g337
F1.7473115804232533e-05
tp341
ag3
(g7
S'\xb9\xdb\xcc4\x8e\xa0\xa6<'
p342
tp343
Rp344
aI55643831785
aF1.0
aF-0.4999781592177445
ag3
(g7
S'\xec\x8e\r\xc5V4\xec?'
p345
tp346
Rp347
a(g3
(g7
S'\xe1M^?]4\xec?'
p348
tp349
Rp350
g337
tp351
a(g350
F2.6209616461995362e-05
tp352
aa(lp353
(g350
F2.6209616461995362e-05
tp354
ag3
(g7
S'\x7f]\x92\xba\x87\xa0\xa6<'
p355
tp356
Rp357
aI55643831785
aF1.0
aF-0.4999694234540928
ag3
(g7
S'\xd6\x0c\xaf\xb9c4\xec?'
p358
tp359
Rp360
a(g3
(g7
S'\xca\xcb\xff3j4\xec?'
p361
tp362
Rp363
g350
tp364
a(g363
F3.494607895770326e-05
tp365
aa(lp366
(g363
F3.494607895770326e-05
tp367
ag3
(g7
S'\x1dJ_@\x81\xa0\xa6<'
p368
tp369
Rp370
aI55643831784
aF1.0
aF-0.499960687708411
ag3
(g7
S'\xbe\x8aP\xaep4\xec?'
p371
tp372
Rp373
a(g3
(g7
S'\xb2I\xa1(w4\xec?'
p374
tp375
Rp376
g363
tp377
a(g376
F4.3682503291866014e-05
tp378
aa(lp379
(g376
F4.3682503291866014e-05
tp380
ag3
(g7
S'\x86\xa13\xc6z\xa0\xa6<'
p381
tp382
Rp383
aI55643831785
aF1.0
aF-0.4999519519267893
ag3
(g7
S'\xa6\x08\xf2\xa2}4\xec?'
p384
tp385
Rp386
a(g3
(g7
S'\x9b\xc7B\x1d\x844\xec?'
p387
tp388
Rp389
g376
tp390
a(g389
F5.241888946546443e-05
tp391
aa(lp392
(g389
F5.241888946546443e-05
tp393
ag3
(g7
S'\xa7c\x0fLt\xa0\xa6<'
p394
tp395
Rp396
aI55643831785
aF1.0
aF-0.4999432161631376
ag3
(g7
S'\x90\x86\x93\x97\x8a4\xec?'
p397
tp398
Rp399
a(g3
(g7
S'\x84E\xe4\x11\x914\xec?'
p400
tp401
Rp402
g389
tp403
a(g402
F6.115523747900825e-05
tp404
aa(lp405
(g402
F6.115523747900825e-05
tp406
ag3
(g7
S'\x84\x90\xf2\xd1m\xa0\xa6<'
p407
tp408
Rp409
aI55643831784
aF1.0
aF-0.4999344797072302
ag3
(g7
S'x\x045\x8c\x974\xec?'
p410
tp411
Rp412
a(F0.8814230086701236
g402
tp413
a(F0.8814230086701236
F6.989154733300724e-05
tp414
aa(lp415
(F0.8814230086701236
F6.989154733300724e-05
tp416
ag3
(g7
S'\xe7\xed\xb6\xf1f\xa0\xa6<'
p417
tp418
Rp419
aI62500000000
aF1.0
aF-0.49992520776390287
ag3
(g7
S'\xec\xeb*M\xa54\xec?'
p420
tp421
Rp422
a(g3
(g7
S'l\x14\xd0\x93\xac4\xec?'
p423
tp424
Rp425
F0.8814230086701236
tp426
a(g425
F7.970425822155603e-05
tp427
aa(lp428
(g425
F7.970425822155603e-05
tp429
ag3
(g7
S'\xe7\xc6]\xab_\xa0\xa6<'
p430
tp431
Rp432
aI62500000000
aF1.0
aF-0.4999153955462147
ag3
(g7
S'\xec<u\xda\xb34\xec?'
p433
tp434
Rp435
a(g3
(g7
S'le\x1a!\xbb4\xec?'
p436
tp437
Rp438
g425
tp439
a(g438
F8.951692096953084e-05
tp440
aa(lp441
(g438
F8.951692096953084e-05
tp442
ag3
(g7
S'\x1f\xfb\reX\xa0\xa6<'
p443
tp444
Rp445
aI62500000000
aF1.0
aF-0.4999055855803264
ag3
(g7
S'\xec\x8d\xbfg\xc24\xec?'
p446
tp447
Rp448
a(g3
(g7
S'l\xb6d\xae\xc94\xec?'
p449
tp450
Rp451
g438
tp452
a(g451
F9.932953557787641e-05
tp453
aa(lp454
(g451
F9.932953557787641e-05
tp455
ag3
(g7
S'\xa0\x8a\xc7\x1eQ\xa0\xa6<'
p456
tp457
Rp458
aI62500000000
aF1.0
aF-0.49989577448853817
ag3
(g7
S'\xec\xde\t\xf5\xd04\xec?'
p459
tp460
Rp461
a(g3
(g7
S'l\x07\xaf;\xd84\xec?'
p462
tp463
Rp464
g451
tp465
a(g464
F0.00010914210204753753
tp466
aa(lp467
(g464
F0.00010914210204753753
tp468
ag3
(g7
S'5u\x8a\xd8I\xa0\xa6<'
p469
tp470
Rp471
aI62500000000
aF1.0
aF-0.49988596452264983
ag3
(g7
S'\xec/T\x82\xdf4\xec?'
p472
tp473
Rp474
a(g3
(g7
S'lX\xf9\xc8\xe64\xec?'
p475
tp476
Rp477
g464
tp478
a(g477
F0.00011895462037945888
tp479
aa(lp480
(g477
F0.00011895462037945888
tp481
ag3
(g7
S'\xe8\xbaV\x92B\xa0\xa6<'
p482
tp483
Rp484
aI62500000000
aF1.0
aF-0.4998761556826614
ag3
(g7
S'\xec\x80\x9e\x0f\xee4\xec?'
p485
tp486
Rp487
a(g3
(g7
S'l\xa9CV\xf54\xec?'
p488
tp489
Rp490
g477
tp491
a(g490
F0.00012876709057458517
tp492
aa(lp493
(g490
F0.00012876709057458517
tp494
ag3
(g7
S'z\xd9\x1b\xa97\xa0\xa6<'
p495
tp496
Rp497
aI125000000000
aF1.0
aF-0.49986143960792906
ag3
(g7
S'l\xfa\x8d\xe3\x035\xec?'
p498
tp499
Rp500
a(g3
(g7
S'lK\xd8p\x125\xec?'
p501
tp502
Rp503
g490
tp504
a(g503
F0.00014839188655823123
tp505
aa(lp506
(g503
F0.00014839188655823123
tp507
ag3
(g7
S'\xaa\x86\xec\x1c)\xa0\xa6<'
p508
tp509
Rp510
aI125000000000
aF1.0
aF-0.4998418208020523
ag3
(g7
S'l\x9c"\xfe 5\xec?'
p511
tp512
Rp513
a(g3
(g7
S'l\xedl\x8b/5\xec?'
p514
tp515
Rp516
g503
tp517
a(g516
F0.00016801649000603282
tp518
aa(lp519
(g516
F0.00016801649000603282
tp520
ag3
(g7
S'%\x9f\xe2\x90\x1a\xa0\xa6<'
p521
tp522
Rp523
aI125000000000
aF1.0
aF-0.4998222031220755
ag3
(g7
S'l>\xb7\x18>5\xec?'
p524
tp525
Rp526
a(g3
(g7
S'l\x8f\x01\xa6L5\xec?'
p527
tp528
Rp529
g516
tp530
a(g529
F0.00018764090092554666
tp531
aa(lp532
(g529
F0.00018764090092554666
tp533
ag3
(g7
S'v"\xfe\x04\x0c\xa0\xa6<'
p534
tp535
Rp536
aI125000000000
aF1.0
aF-0.4998025865679986
ag3
(g7
S'l\xe0K3[5\xec?'
p537
tp538
Rp539
a(g3
(g7
S'l1\x96\xc0i5\xec?'
p540
tp541
Rp542
g529
tp543
a(g542
F0.00020726511932432913
tp544
aa(lp545
(g542
F0.00020726511932432913
tp546
ag3
(g7
S'\x1c\x10?y\xfd\x9f\xa6<'
p547
tp548
Rp549
aI125000000000
aF1.0
aF-0.49978297001392163
ag3
(g7
S'l\x82\xe0Mx5\xec?'
p550
tp551
Rp552
a(F0.8815340309725861
g542
tp553
a(F0.8815340309725861
F0.0002268891452099362
tp554
aa(lp555
(F0.8815340309725861
F0.0002268891452099362
tp556
aF1.569907601271424e-16
aI109888504051
aF1.0
aF-0.49976454041738116
ag3
(g7
S'\xe6\x93\x19\xa6\x935\xec?'
p557
tp558
Rp559
a(F0.88154623104732
F0.8815340309725861
tp560
a(F0.88154623104732
F0.00024414062499013726
tp561
aa.