(lp0
(lp1
(F0.3724760811272706
F-0.00012207031248053177
tp2
acnumpy.core.multiarray
scalar
p3
(cnumpy
dtype
p4
(S'f8'
p5
I0
I1
tp6
Rp7
(I3
S'<'
p8
NNNI-1
I-1
I0
tp9
bS'\x1f\xacD;\xd8+\xaf<'
p10
tp11
Rp12
aI70548109256
aF1.0
aF-3.2821826504664844
ag3
(g7
S'\x9eS>!\xae\xd6\xd7?'
p13
tp14
Rp15
a(g3
(g7
S'\x82\xaf\xbdW\xb6\xd6\xd7?'
p16
tp17
Rp18
F0.3724760811272706
tp19
a(g18
F-0.00010681117107670649
tp20
aa(lp21
(g18
F-0.00010681117107670649
tp22
ag3
(g7
S'\xfe\n\xeb\xc0\xca+\xaf<'
p23
tp24
Rp25
aI70548109256
aF1.0
aF-3.2821060046508466
ag3
(g7
S'f\x0b=\x8e\xbe\xd6\xd7?'
p26
tp27
Rp28
a(g3
(g7
S'Jg\xbc\xc4\xc6\xd6\xd7?'
p29
tp30
Rp31
g18
tp32
a(g31
F-9.155213034724556e-05
tp33
aa(lp34
(g31
F-9.155213034724556e-05
tp35
ag3
(g7
S'A\n\xa6F\xbd+\xaf<'
p36
tp37
Rp38
aI70548109256
aF1.0
aF-3.2820293659045516
ag3
(g7
S'.\xc3;\xfb\xce\xd6\xd7?'
p39
tp40
Rp41
a(g3
(g7
S'\x12\x1f\xbb1\xd7\xd6\xd7?'
p42
tp43
Rp44
g31
tp45
a(g44
F-7.629319028979805e-05
tp46
aa(lp47
(g3
(g7
S'\xdb\xd6\xb9\x9e\xe7\xd6\xd7?'
p48
tp49
Rp50
F-6.1034350901796774e-05
tp51
ag3
(g7
S'\xc3\xa9u\xcc\xaf+\xaf<'
p52
tp53
Rp54
aI70548109257
aF1.0
aF-3.281952719995872
ag3
(g7
S'\xf6z:h\xdf\xd6\xd7?'
p55
tp56
Rp57
a(g50
g44
tp58
a(g44
F-7.629319028979805e-05
tp59
aa(lp60
(g50
F-6.1034350901796774e-05
tp61
ag3
(g7
S'I\xe9YR\xa2+\xaf<'
p62
tp63
Rp64
aI70548109257
aF1.0
aF-3.281876083016915
ag3
(g7
S'\xc029\xd5\xef\xd6\xd7?'
p65
tp66
Rp67
a(g3
(g7
S'\xa4\x8e\xb8\x0b\xf8\xd6\xd7?'
p68
tp69
Rp70
g50
tp71
a(g70
F-4.577561218110726e-05
tp72
aa(lp73
(g3
(g7
S'lF\xb7x\x08\xd7\xd7?'
p74
tp75
Rp76
F-3.0516974125595055e-05
tp77
ag3
(g7
S'\xbe\xc8R\xd8\x94+\xaf<'
p78
tp79
Rp80
aI70548109256
aF1.0
aF-3.281799447898331
ag3
(g7
S'\x88\xea7B\x00\xd7\xd7?'
p81
tp82
Rp83
a(g76
g70
tp84
a(g70
F-4.577561218110726e-05
tp85
aa(lp86
(g76
F-3.0516974125595055e-05
tp87
ag3
(g7
S',T\xda\xbc\x8a+\xaf<'
p88
tp89
Rp90
aI35274054628
aF1.0
aF-3.2817419688386096
ag3
(g7
S'^\xf4\xf6\x93\x0c\xd7\xd7?'
p91
tp92
Rp93
a(g3
(g7
S'P\xa26\xaf\x10\xd7\xd7?'
p94
tp95
Rp96
g76
tp97
a(g96
F-2.2887692846464757e-05
tp98
aa(lp99
(g3
(g7
S'4\xfe\xb5\xe5\x18\xd7\xd7?'
p100
tp101
Rp102
F-1.5258436732693226e-05
tp103
ag3
(g7
S'\xab;\xe6\xff\x83+\xaf<'
p104
tp105
Rp106
aI35274054628
aF1.0
aF-3.281703653000134
ag3
(g7
S'BPv\xca\x14\xd7\xd7?'
p107
tp108
Rp109
a(g102
g96
tp110
a(g96
F-2.2887692846464757e-05
tp111
aa(lp112
(g3
(g7
S'\x18Z5\x1c!\xd7\xd7?'
p113
tp114
Rp115
F-7.629205783986644e-06
tp116
ag3
(g7
S'\rK\xf7B}+\xaf<'
p117
tp118
Rp119
aI35274054628
aF1.0
aF-3.2816653389289936
ag3
(g7
S'&\xac\xf5\x00\x1d\xd7\xd7?'
p120
tp121
Rp122
a(g115
g102
tp123
a(g102
F-1.5258436732693226e-05
tp124
aa(lp125
(g3
(g7
S'\n\x08u7%\xd7\xd7?'
p126
tp127
Rp128
F-3.814599746440892e-06
tp129
ag3
(g7
S'\x7fOG5x+\xaf<'
p130
tp131
Rp132
aI17637027314
aF1.0
aF-3.2816366002828006
ag3
(g7
S'\x111\xd5)#\xd7\xd7?'
p133
tp134
Rp135
a(g128
g115
tp136
a(g115
F-7.629205783986644e-06
tp137
aa(lp138
(g3
(g7
S"\x03\xdf\x14E'\xd7\xd7?"
p139
tp140
Rp141
F-1.907299086853833e-06
tp142
ag3
(g7
S'orp\xaeu+\xaf<'
p143
tp144
Rp145
aI8818513657
aF1.0
aF-3.281622231843372
ag3
(g7
S'\x86\xf3D>&\xd7\xd7?'
p146
tp147
Rp148
a(g141
g128
tp149
a(g128
F-3.814599746440892e-06
tp150
aa(lp151
(F0.3725074107813666
F-5.1196989365556847e-17
tp152
ag3
(g7
S'\xb8\xf76\xffs+\xaf<'
p153
tp154
Rp155
aI8818513657
aF1.0
aF-3.2816126564184245
ag3
(g7
S'\x80\xca\xe4K(\xd7\xd7?'
p156
tp157
Rp158
a(F0.3725074107813666
g141
tp159
a(g141
F-1.907299086853833e-06
tp160
aa(lp161
(F0.3725074107813666
F-5.1196989365556847e-17
tp162
ag3
(g7
S'\xb8\xe5\xfaOr+\xaf<'
p163
tp164
Rp165
aI8818979080
aF1.0
aF-3.2816030806765326
ag3
(g7
S'\x80.\x88Y*\xd7\xd7?'
p166
tp167
Rp168
a(g3
(g7
S'\x04\xa7[`+\xd7\xd7?'
p169
tp170
Rp171
F0.3725074107813666
tp172
a(g171
F1.907398177167171e-06
tp173
aa(lp174
(g171
F1.907398177167171e-06
tp175
ag3
(g7
S'r<\xbc\xa0p+\xaf<'
p176
tp177
Rp178
aI8818979081
aF1.0
aF-3.2815935055180354
ag3
(g7
S'\x88\x1f/g,\xd7\xd7?'
p179
tp180
Rp181
a(g3
(g7
S'\r\x98\x02n-\xd7\xd7?'
p182
tp183
Rp184
g171
tp185
a(g184
F3.81479478166056e-06
tp186
aa(lp187
(g184
F3.81479478166056e-06
tp188
ag3
(g7
S'\x8c\xe3\xde\x19n+\xaf<'
p189
tp190
Rp191
aI17637958161
aF1.0
aF-3.2815791283643727
ag3
(g7
S'\x16\x89\xa9{/\xd7\xd7?'
p192
tp193
Rp194
a(g3
(g7
S'\x1ezP\x891\xd7\xd7?'
p195
tp196
Rp197
g184
tp198
a(g197
F7.629583271625637e-06
tp199
aa(lp200
(g197
F7.629583271625637e-06
tp201
ag3
(g7
S'1s&\x0ci+\xaf<'
p202
tp203
Rp204
aI35275916322
aF1.0
aF-3.281550390984327
ag3
(g7
S'/\\\x9e\xa45\xd7\xd7?'
p205
tp206
Rp207
a(g3
(g7
S'@>\xec\xbf9\xd7\xd7?'
p208
tp209
Rp210
g197
tp211
a(g210
F1.525914137646267e-05
tp212
aa(lp213
(g210
F1.525914137646267e-05
tp214
ag3
(g7
S'\xff\xd34Ob+\xaf<'
p215
tp216
Rp217
aI35275916322
aF1.0
aF-3.2815120791899974
ag3
(g7
S'Q :\xdb=\xd7\xd7?'
p218
tp219
Rp220
a(g3
(g7
S'b\x02\x88\xf6A\xd7\xd7?'
p221
tp222
Rp223
g210
tp224
a(g223
F2.2888674314753742e-05
tp225
aa(lp226
(g223
F2.2888674314753742e-05
tp227
ag3
(g7
S'\xc3\\H\x92[+\xaf<'
p228
tp229
Rp230
aI35275916323
aF1.0
aF-3.281473760141025
ag3
(g7
S't\xe4\xd5\x11F\xd7\xd7?'
p231
tp232
Rp233
a(g3
(g7
S'\x85\xc6#-J\xd7\xd7?'
p234
tp235
Rp236
g223
tp237
a(g236
F3.051818208700899e-05
tp238
aa(lp239
(g236
F3.051818208700899e-05
tp240
ag3
(g7
S'\xa0\xf9\xefvQ+\xaf<'
p241
tp242
Rp243
aI70551832645
aF1.0
aF-3.2814162907754056
ag3
(g7
S'\xa8\x8a\xbfcR\xd7\xd7?'
p244
tp245
Rp246
a(g3
(g7
S'\xcaN[\x9aZ\xd7\xd7?'
p247
tp248
Rp249
g236
tp250
a(g249
F4.5777122133722216e-05
tp251
aa(lp252
(g249
F4.5777122133722216e-05
tp253
ag3
(g7
S'X\xfa5\xfdC+\xaf<'
p254
tp255
Rp256
aI70551832644
aF1.0
aF-3.281339665512619
ag3
(g7
S'\xec\x12\xf7\xd0b\xd7\xd7?'
p257
tp258
Rp259
a(g3
(g7
S'\x0e\xd7\x92\x07k\xd7\xd7?'
p260
tp261
Rp262
g249
tp263
a(g262
F6.103596151873672e-05
tp264
aa(lp265
(g262
F6.103596151873672e-05
tp266
ag3
(g7
S'e\x9a\x90\x836+\xaf<'
p267
tp268
Rp269
aI70551832644
aF1.0
aF-3.2812630419239595
ag3
(g7
S'0\x9b.>s\xd7\xd7?'
p270
tp271
Rp272
a(g3
(g7
S'R_\xcat{\xd7\xd7?'
p273
tp274
Rp275
g262
tp276
a(g275
F7.629470024461937e-05
tp277
aa(lp278
(g275
F7.629470024461937e-05
tp279
ag3
(g7
S'\x89\xd9\xff\t)+\xaf<'
p280
tp281
Rp282
aI70551832645
aF1.0
aF-3.2811864217765834
ag3
(g7
S't#f\xab\x83\xd7\xd7?'
p283
tp284
Rp285
a(g3
(g7
S'\x97\xe7\x01\xe2\x8b\xd7\xd7?'
p286
tp287
Rp288
g275
tp289
a(g288
F9.155333831393693e-05
tp290
aa(lp291
(g288
F9.155333831393693e-05
tp292
ag3
(g7
S'\xb4\xb7\x83\x90\x1b+\xaf<'
p293
tp294
Rp295
aI70551832645
aF1.0
aF-3.281109801722225
ag3
(g7
S'\xba\xab\x9d\x18\x94\xd7\xd7?'
p296
tp297
Rp298
a(g3
(g7
S'\xdco9O\x9c\xd7\xd7?'
p299
tp300
Rp301
g288
tp302
a(g301
F0.0001068118757288236
tp303
aa(lp304
(g301
F0.0001068118757288236
tp305
ag3
(g7
S'\xa04\x1c\x17\x0e+\xaf<'
p306
tp307
Rp308
aI70551832644
aF1.0
aF-3.2810331888294733
ag3
(g7
S'\xfe3\xd5\x85\xa4\xd7\xd7?'
p309
tp310
Rp311
a(F0.3725387420889792
g301
tp312
a(F0.3725387420889792
F0.00012207031249141342
tp313
aa.