(lp0
(lp1
(F4.493340628202902
F1.4952355826733616e-05
tp2
acnumpy.core.multiarray
scalar
p3
(cnumpy
dtype
p4
(S'f8'
p5
I0
I1
tp6
Rp7
(I3
S'<'
p8
NNNI-1
I-1
I0
tp9
bS'K\xf5/\x99\x80\xce\xab\xbc'
p10
tp11
Rp12
aI19373839939
aF1.0
aF0.048340994175740226
ag3
(g7
S'\xc2X\x82\x8a0\xf9\x11@'
p13
tp14
Rp15
a(g3
(g7
S'\xe4\x03\xe5\xcb2\xf9\x11@'
p16
tp17
Rp18
F4.493340628202902
tp19
a(g18
F1.1214223928222293e-05
tp20
aa(lp21
(g3
(g7
S"'Z\xaaN7\xf9\x11@"
p22
tp23
Rp24
F7.47612065714952e-06
tp25
ag3
(g7
S'p\x01}\xa4r\xce\xab\xbc'
p26
tp27
Rp28
aI19373839939
aF1.0
aF0.04834212267752945
ag3
(g7
S'\x06\xafG\r5\xf9\x11@'
p29
tp30
Rp31
a(g24
g18
tp32
a(g18
F1.1214223928222293e-05
tp33
aa(lp34
(g24
F7.47612065714952e-06
tp35
ag3
(g7
S'ar\xe9,h\xce\xab\xbc'
p36
tp37
Rp38
aI9686919969
aF1.0
aF0.04834296905314056
ag3
(g7
S'\xb8\xaf[o8\xf9\x11@'
p39
tp40
Rp41
a(g3
(g7
S'H\x05\r\x909\xf9\x11@'
p42
tp43
Rp44
g24
tp45
a(g44
F5.607079757207903e-06
tp46
aa(lp47
(g3
(g7
S'j\xb0o\xd1;\xf9\x11@'
p48
tp49
Rp50
F3.7380460141835883e-06
tp51
ag3
(g7
S'\x08\xf5\x7f2a\xce\xab\xbc'
p52
tp53
Rp54
aI9686919970
aF1.0
aF0.04834353325972593
ag3
(g7
S'\xd9Z\xbe\xb0:\xf9\x11@'
p55
tp56
Rp57
a(g50
g44
tp58
a(g44
F5.607079757207903e-06
tp59
aa(lp60
(g3
(g7
S'\x8c[\xd2\x12>\xf9\x11@'
p61
tp62
Rp63
F1.8690194283530554e-06
tp64
ag3
(g7
S'C!\x118Z\xce\xab\xbc'
p65
tp66
Rp67
aI9686919970
aF1.0
aF0.04834409754494858
ag3
(g7
S'\xfb\x05!\xf2<\xf9\x11@'
p68
tp69
Rp70
a(g63
g50
tp71
a(g50
F3.7380460141835883e-06
tp72
aa(lp73
(g3
(g7
S'\x1c\xb1\x833?\xf9\x11@'
p74
tp75
Rp76
F9.345088196045046e-07
tp77
ag3
(g7
S'g\xac:\xfcT\xce\xab\xbc'
p78
tp79
Rp80
aI4843459984
aF1.0
aF0.04834452069300813
ag3
(g7
S'T\x06+\xa3>\xf9\x11@'
p81
tp82
Rp83
a(g76
g63
tp84
a(g63
F1.8690194283530554e-06
tp85
aa(lp86
(g3
(g7
S'\xe4[\xdc\xc3?\xf9\x11@'
p87
tp88
Rp89
F4.6725418622824033e-07
tp90
ag3
(g7
S'\x13GN^R\xce\xab\xbc'
p91
tp92
Rp93
aI2421729992
aF1.0
aF0.04834473242869707
ag3
(g7
S'\x80\x06\xb0{?\xf9\x11@'
p94
tp95
Rp96
a(g89
g76
tp97
a(g76
F9.345088196045046e-07
tp98
aa(lp99
(F4.493409457909064
F-7.218300729428198e-18
tp100
ag3
(g7
S'P<\xb0\x9fP\xce\xab\xbc'
p101
tp102
Rp103
aI2421729993
aF1.0
aF0.04834487338569936
ag3
(g7
S'H\xb1\x08\x0c@\xf9\x11@'
p104
tp105
Rp106
a(F4.493409457909064
g89
tp107
a(g89
F4.6725418622824033e-07
tp108
aa(lp109
(F4.493409457909064
F-7.218300729428198e-18
tp110
ag3
(g7
S'\x06\xb6q\xf3N\xce\xab\xbc'
p111
tp112
Rp113
aI2222464707
aF1.0
aF0.04834500863529769
ag3
(g7
S'\x0e\x16q\x96@\xf9\x11@'
p114
tp115
Rp116
a(g3
(g7
S'p%\xad\xd8@\xf9\x11@'
p117
tp118
Rp119
F4.493409457909064
tp120
a(g119
F-4.28807087429678e-07
tp121
aa(lp122
(g119
F-4.28807087429678e-07
tp123
ag3
(g7
S'3\xbd\x92YM\xce\xab\xbc'
p124
tp125
Rp126
aI2222464706
aF1.0
aF0.0483451380502156
ag3
(g7
S'\xd14\xe9\x1aA\xf9\x11@'
p127
tp128
Rp129
a(g3
(g7
S'2D%]A\xf9\x11@'
p130
tp131
Rp132
g119
tp133
a(g132
F-8.576137979099436e-07
tp134
aa(lp135
(g132
F-8.576137979099436e-07
tp136
ag3
(g7
S'\x1d\xb8\xc3\xf2J\xce\xab\xbc'
p137
tp138
Rp139
aI4444929414
aF1.0
aF0.04834533229479963
ag3
(g7
S'\xf5b\x9d\xe1A\xf9\x11@'
p140
tp141
Rp142
a(g3
(g7
S'\xb8\x81\x15fB\xf9\x11@'
p143
tp144
Rp145
g132
tp146
a(g145
F-1.715226089004567e-06
tp147
aa(lp148
(g145
F-1.715226089004567e-06
tp149
ag3
(g7
S'x\xb6#%F\xce\xab\xbc'
p150
tp151
Rp152
aI8889858826
aF1.0
aF0.04834572062100104
ag3
(g7
S'=\xbf\x05oC\xf9\x11@'
p153
tp154
Rp155
a(g3
(g7
S'\xc2\xfc\xf5wD\xf9\x11@'
p156
tp157
Rp158
g145
tp159
a(g158
F-3.4304461497725184e-06
tp160
aa(lp161
(g158
F-3.4304461497725184e-06
tp162
ag3
(g7
S'C\xf5\x9f\xbd?\xce\xab\xbc'
p163
tp164
Rp165
aI8889858827
aF1.0
aF0.04834623842185058
ag3
(g7
S'H:\xe6\x80E\xf9\x11@'
p166
tp167
Rp168
a(g3
(g7
S'\xcdw\xd6\x89F\xf9\x11@'
p169
tp170
Rp171
g158
tp172
a(g171
F-5.145660182632391e-06
tp173
aa(lp174
(g171
F-5.145660182632391e-06
tp175
ag3
(g7
S'F\xb5\x17V9\xce\xab\xbc'
p176
tp177
Rp178
aI8889858827
aF1.0
aF0.04834675623357674
ag3
(g7
S'R\xb5\xc6\x92G\xf9\x11@'
p179
tp180
Rp181
a(g3
(g7
S'\xd8\xf2\xb6\x9bH\xf9\x11@'
p182
tp183
Rp184
g171
tp185
a(g184
F-6.860868187326681e-06
tp186
aa(lp187
(g184
F-6.860868187326681e-06
tp188
ag3
(g7
S'\x80\xf6\x8a\xee2\xce\xab\xbc'
p189
tp190
Rp191
aI8889858826
aF1.0
aF0.0483472739474872
ag3
(g7
S']0\xa7\xa4I\xf9\x11@'
p192
tp193
Rp194
a(g3
(g7
S'\xe2m\x97\xadJ\xf9\x11@'
p195
tp196
Rp197
g184
tp198
a(g197
F-8.576070163597887e-06
tp199
aa(lp200
(g197
F-8.576070163597887e-06
tp201
ag3
(g7
S'\xe9\xb8\xf9\x86,\xce\xab\xbc'
p202
tp203
Rp204
aI8889858827
aF1.0
aF0.04834779185702904
ag3
(g7
S'h\xab\x87\xb6K\xf9\x11@'
p205
tp206
Rp207
a(g3
(g7
S'\xed\xe8w\xbfL\xf9\x11@'
p208
tp209
Rp210
g197
tp211
a(g210
F-1.0291266111767323e-05
tp212
aa(lp213
(g210
F-1.0291266111767323e-05
tp214
ag3
(g7
S'\x07\xdf\x96\xeb"\xce\xab\xbc'
p215
tp216
Rp217
aI17779717653
aF1.0
aF0.04834856849853741
ag3
(g7
S'\xf8cX\xd1N\xf9\x11@'
p218
tp219
Rp220
a(F4.493472624155176
g210
tp221
a(F4.493472624155176
F-1.372163992277089e-05
tp222
aa.