(lp0
(lp1
(F-23.99999999999992
F-0.9999999982313297
tp2
acnumpy.core.multiarray
scalar
p3
(cnumpy
dtype
p4
(S'f8'
p5
I0
I1
tp6
Rp7
(I3
S'<'
p8
NNNI-1
I-1
I0
tp9
bS'\xbbF\xf6\x1e9#\xd5='
p10
tp11
Rp12
aI1625617119
aF1.0
aF-29455.917026902534
ag3
(g7
S'z\x86\x8d\xcf\xff\xff7\xc0'
p13
tp14
Rp15
a(g3
(g7
S'\n\r\x1b\x9f\xff\xff7\xc0'
p16
tp17
Rp18
F-23.99999999999992
tp19
a(g18
F-0.8749931211649624
tp20
aa(lp21
(g18
F-0.8749931211649624
tp22
ag3
(g7
S'\x8as\x8bX##\xd5='
p23
tp24
Rp25
aI1625617120
aF1.0
aF-29455.71633318644
ag3
(g7
S'\x9a\x93\xa8n\xff\xff7\xc0'
p26
tp27
Rp28
a(g3
(g7
S'*\x1a6>\xff\xff7\xc0'
p29
tp30
Rp31
g18
tp32
a(g31
F-0.749988209001129
tp33
aa(lp34
(g31
F-0.749988209001129
tp35
ag3
(g7
S'WY*\x92\r#\xd5='
p36
tp37
Rp38
aI1625617120
aF1.0
aF-29455.515635767584
ag3
(g7
S'\xba\xa0\xc3\r\xff\xff7\xc0'
p39
tp40
Rp41
a(g3
(g7
S"J'Q\xdd\xfe\xff7\xc0"
p42
tp43
Rp44
g31
tp45
a(g44
F-0.6249852618033398
tp46
aa(lp47
(g3
(g7
S'j4l|\xfe\xff7\xc0'
p48
tp49
Rp50
F-0.4999842795582067
tp51
ag3
(g7
S'C\xf8\xd2\xcb\xf7"\xd5='
p52
tp53
Rp54
aI1625617120
aF1.0
aF-29455.31493834873
ag3
(g7
S'\xda\xad\xde\xac\xfe\xff7\xc0'
p55
tp56
Rp57
a(g50
g44
tp58
a(g44
F-0.6249852618033398
tp59
aa(lp60
(g50
F-0.4999842795582067
tp61
ag3
(g7
S'TP\x85\x05\xe2"\xd5='
p62
tp63
Rp64
aI1625617120
aF1.0
aF-29455.114247586946
ag3
(g7
S'\xfa\xba\xf9K\xfe\xff7\xc0'
p65
tp66
Rp67
a(g3
(g7
S'\x8aA\x87\x1b\xfe\xff7\xc0'
p68
tp69
Rp70
g50
tp71
a(g70
F-0.3749852622523412
tp72
aa(lp73
(g3
(g7
S'\xabN\xa2\xba\xfd\xff7\xc0'
p74
tp75
Rp76
F-0.24998820994924628
tp77
ag3
(g7
S'\xacaA?\xcc"\xd5='
p78
tp79
Rp80
aI1625617119
aF1.0
aF-29454.91355312117
ag3
(g7
S'\x1a\xc8\x14\xeb\xfd\xff7\xc0'
p81
tp82
Rp83
a(g76
g70
tp84
a(g70
F-0.3749852622523412
tp85
aa(lp86
(g3
(g7
S'\xcc[\xbdY\xfd\xff7\xc0'
p87
tp88
Rp89
F-0.12499312255863965
tp90
ag3
(g7
S'H,\x07y\xb6"\xd5='
p91
tp92
Rp93
aI1625617119
aF1.0
aF-29454.712849044998
ag3
(g7
S'<\xd5/\x8a\xfd\xff7\xc0'
p94
tp95
Rp96
a(g89
g76
tp97
a(g76
F-0.24998820994924628
tp98
aa(lp99
(g3
(g7
S'\\\xe2J)\xfd\xff7\xc0'
p100
tp101
Rp102
F-0.06249631566289069
tp103
ag3
(g7
S'\xe9\x97a$\xa6"\xd5='
p104
tp105
Rp106
aI812808560
aF1.0
aF-29454.562323028025
ag3
(g7
S'\x14\x1f\x84A\xfd\xff7\xc0'
p107
tp108
Rp109
a(g102
g89
tp110
a(g89
F-0.12499312255863965
tp111
aa(lp112
(g3
(g7
S'\xa4\xa5\x11\x11\xfd\xff7\xc0'
p113
tp114
Rp115
F-0.03124809642378404
tp116
ag3
(g7
S'/\xee\x10\xfa\x9d"\xd5='
p117
tp118
Rp119
aI406404280
aF1.0
aF-29454.487051510347
ag3
(g7
S'\x00D.\x1d\xfd\xff7\xc0'
p120
tp121
Rp122
a(g115
g102
tp123
a(g102
F-0.06249631566289069
tp124
aa(lp125
(g3
(g7
S'H\x07\xf5\x04\xfd\xff7\xc0'
p126
tp127
Rp128
F-0.015624032856331148
tp129
ag3
(g7
S'q!\xe9\xe4\x99"\xd5='
p130
tp131
Rp132
aI203202140
aF1.0
aF-29454.449425737115
ag3
(g7
S'vV\x03\x0b\xfd\xff7\xc0'
p133
tp134
Rp135
a(g128
g115
tp136
a(g115
F-0.03124809642378404
tp137
aa(lp138
(F-23.9999537971825
F9.756319734811011e-12
tp139
ag3
(g7
S'$"$,\x97"\xd5='
p140
tp141
Rp142
aI203202140
aF1.0
aF-29454.424335231222
ag3
(g7
S'\x1a\xb8\xe6\xfe\xfc\xff7\xc0'
p143
tp144
Rp145
a(F-23.9999537971825
g128
tp146
a(g128
F-0.015624032856331148
tp147
aa(lp148
(F-23.9999537971825
F9.756319734811011e-12
tp149
ag3
(g7
S'\xd9\xc8\xffr\x94"\xd5='
p150
tp151
Rp152
aI203419735
aF1.0
aF-29454.399250465336
ag3
(g7
S'\xc0p\xc8\xf2\xfc\xff7\xc0'
p153
tp154
Rp155
a(g3
(g7
S'\x95x\xb8\xec\xfc\xff7\xc0'
p156
tp157
Rp158
F-23.9999537971825
tp159
a(g158
F0.01564073281231785
tp160
aa(lp161
(g158
F0.01564073281231785
tp162
ag3
(g7
S'\x9e\x15|\xb9\x91"\xd5='
p163
tp164
Rp165
aI203419735
aF1.0
aF-29454.374113966027
ag3
(g7
S'j\x80\xa8\xe6\xfc\xff7\xc0'
p166
tp167
Rp168
a(g3
(g7
S'>\x88\x98\xe0\xfc\xff7\xc0'
p169
tp170
Rp171
g158
tp172
a(g171
F0.03128143484777929
tp173
aa(lp174
(g171
F0.03128143484777929
tp175
ag3
(g7
S'\xb8\xd66\xa3\x8d"\xd5='
p176
tp177
Rp178
aI406839470
aF1.0
aF-29454.33646235977
ag3
(g7
S'\xe7\x97x\xd4\xfc\xff7\xc0'
p179
tp180
Rp181
a(g3
(g7
S'\x90\xa7X\xc8\xfc\xff7\xc0'
p182
tp183
Rp184
g171
tp185
a(g184
F0.06256274661750683
tp186
aa(lp187
(g184
F0.06256274661750683
tp188
ag3
(g7
S'\xc6i\xadv\x85"\xd5='
p189
tp190
Rp191
aI813678940
aF1.0
aF-29454.26111264739
ag3
(g7
S'\xe2\xc6\x18\xb0\xfc\xff7\xc0'
p192
tp193
Rp194
a(g3
(g7
S'4\xe6\xd8\x97\xfc\xff7\xc0'
p195
tp196
Rp197
g184
tp198
a(g197
F0.12512500095291512
tp199
aa(lp200
(g197
F0.12512500095291512
tp201
ag3
(g7
S'Z\xd3\x9e\x1du"\xd5='
p202
tp203
Rp204
aI1627357879
aF1.0
aF-29454.110422849968
ag3
(g7
S'\xd8$Yg\xfc\xff7\xc0'
p205
tp206
Rp207
a(g3
(g7
S'}c\xd96\xfc\xff7\xc0'
p208
tp209
Rp210
g197
tp211
a(g210
F0.25024803273653434
tp212
aa(lp213
(g210
F0.25024803273653434
tp214
ag3
(g7
S'\xfb~\x93Q_"\xd5='
p215
tp216
Rp217
aI1627357879
aF1.0
aF-29453.90950356905
ag3
(g7
S'"\xa2Y\x06\xfc\xff7\xc0'
p218
tp219
Rp220
a(g3
(g7
S'\xc6\xe0\xd9\xd5\xfb\xff7\xc0'
p221
tp222
Rp223
g210
tp224
a(g223
F0.37536909545093483
tp225
aa(lp226
(g223
F0.37536909545093483
tp227
ag3
(g7
S'\x0f\xe9\x91\x85I"\xd5='
p228
tp229
Rp230
aI1627357880
aF1.0
aF-29453.70857466129
ag3
(g7
S'j\x1fZ\xa5\xfb\xff7\xc0'
p231
tp232
Rp233
a(g3
(g7
S'\x0e^\xdat\xfb\xff7\xc0'
p234
tp235
Rp236
g223
tp237
a(g236
F0.5004881891864327
tp238
aa(lp239
(g236
F0.5004881891864327
tp240
ag3
(g7
S'\xb1\x11\x9a\xb93"\xd5='
p241
tp242
Rp243
aI1627357879
aF1.0
aF-29453.50765836438
ag3
(g7
S'\xb2\x9cZD\xfb\xff7\xc0'
p244
tp245
Rp246
a(g3
(g7
S'W\xdb\xda\x13\xfb\xff7\xc0'
p247
tp248
Rp249
g236
tp250
a(g249
F0.6256053138026901
tp251
aa(lp252
(g249
F0.6256053138026901
tp253
ag3
(g7
S'\x07\xf9\xab\xed\x1d"\xd5='
p254
tp255
Rp256
aI1627357879
aF1.0
aF-29453.306739083462
ag3
(g7
S'\xfc\x19[\xe3\xfa\xff7\xc0'
p257
tp258
Rp259
a(g3
(g7
S'\xa0X\xdb\xb2\xfa\xff7\xc0'
p260
tp261
Rp262
g249
tp263
a(g262
F0.7507204693900247
tp264
aa(lp265
(g262
F0.7507204693900247
tp266
ag3
(g7
S'\xde\x9e\xc7!\x08"\xd5='
p267
tp268
Rp269
aI1627357880
aF1.0
aF-29453.105823462116
ag3
(g7
S'D\x97[\x82\xfa\xff7\xc0'
p270
tp271
Rp272
a(g3
(g7
S'\xe8\xd5\xdbQ\xfa\xff7\xc0'
p273
tp274
Rp275
g262
tp276
a(g275
F0.8758336560387491
tp277
aa(lp278
(g275
F0.8758336560387491
tp279
ag3
(g7
S'E\x03\xedU\xf2!\xd5='
p280
tp281
Rp282
aI1627357879
aF1.0
aF-29452.904900521626
ag3
(g7
S'\x8c\x14\\!\xfa\xff7\xc0'
p283
tp284
Rp285
a(g3
(g7
S'1S\xdc\xf0\xf9\xff7\xc0'
p286
tp287
Rp288
g275
tp289
a(g288
F1.000944873608533
tp290
aa(lp291
(g288
F1.000944873608533
tp292
ag3
(g7
S'9\x978\xa4\xd1!\xd5='
p293
tp294
Rp295
aI3254715759
aF1.0
aF-29452.603516787505
ag3
(g7
S'z\xd0\xdc\x8f\xf9\xff7\xc0'
p296
tp297
Rp298
a(g3
(g7
S'\xc2M\xdd.\xf9\xff7\xc0'
p299
tp300
Rp301
g288
tp302
a(g301
F1.2511614018725306
tp303
aa(lp304
(g301
F1.2511614018725306
tp305
ag3
(g7
S'\xf6\xd7\xbd\x0c\xa6!\xd5='
p306
tp307
Rp308
aI3254715758
aF1.0
aF-29452.201663109903
ag3
(g7
S'\x0b\xcb\xdd\xcd\xf8\xff7\xc0'
p309
tp310
Rp311
a(g3
(g7
S'TH\xdel\xf8\xff7\xc0'
p312
tp313
Rp314
g301
tp315
a(g314
F1.5013700542126014
tp316
aa(lp317
(g314
F1.5013700542126014
tp318
ag3
(g7
S'U\x13juz!\xd5='
p319
tp320
Rp321
aI3254715759
aF1.0
aF-29451.79980645014
ag3
(g7
S'\x9c\xc5\xde\x0b\xf8\xff7\xc0'
p322
tp323
Rp324
a(g3
(g7
S'\xe5B\xdf\xaa\xf7\xff7\xc0'
p325
tp326
Rp327
g314
tp328
a(g327
F1.7515708308899562
tp329
aa(lp330
(g327
F1.7515708308899562
tp331
ag3
(g7
S'\\I=\xdeN!\xd5='
p332
tp333
Rp334
aI3254715759
aF1.0
aF-29451.3979413172
ag3
(g7
S'.\xc0\xdfI\xf7\xff7\xc0'
p335
tp336
Rp337
a(g3
(g7
S'v=\xe0\xe8\xf6\xff7\xc0'
p338
tp339
Rp340
g327
tp341
a(g340
F2.001763731935179
tp342
aa(lp343
(g340
F2.001763731935179
tp344
ag3
(g7
S'/z7G#!\xd5='
p345
tp346
Rp347
aI3254715759
aF1.0
aF-29450.996089469936
ag3
(g7
S'\xbe\xba\xe0\x87\xf6\xff7\xc0'
p348
tp349
Rp350
a(g3
(g7
S'\x078\xe1&\xf6\xff7\xc0'
p351
tp352
Rp353
g340
tp354
a(g353
F2.251948757455731
tp355
aa(lp356
(g353
F2.251948757455731
tp357
ag3
(g7
S'\xfd\xa5X\xb0\xf7 \xd5='
p358
tp359
Rp360
aI3254715759
aF1.0
aF-29450.59421105132
ag3
(g7
S'P\xb5\xe1\xc5\xf5\xff7\xc0'
p361
tp362
Rp363
a(g3
(g7
S'\x982\xe2d\xf5\xff7\xc0'
p364
tp365
Rp366
g353
tp367
a(g366
F2.5021259075590754
tp368
aa(lp369
(g366
F2.5021259075590754
tp370
ag3
(g7
S'\xc0\xcc\xa0\x19\xcc \xd5='
p371
tp372
Rp373
aI3254715759
aF1.0
aF-29450.19234591838
ag3
(g7
S'\xe0\xaf\xe2\x03\xf5\xff7\xc0'
p374
tp375
Rp376
a(g3
(g7
S')-\xe3\xa2\xf4\xff7\xc0'
p377
tp378
Rp379
g366
tp380
a(g379
F2.752295182352675
tp381
aa(lp382
(g379
F2.752295182352675
tp383
ag3
(g7
S'\xae\xee\x0f\x83\xa0 \xd5='
p384
tp385
Rp386
aI3254715759
aF1.0
aF-29449.790467499763
ag3
(g7
S'r\xaa\xe3A\xf4\xff7\xc0'
p387
tp388
Rp389
a(g3
(g7
S"\xba'\xe4\xe0\xf3\xff7\xc0"
p390
tp391
Rp392
g379
tp393
a(g392
F3.002456581943995
tp394
aa(lp395
(g392
F3.002456581943995
tp396
ag3
(g7
S'\xc6\x0b\xa6\xect \xd5='
p397
tp398
Rp399
aI3254715759
aF1.0
aF-29449.388589081147
ag3
(g7
S'\x02\xa5\xe4\x7f\xf3\xff7\xc0'
p400
tp401
Rp402
a(g3
(g7
S'K"\xe5\x1e\xf3\xff7\xc0'
p403
tp404
Rp405
g392
tp406
a(g405
F3.2526101064405
tp407
aa(lp408
(g405
F3.2526101064405
tp409
ag3
(g7
S'>$cVI \xd5='
p410
tp411
Rp412
aI3254715759
aF1.0
aF-29448.98671066253
ag3
(g7
S'\x94\x9f\xe5\xbd\xf2\xff7\xc0'
p413
tp414
Rp415
a(g3
(g7
S'\xdc\x1c\xe6\\\xf2\xff7\xc0'
p416
tp417
Rp418
g405
tp419
a(g418
F3.5027557559496585
tp420
aa(lp421
(g418
F3.5027557559496585
tp422
ag3
(g7
S'<8G\xc0\x1d \xd5='
p423
tp424
Rp425
aI3254715758
aF1.0
aF-29448.584823768517
ag3
(g7
S'%\x9a\xe6\xfb\xf1\xff7\xc0'
p426
tp427
Rp428
a(g3
(g7
S'n\x17\xe7\x9a\xf1\xff7\xc0'
p429
tp430
Rp431
g418
tp432
a(g431
F3.7528935305020847
tp433
aa(lp434
(g431
F3.7528935305020847
tp435
ag3
(g7
S'\xb4GR*\xf2\x1f\xd5='
p436
tp437
Rp438
aI3254715759
aF1.0
aF-29448.182927253947
ag3
(g7
S'\xb6\x94\xe79\xf1\xff7\xc0'
p439
tp440
Rp441
a(g3
(g7
S'\xff\x11\xe8\xd8\xf0\xff7\xc0'
p442
tp443
Rp444
g431
tp445
a(g444
F4.003023430358955
tp446
aa(lp447
(g444
F4.003023430358955
tp448
ag3
(g7
S'\xa8R\x84\x94\xc6\x1f\xd5='
p449
tp450
Rp451
aI3254715759
aF1.0
aF-29447.781035549655
ag3
(g7
S'H\x8f\xe8w\xf0\xff7\xc0'
p452
tp453
Rp454
a(g3
(g7
S'\x90\x0c\xe9\x16\xf0\xff7\xc0'
p455
tp456
Rp457
g444
tp458
a(g457
F4.253145455550885
tp459
aa(lp460
(g457
F4.253145455550885
tp461
ag3
(g7
S'\x89Y\xdd\xfe\x9a\x1f\xd5='
p462
tp463
Rp464
aI3254715758
aF1.0
aF-29447.379108797868
ag3
(g7
S'\xd9\x89\xe9\xb5\xef\xff7\xc0'
p465
tp466
Rp467
a(g3
(g7
S'"\x07\xeaT\xef\xff7\xc0'
p468
tp469
Rp470
g457
tp471
a(g470
F4.5032596061085
tp472
aa(lp473
(g470
F4.5032596061085
tp474
ag3
(g7
S'\n\\]io\x1f\xd5='
p475
tp476
Rp477
aI3254715759
aF1.0
aF-29446.977225569717
ag3
(g7
S'j\x84\xea\xf3\xee\xff7\xc0'
p478
tp479
Rp480
a(g3
(g7
S'\xb3\x01\xeb\x92\xee\xff7\xc0'
p481
tp482
Rp483
g470
tp484
a(g483
F4.7533658822929645
tp485
aa(lp486
(g483
F4.7533658822929645
tp487
ag3
(g7
S'nZ\x04\xd4C\x1f\xd5='
p488
tp489
Rp490
aI3254715759
aF1.0
aF-29446.575333865425
ag3
(g7
S'\xfc~\xeb1\xee\xff7\xc0'
p491
tp492
Rp493
a(g3
(g7
S'D\xfc\xeb\xd0\xed\xff7\xc0'
p494
tp495
Rp496
g483
tp497
a(g496
F5.003464284134904
tp498
aa(lp499
(g496
F5.003464284134904
tp500
ag3
(g7
S'\xbaT\xd2>\x18\x1f\xd5='
p501
tp502
Rp503
aI3254715759
aF1.0
aF-29446.17338901843
ag3
(g7
S'\x8cy\xeco\xed\xff7\xc0'
p504
tp505
Rp506
a(g3
(g7
S'\xd5\xf6\xec\x0e\xed\xff7\xc0'
p507
tp508
Rp509
g496
tp510
a(g509
F5.253554811741792
tp511
aa(lp512
(g509
F5.253554811741792
tp513
ag3
(g7
S'.K\xc7\xa9\xec\x1e\xd5='
p514
tp515
Rp516
aI3254715759
aF1.0
aF-29445.771497314137
ag3
(g7
S'\x1et\xed\xad\xec\xff7\xc0'
p517
tp518
Rp519
a(g3
(g7
S'f\xf1\xedL\xec\xff7\xc0'
p520
tp521
Rp522
g509
tp523
a(g522
F5.503637465221105
tp524
aa(lp525
(g522
F5.503637465221105
tp526
ag3
(g7
S'\xdf=\xe3\x14\xc1\x1e\xd5='
p527
tp528
Rp529
aI3254715759
aF1.0
aF-29445.36957903849
ag3
(g7
S'\xaen\xee\xeb\xeb\xff7\xc0'
p530
tp531
Rp532
a(g3
(g7
S'\xf7\xeb\xee\x8a\xeb\xff7\xc0'
p533
tp534
Rp535
g522
tp536
a(g535
F5.753712244680318
tp537
aa(lp538
(g535
F5.753712244680318
tp539
ag3
(g7
S'\xb7,&\x80\x95\x1e\xd5='
p540
tp541
Rp542
aI3254715759
aF1.0
aF-29444.967660762846
ag3
(g7
S'@i\xef)\xeb\xff7\xc0'
p543
tp544
Rp545
a(g3
(g7
S'\x88\xe6\xef\xc8\xea\xff7\xc0'
p546
tp547
Rp548
g535
tp549
a(g548
F6.003779150226908
tp550
aa(lp551
(g548
F6.003779150226908
tp552
ag3
(g7
S'\x0c\x18\x90\xebi\x1e\xd5='
p553
tp554
Rp555
aI3254715759
aF1.0
aF-29444.565742487204
ag3
(g7
S'\xd0c\xf0g\xea\xff7\xc0'
p556
tp557
Rp558
a(g3
(g7
S'\x19\xe1\xf0\x06\xea\xff7\xc0'
p559
tp560
Rp561
g548
tp562
a(g561
F6.253838181968354
tp563
aa(lp564
(g561
F6.253838181968354
tp565
ag3
(g7
S'\xc8\xff W>\x1e\xd5='
p566
tp567
Rp568
aI3254715759
aF1.0
aF-29444.163797640205
ag3
(g7
S'b^\xf1\xa5\xe9\xff7\xc0'
p569
tp570
Rp571
a(g3
(g7
S'\xaa\xdb\xf1D\xe9\xff7\xc0'
p572
tp573
Rp574
g561
tp575
a(g574
F6.503889340012135
tp576
aa(lp577
(g574
F6.503889340012135
tp578
ag3
(g7
S'.\xe4\xd8\xc2\x12\x1e\xd5='
p579
tp580
Rp581
aI3254715758
aF1.0
aF-29443.7618708862
ag3
(g7
S'\xf3X\xf2\xe3\xe8\xff7\xc0'
p582
tp583
Rp584
a(g3
(g7
S'<\xd6\xf2\x82\xe8\xff7\xc0'
p585
tp586
Rp587
g574
tp588
a(g587
F6.753932624388907
tp589
aa(lp590
(g587
F6.753932624388907
tp591
ag3
(g7
S'^\xc5\xb7.\xe7\x1d\xd5='
p592
tp593
Rp594
aI3254715759
aF1.0
aF-29443.359934517564
ag3
(g7
S'\x84S\xf3!\xe8\xff7\xc0'
p595
tp596
Rp597
a(g3
(g7
S'\xcd\xd0\xf3\xc0\xe7\xff7\xc0'
p598
tp599
Rp600
g587
tp601
a(g600
F7.003968035359802
tp602
aa(lp603
(g600
F7.003968035359802
tp604
ag3
(g7
S'\r\xa3\xbd\x9a\xbb\x1d\xd5='
p605
tp606
Rp607
aI3254715759
aF1.0
aF-29442.95798967057
ag3
(g7
S'\x16N\xf4_\xe7\xff7\xc0'
p608
tp609
Rp610
a(g3
(g7
S'^\xcb\xf4\xfe\xe6\xff7\xc0'
p611
tp612
Rp613
g600
tp614
a(g613
F7.253995572955475
tp615
aa(lp616
(g613
F7.253995572955475
tp617
ag3
(g7
S'\xcc}\xea\x06\x90\x1d\xd5='
p618
tp619
Rp620
aI3254715758
aF1.0
aF-29442.556036344467
ag3
(g7
S'\xa7H\xf5\x9d\xe6\xff7\xc0'
p621
tp622
Rp623
a(g3
(g7
S'\xf0\xc5\xf5<\xe6\xff7\xc0'
p624
tp625
Rp626
g613
tp627
a(g626
F7.504015237206594
tp628
aa(lp629
(g626
F7.504015237206594
tp630
ag3
(g7
S'rU>sd\x1d\xd5='
p631
tp632
Rp633
aI3254715759
aF1.0
aF-29442.154099976575
ag3
(g7
S'8C\xf6\xdb\xe5\xff7\xc0'
p634
tp635
Rp636
a(g3
(g7
S'\x81\xc0\xf6z\xe5\xff7\xc0'
p637
tp638
Rp639
g626
tp640
a(g639
F7.754027028374278
tp641
aa(lp642
(g639
F7.754027028374278
tp643
ag3
(g7
S"'*\xb9\xdf8\x1d\xd5="
p644
tp645
Rp646
aI3254715759
aF1.0
aF-29441.752128558222
ag3
(g7
S'\xca=\xf7\x19\xe5\xff7\xc0'
p647
tp648
Rp649
a(g3
(g7
S'\x12\xbb\xf7\xb8\xe4\xff7\xc0'
p650
tp651
Rp652
g639
tp653
a(g652
F8.004030946489195
tp654
aa(lp655
(g652
F8.004030946489195
tp656
ag3
(g7
S'Lc\xbf\x82\xf7\x1c\xd5='
p657
tp658
Rp659
aI6509431518
aF1.0
aF-29441.149211287728
ag3
(g7
S'\xa3\xb5\xf8\xf6\xe3\xff7\xc0'
p660
tp661
Rp662
a(g3
(g7
S'4\xb0\xf94\xe3\xff7\xc0'
p663
tp664
Rp665
g652
tp666
a(g665
F8.504015163990669
tp667
aa(lp668
(g665
F8.504015163990669
tp669
ag3
(g7
S'*\xfc\x9e\\\xa0\x1c\xd5='
p670
tp671
Rp672
aI6509431517
aF1.0
aF-29440.345290782152
ag3
(g7
S'\xc6\xaa\xfar\xe2\xff7\xc0'
p673
tp674
Rp675
a(g3
(g7
S'W\xa5\xfb\xb0\xe1\xff7\xc0'
p676
tp677
Rp678
g665
tp679
a(g678
F9.00396789049412
tp680
aa(lp681
(g678
F9.00396789049412
tp682
ag3
(g7
S'\x1e\x8b\x1a7I\x1c\xd5='
p683
tp684
Rp685
aI6509431517
aF1.0
aF-29439.54133465953
ag3
(g7
S'\xe8\x9f\xfc\xee\xe0\xff7\xc0'
p686
tp687
Rp688
a(g3
(g7
S'z\x9a\xfd,\xe0\xff7\xc0'
p689
tp690
Rp691
g678
tp692
a(g691
F9.503889126936283
tp693
aa(lp694
(g691
F9.503889126936283
tp695
ag3
(g7
S'\x95\x102\x12\xf2\x1b\xd5='
p696
tp697
Rp698
aI6509431518
aF1.0
aF-29438.737382777632
ag3
(g7
S'\x0b\x95\xfej\xdf\xff7\xc0'
p699
tp700
Rp701
a(g3
(g7
S'\x9c\x8f\xff\xa8\xde\xff7\xc0'
p702
tp703
Rp704
g691
tp705
a(g704
F10.003778874253884
tp706
aa(lp707
(g704
F10.003778874253884
tp708
ag3
(g7
S'u\x8d\xe5\xed\x9a\x1b\xd5='
p709
tp710
Rp711
aI6509431518
aF1.0
aF-29437.933400083904
ag3
(g7
S'-\x8a\x00\xe7\xdd\xff7\xc0'
p712
tp713
Rp714
a(g3
(g7
S'\xbe\x84\x01%\xdd\xff7\xc0'
p715
tp716
Rp717
g704
tp718
a(g717
F10.503637133230077
tp719
aa(lp720
(g717
F10.503637133230077
tp721
ag3
(g7
S'\xb8\x025\xcaC\x1b\xd5='
p722
tp723
Rp724
aI6509431517
aF1.0
aF-29437.12941314896
ag3
(g7
S'P\x7f\x02c\xdc\xff7\xc0'
p725
tp726
Rp727
a(g3
(g7
S'\xe1y\x03\xa1\xdb\xff7\xc0'
p728
tp729
Rp730
g717
tp731
a(g730
F11.00346390464805
tp732
aa(lp733
(g730
F11.00346390464805
tp734
ag3
(g7
S'\x06q \xa7\xec\x1a\xd5='
p735
tp736
Rp737
aI6509431517
aF1.0
aF-29436.325390597955
ag3
(g7
S'rt\x04\xdf\xda\xff7\xc0'
p738
tp739
Rp740
a(g3
(g7
S'\x04o\x05\x1d\xda\xff7\xc0'
p741
tp742
Rp743
g730
tp744
a(g743
F11.503259189444583
tp745
aa(lp746
(g743
F11.503259189444583
tp747
ag3
(g7
S'\r\xd9\xa7\x84\x95\x1a\xd5='
p748
tp749
Rp750
aI6509431518
aF1.0
aF-29435.521372288666
ag3
(g7
S'\x95i\x06[\xd9\xff7\xc0'
p751
tp752
Rp753
a(g3
(g7
S'&d\x07\x99\xd8\xff7\xc0'
p754
tp755
Rp756
g743
tp757
a(g756
F12.00302298855645
tp758
aa(lp759
(g756
F12.00302298855645
tp760
ag3
(g7
S'\x8c;\xcbb>\x1a\xd5='
p761
tp762
Rp763
aI6509431518
aF1.0
aF-29434.71734973791
ag3
(g7
S'\xb7^\x08\xd7\xd7\xff7\xc0'
p764
tp765
Rp766
a(g3
(g7
S'HY\t\x15\xd7\xff7\xc0'
p767
tp768
Rp769
g756
tp770
a(g769
F12.502755302766893
tp771
aa(lp772
(g769
F12.502755302766893
tp773
ag3
(g7
S'}\x99\x8aA\xe7\x19\xd5='
p774
tp775
Rp776
aI6509431517
aF1.0
aF-29433.91328308792
ag3
(g7
S'\xdaS\nS\xd6\xff7\xc0'
p777
tp778
Rp779
a(g3
(g7
S'kN\x0b\x91\xd5\xff7\xc0'
p780
tp781
Rp782
g769
tp783
a(g782
F13.002456132859184
tp784
aa(lp785
(g782
F13.002456132859184
tp786
ag3
(g7
S'\x9b\xf3\xe5 \x90\x19\xd5='
p787
tp788
Rp789
aI6509431517
aF1.0
aF-29433.109207394213
ag3
(g7
S'\xfcH\x0c\xcf\xd4\xff7\xc0'
p790
tp791
Rp792
a(g3
(g7
S'\x8eC\r\r\xd4\xff7\xc0'
p793
tp794
Rp795
g782
tp796
a(g795
F13.502125479770148
tp797
aa(lp798
(g795
F13.502125479770148
tp799
ag3
(g7
S'|J\xdd\x009\x19\xd5='
p800
tp801
Rp802
aI6509431518
aF1.0
aF-29432.30512265753
ag3
(g7
S'\x1f>\x0eK\xd3\xff7\xc0'
p803
tp804
Rp805
a(g3
(g7
S'\xb08\x0f\x89\xd2\xff7\xc0'
p806
tp807
Rp808
g795
tp809
a(g808
F14.001763344436611
tp810
aa(lp811
(g808
F14.001763344436611
tp812
ag3
(g7
S'\xe4\x9ep\xe1\xe1\x18\xd5='
p813
tp814
Rp815
aI6509431518
aF1.0
aF-29431.501033678393
ag3
(g7
S'A3\x10\xc7\xd1\xff7\xc0'
p816
tp817
Rp818
a(g3
(g7
S'\xd2-\x11\x05\xd1\xff7\xc0'
p819
tp820
Rp821
g808
tp822
a(g821
F14.501369727641896
tp823
aa(lp824
(g821
F14.501369727641896
tp825
ag3
(g7
S'\xb1\xf1\x9f\xc2\x8a\x18\xd5='
p826
tp827
Rp828
aI6509431518
aF1.0
aF-29430.696918127906
ag3
(g7
S'c(\x12C\xd0\xff7\xc0'
p829
tp830
Rp831
a(g3
(g7
S'\xf4"\x13\x81\xcf\xff7\xc0'
p832
tp833
Rp834
g821
tp835
a(g834
F15.000944630246105
tp836
aa(lp837
(g834
F15.000944630246105
tp838
ag3
(g7
S'\xb7Ck\xa43\x18\xd5='
p839
tp840
Rp841
aI6509431518
aF1.0
aF-29429.892789291738
ag3
(g7
S'\x85\x1d\x14\xbf\xce\xff7\xc0'
p842
tp843
Rp844
a(g3
(g7
S'\x16\x18\x15\xfd\xcd\xff7\xc0'
p845
tp846
Rp847
g834
tp848
a(g847
F15.50048805310936
tp849
aa(lp850
(g847
F15.50048805310936
tp851
ag3
(g7
S'\xc6\x95\xd2\x86\xdc\x17\xd5='
p852
tp853
Rp854
aI6509431517
aF1.0
aF-29429.088629640533
ag3
(g7
S'\xa8\x12\x16;\xcd\xff7\xc0'
p855
tp856
Rp857
a(F-23.9992137604979
g847
tp858
a(F-23.9992137604979
F15.999999997015061
tp859
aa.