(lp0
(lp1
(F9.094869970032564
F-1.5258789058453612e-05
tp2
acnumpy.core.multiarray
scalar
p3
(cnumpy
dtype
p4
(S'f8'
p5
I0
I1
tp6
Rp7
(I3
S'<'
p8
NNNI-1
I-1
I0
tp9
bS'\xce\xe5\xa2\xfe5\xa2\xab<'
p10
tp11
Rp12
aI9947356906
aF1.0
aF-0.011862011768421311
ag3
(g7
S'\x96\xa2i\xf4\x930"@'
p13
tp14
Rp15
a(g3
(g7
S'\x0b\xf2\xdd\x1c\x950"@'
p16
tp17
Rp18
F9.094869970032564
tp19
a(g18
F-1.3351414495889288e-05
tp20
aa(lp21
(g18
F-1.3351414495889288e-05
tp22
ag3
(g7
S'\x0c~\x1a\xf6.\xa2\xab<'
p23
tp24
Rp25
aI9947356906
aF1.0
aF-0.011862827075061621
ag3
(g7
S'\x80ARE\x960"@'
p26
tp27
Rp28
a(g3
(g7
S'\xf5\x90\xc6m\x970"@'
p29
tp30
Rp31
g18
tp32
a(g31
F-1.1444047340951811e-05
tp33
aa(lp34
(g31
F-1.1444047340951811e-05
tp35
ag3
(g7
S"\xb0gr\xed'\xa2\xab<"
p36
tp37
Rp38
aI9947356906
aF1.0
aF-0.011863642446810136
ag3
(g7
S'j\xe0:\x96\x980"@'
p39
tp40
Rp41
a(g3
(g7
S'\xdf/\xaf\xbe\x990"@'
p42
tp43
Rp44
g31
tp45
a(g44
F-9.536687594150337e-06
tp46
aa(lp47
(g3
(g7
S'\xc9\xce\x97\x0f\x9c0"@'
p48
tp49
Rp50
F-7.629335255994016e-06
tp51
ag3
(g7
S'\xd0\xa2\xaa\xe4 \xa2\xab<'
p52
tp53
Rp54
aI9947356906
aF1.0
aF-0.011864457775153181
ag3
(g7
S'T\x7f#\xe7\x9a0"@'
p55
tp56
Rp57
a(g50
g44
tp58
a(g44
F-9.536687594150337e-06
tp59
aa(lp60
(g50
F-7.629335255994016e-06
tp61
ag3
(g7
S'$\x02\x01\x9e\x1b\xa2\xab<'
p62
tp63
Rp64
aI4973678453
aF1.0
aF-0.011865069271410464
ag3
(g7
S'\x84\xf6\xd1\xa3\x9c0"@'
p65
tp66
Rp67
a(g3
(g7
S'>\x1e\x0c8\x9d0"@'
p68
tp69
Rp70
g50
tp71
a(g70
F-6.675661865316896e-06
tp72
aa(lp73
(g70
F-6.675661865316896e-06
tp74
ag3
(g7
S'\xd5\\\x85\x19\x18\xa2\xab<'
p75
tp76
Rp77
aI4973678453
aF1.0
aF-0.011865476935581987
ag3
(g7
S'\xf8EF\xcc\x9d0"@'
p78
tp79
Rp80
a(g3
(g7
S'\xb3m\x80`\x9e0"@'
p81
tp82
Rp83
g70
tp84
a(g83
F-5.721990326991995e-06
tp85
aa(lp86
(g83
F-5.721990326991995e-06
tp87
ag3
(g7
S'\xf6\xcb\x01\x95\x14\xa2\xab<'
p88
tp89
Rp90
aI4973678453
aF1.0
aF-0.01186588459975351
ag3
(g7
S'n\x95\xba\xf4\x9e0"@'
p91
tp92
Rp93
a(g3
(g7
S'(\xbd\xf4\x88\x9f0"@'
p94
tp95
Rp96
g83
tp97
a(g96
F-4.768320641082956e-06
tp98
aa(lp99
(g3
(g7
S'\x9d\x0ci\xb1\xa00"@'
p100
tp101
Rp102
F-3.8146528076534212e-06
tp103
ag3
(g7
S'\x7fOv\x10\x11\xa2\xab<'
p104
tp105
Rp106
aI4973678453
aF1.0
aF-0.011866292307330502
ag3
(g7
S'\xe2\xe4.\x1d\xa00"@'
p107
tp108
Rp109
a(g102
g96
tp110
a(g96
F-4.768320641082956e-06
tp111
aa(lp112
(g102
F-3.8146528076534212e-06
tp113
ag3
(g7
S'n\xe7\xe2\x8b\r\xa2\xab<'
p114
tp115
Rp116
aI4973678453
aF1.0
aF-0.01186669994979929
ag3
(g7
S'X4\xa3E\xa10"@'
p117
tp118
Rp119
a(g3
(g7
S'\x12\\\xdd\xd9\xa10"@'
p120
tp121
Rp122
g102
tp123
a(g122
F-2.8609868267670333e-06
tp124
aa(lp125
(g3
(g7
S'\x87\xabQ\x02\xa30"@'
p126
tp127
Rp128
F-1.9073226984874341e-06
tp129
ag3
(g7
S'\xce\x93G\x07\n\xa2\xab<'
p130
tp131
Rp132
aI4973678453
aF1.0
aF-0.011867107613970812
ag3
(g7
S'\xcc\x83\x17n\xa20"@'
p133
tp134
Rp135
a(g128
g122
tp136
a(g122
F-2.8609868267670333e-06
tp137
aa(lp138
(g3
(g7
S'\xfc\xfa\xc5*\xa40"@'
p139
tp140
Rp141
F-9.536604228782661e-07
tp142
ag3
(g7
S'\x99T\xa4\x82\x06\xa2\xab<'
p143
tp144
Rp145
aI4973678453
aF1.0
aF-0.011867515267290967
ag3
(g7
S'B\xd3\x8b\x96\xa30"@'
p146
tp147
Rp148
a(g141
g128
tp149
a(g128
F-1.9073226984874341e-06
tp150
aa(lp151
(g3
(g7
S'\xb6"\x00\xbf\xa40"@'
p152
tp153
Rp154
F-4.768299799408525e-07
tp155
ag3
(g7
S'\xfa\xf1$\xdf\x03\xa2\xab<'
p156
tp157
Rp158
aI2486839226
aF1.0
aF-0.011867821009340493
ag3
(g7
S'\xd9\x0e\xe3t\xa40"@'
p159
tp160
Rp161
a(g154
g141
tp162
a(g141
F-9.536604228782661e-07
tp163
aa(lp164
(g3
(g7
S'\x946\x1d\t\xa50"@'
p165
tp166
Rp167
F-2.3841493197670958e-07
tp168
ag3
(g7
S'!\x85c\x8d\x02\xa2\xab<'
p169
tp170
Rp171
aI1243419614
aF1.0
aF-0.011867973907721095
ag3
(g7
S'\xa5\xac\x0e\xe4\xa40"@'
p172
tp173
Rp174
a(g167
g154
tp175
a(g154
F-4.768299799408525e-07
tp176
aa(lp177
(F9.095011330476355
F-3.1708772175594262e-18
tp178
ag3
(g7
S'D>7\xac\x01\xa2\xab<'
p179
tp180
Rp181
aI1243419613
aF1.0
aF-0.011868075799447797
ag3
(g7
S'\x82\xc0+.\xa50"@'
p182
tp183
Rp184
a(F9.095011330476355
g167
tp185
a(g167
F-2.3841493197670958e-07
tp186
aa(lp187
(F9.095011330476355
F-3.1708772175594262e-18
tp188
ag3
(g7
S'O\x93\t\xcb\x00\xa2\xab<'
p189
tp190
Rp191
aI1243458267
aF1.0
aF-0.01186817770846723
ag3
(g7
S'\xde\x1fIx\xa50"@'
p192
tp193
Rp194
a(g3
(g7
S'L\xf5W\x9d\xa50"@'
p195
tp196
Rp197
F9.095011330476355
tp198
a(g197
F2.384222277345313e-07
tp199
aa(lp200
(g197
F2.384222277345313e-07
tp201
ag3
(g7
S'C\x84\xda\xe9\xff\xa1\xab<'
p202
tp203
Rp204
aI1243458266
aF1.0
aF-0.011868279637263097
ag3
(g7
S'\xb9\xcaf\xc2\xa50"@'
p205
tp206
Rp207
a(g3
(g7
S'&\xa0u\xe7\xa50"@'
p208
tp209
Rp210
g197
tp211
a(g210
F4.76844339472441e-07
tp212
aa(lp213
(g210
F4.76844339472441e-07
tp214
ag3
(g7
S'9\xf0\x12\x98\xfe\xa1\xab<'
p215
tp216
Rp217
aI2486916534
aF1.0
aF-0.011868432482734028
ag3
(g7
S'\x01K\x931\xa60"@'
p218
tp219
Rp220
a(g3
(g7
S'\xdc\xf5\xb0{\xa60"@'
p221
tp222
Rp223
g210
tp224
a(g223
F9.536882159036107e-07
tp225
aa(lp226
(g223
F9.536882159036107e-07
tp227
ag3
(g7
S'\x07Q\x80\xf4\xfb\xa1\xab<'
p228
tp229
Rp230
aI4973833066
aF1.0
aF-0.01186873825395121
ag3
(g7
S'\x91K\xec\x0f\xa70"@'
p231
tp232
Rp233
a(g3
(g7
S'F\xa1\'\xa4\xa70"@'
p234
tp235
Rp236
g223
tp237
a(g236
F1.9073745786420942e-06
tp238
aa(lp239
(g236
F1.9073745786420942e-06
tp240
ag3
(g7
S'e8\xb6o\xf8\xa1\xab<'
p241
tp242
Rp243
aI4973833066
aF1.0
aF-0.011869145925330492
ag3
(g7
S'\xfb\xf6b8\xa80"@'
p244
tp245
Rp246
a(g3
(g7
S'\xb0L\x9e\xcc\xa80"@'
p247
tp248
Rp249
g236
tp250
a(g249
F2.861059088340374e-06
tp251
aa(lp252
(g249
F2.861059088340374e-06
tp253
ag3
(g7
S'\x1f4\xe4\xea\xf4\xa1\xab<'
p254
tp255
Rp256
aI4973833066
aF1.0
aF-0.011869553564157698
ag3
(g7
S'e\xa2\xd9`\xa90"@'
p257
tp258
Rp259
a(g3
(g7
S'\x1a\xf8\x14\xf5\xa90"@'
p260
tp261
Rp262
g249
tp263
a(g262
F3.814741744934804e-06
tp264
aa(lp265
(g262
F3.814741744934804e-06
tp266
ag3
(g7
S')D\nf\xf1\xa1\xab<'
p267
tp268
Rp269
aI4973833066
aF1.0
aF-0.011869961268089061
ag3
(g7
S'\xcfMP\x89\xaa0"@'
p270
tp271
Rp272
a(g3
(g7
S'\x84\xa3\x8b\x1d\xab0"@'
p273
tp274
Rp275
g262
tp276
a(g275
F4.7684225483617364e-06
tp277
aa(lp278
(g275
F4.7684225483617364e-06
tp279
ag3
(g7
S'\x8dh(\xe1\xed\xa1\xab<'
p280
tp281
Rp282
aI4973833066
aF1.0
aF-0.011870368906916265
ag3
(g7
S'9\xf9\xc6\xb1\xab0"@'
p283
tp284
Rp285
a(g3
(g7
S'\xeeN\x02F\xac0"@'
p286
tp287
Rp288
g275
tp289
a(g288
F5.722101498557525e-06
tp290
aa(lp291
(g288
F5.722101498557525e-06
tp292
ag3
(g7
S'[\xa1>\\\xea\xa1\xab<'
p293
tp294
Rp295
aI4973833066
aF1.0
aF-0.01187077654574347
ag3
(g7
S'\xa3\xa4=\xda\xac0"@'
p296
tp297
Rp298
a(g3
(g7
S'X\xfaxn\xad0"@'
p299
tp300
Rp301
g288
tp302
a(g301
F6.675778595458524e-06
tp303
aa(lp304
(g301
F6.675778595458524e-06
tp305
ag3
(g7
S'z\xeeL\xd7\xe6\xa1\xab<'
p306
tp307
Rp308
aI4973833066
aF1.0
aF-0.011871184227973449
ag3
(g7
S'\rP\xb4\x02\xae0"@'
p309
tp310
Rp311
a(g3
(g7
S'\xc2\xa5\xef\x96\xae0"@'
p312
tp313
Rp314
g301
tp315
a(g314
F7.629453839001088e-06
tp316
aa(lp317
(g314
F7.629453839001088e-06
tp318
ag3
(g7
S'\xef\x8a\xd2\x8f\xe1\xa1\xab<'
p319
tp320
Rp321
aI9947666132
aF1.0
aF-0.011871795707915642
ag3
(g7
S',Qf\xbf\xaf0"@'
p322
tp323
Rp324
a(g3
(g7
S'\x96\xfc\xdc\xe7\xb00"@'
p325
tp326
Rp327
g314
tp328
a(g327
F9.536798765756325e-06
tp329
aa(lp330
(g327
F9.536798765756325e-06
tp331
ag3
(g7
S'\x85\x9f\xbf\x85\xda\xa1\xab<'
p332
tp333
Rp334
aI9947666132
aF1.0
aF-0.011872611028972824
ag3
(g7
S'\x00\xa8S\x10\xb20"@'
p335
tp336
Rp337
a(g3
(g7
S'jS\xca8\xb30"@'
p338
tp339
Rp340
g327
tp341
a(g340
F1.1444136278314076e-05
tp342
aa(lp343
(g340
F1.1444136278314076e-05
tp344
ag3
(g7
S'\xb3\x05\x8d{\xd3\xa1\xab<'
p345
tp346
Rp347
aI9947666132
aF1.0
aF-0.01187342632832862
ag3
(g7
S'\xd4\xfe@a\xb40"@'
p348
tp349
Rp350
a(g3
(g7
S'>\xaa\xb7\x89\xb50"@'
p351
tp352
Rp353
g340
tp354
a(g353
F1.3351466376165178e-05
tp355
aa(lp356
(g353
F1.3351466376165178e-05
tp357
ag3
(g7
S'\x88\xbd:q\xcc\xa1\xab<'
p358
tp359
Rp360
aI9947666133
aF1.0
aF-0.011874241625297075
ag3
(g7
S'\xa8U.\xb2\xb60"@'
p361
tp362
Rp363
a(F9.095152695314516
g353
tp364
a(F9.095152695314516
F1.5258789058992213e-05
tp365
aa.