(lp0
(lp1
(F30.618286491641115
F-1.524456280251315e-17
tp2
aF-5.121805926603488e-16
aI1861988325
aF1.0
aF0.002354009123708588
acnumpy.core.multiarray
scalar
p3
(cnumpy
dtype
p4
(S'f8'
p5
I0
I1
tp6
Rp7
(I3
S'<'
p8
NNNI-1
I-1
I0
tp9
bS'JP\x87\xceG\x9e>@'
p10
tp11
Rp12
a(F30.618286491641115
F30.618279876529723
tp13
a(F30.618279876529723
F9.536742838099055e-07
tp14
aa(lp15
(F30.618286491641115
F-1.524456280251315e-17
tp16
aF-5.121804820032188e-16
aI1861988767
aF1.0
aF0.002354484426490519
ag3
(g7
S'\x0c\x01\x83=H\x9e>@'
p17
tp18
Rp19
a(F30.618293106754077
F30.618286491641115
tp20
a(F30.618293106754077
F-9.536743041818835e-07
tp21
aa.