(lp0
(lp1
(F0.5238225713898643
F-1.836318268327936e-16
tp2
aF2.416959918864844e-16
aI31566077954
aF1.0
aF-1.5548229743064907
acnumpy.core.multiarray
scalar
p3
(cnumpy
dtype
p4
(S'f8'
p5
I0
I1
tp6
Rp7
(I3
S'<'
p8
NNNI-1
I-1
I0
tp9
bS'\xbf\xc5\xe2\xe0#\xc3\xe0?'
p10
tp11
Rp12
a(F0.5238225713898643
F0.5238190668512102
tp13
a(F0.5238190668512102
F-7.629394521241749e-06
tp14
aa(lp15
(F0.5238225713898643
F-1.836318268327936e-16
tp16
ag3
(g7
S'\t\xd8\xc5\x96|j\xb1<'
p17
tp18
Rp19
aI17738548678
aF1.0
aF-1.5548037473438865
ag3
(g7
S'\xa38G\x9e)\xc3\xe0?'
p20
tp21
Rp22
a(g3
(g7
S'\x86\x9b\xed\xae+\xc3\xe0?'
p23
tp24
Rp25
F0.5238225713898643
tp26
a(g25
F4.287319355986743e-06
tp27
aa(lp28
(g25
F4.287319355986743e-06
tp29
ag3
(g7
S'|^\xd4`yj\xb1<'
p30
tp31
Rp32
aI17738548677
aF1.0
aF-1.5547899130381582
ag3
(g7
S'h\xfe\x93\xbf-\xc3\xe0?'
p33
tp34
Rp35
a(F0.5238265101388974
g25
tp36
a(F0.5238265101388974
F8.574626651555467e-06
tp37
aa.