(lp0
(lp1
(F0.7745915829283659
F-1.5258789058144079e-05
tp2
acnumpy.core.multiarray
scalar
p3
(cnumpy
dtype
p4
(S'f8'
p5
I0
I1
tp6
Rp7
(I3
S'<'
p8
NNNI-1
I-1
I0
tp9
bS'\xa3\xde\r\xc3\xe8\xff\xb7<'
p10
tp11
Rp12
aI22906717861
aF1.0
aF5.809446409410495
ag3
(g7
S'RH:\xf4v\xc9\xe8?'
p13
tp14
Rp15
a(g3
(g7
S'\xa4\xab\xe6\x9ey\xc9\xe8?'
p16
tp17
Rp18
F0.7745915829283659
tp19
a(g18
F-7.629432102364985e-06
tp20
aa(lp21
(F0.7745966692414834
F8.17261852047821e-17
tp22
ag3
(g7
S'\xec\xe1\x03A\xf8\xff\xb7<'
p23
tp24
Rp25
aI22906717860
aF1.0
aF5.809465482038822
ag3
(g7
S'\xf6\x0e\x93I|\xc9\xe8?'
p26
tp27
Rp28
a(F0.7745966692414834
g18
tp29
a(g18
F-7.629432102364985e-06
tp30
aa(lp31
(F0.7745966692414834
F8.17261852047821e-17
tp32
ag3
(g7
S'`:\xf3\xbe\x07\x00\xb8<'
p33
tp34
Rp35
aI22906266597
aF1.0
aF5.809484555856105
ag3
(g7
S':d\xe8\x9e\x81\xc9\xe8?'
p36
tp37
Rp38
a(g3
(g7
S'-V\x91I\x84\xc9\xe8?'
p39
tp40
Rp41
F0.7745966692414834
tp42
a(g41
F7.629356947523615e-06
tp43
aa(lp44
(g41
F7.629356947523615e-06
tp45
ag3
(g7
S'\x01\xe8\xdb<\x17\x00\xb8<'
p46
tp47
Rp48
aI22906266597
aF1.0
aF5.809503629776427
ag3
(g7
S' H:\xf4\x86\xc9\xe8?'
p49
tp50
Rp51
a(F0.7746017554544002
g41
tp52
a(F0.7746017554544002
F1.5258789039498836e-05
tp53
aa.