(lp0
(lp1
(F2.798386045783887
F9.865851509229451e-18
tp2
aF1.4944031910358731e-16
aI23703102266
aF1.0
aF-0.12025091066718259
acnumpy.core.multiarray
scalar
p3
(cnumpy
dtype
p4
(S'f8'
p5
I0
I1
tp6
Rp7
(I3
S'<'
p8
NNNI-1
I-1
I0
tp9
bS'Fz\xb9v\x15c\x06@'
p10
tp11
Rp12
a(F2.798386045783887
F2.798375519491931
tp13
a(F2.798375519491931
F-3.542199166366138e-06
tp14
aa(lp15
(F2.798386045783887
F9.865851509229451e-18
tp16
aF1.4943936521775108e-16
aI16519266097
aF1.0
aF-0.12025087823762656
ag3
(g7
S'|\xcbq%\x1ac\x06@'
p17
tp18
Rp19
a(F2.7983933818117155
F2.798386045783887
tp20
a(F2.7983933818117155
F2.4686286394086623e-06
tp21
aa.