(lp0
(lp1
(F4.493409457909064
F-7.218300729428198e-18
tp2
aF-1.9294223775553384e-16
aI449562720
aF1.0
aF0.048344930804687575
acnumpy.core.multiarray
scalar
p3
(cnumpy
dtype
p4
(S'f8'
p5
I0
I1
tp6
Rp7
(I3
S'<'
p8
NNNI-1
I-1
I0
tp9
bS'}"\xcfF@\xf9\x11@'
p10
tp11
Rp12
a(F4.493409457909064
F4.493409058617158
tp13
a(F4.493409058617158
F8.67396372010462e-08
tp14
aa(lp15
(F4.493409457909064
F-7.218300729428198e-18
tp16
aF-1.92942216488001e-16
aI108092379
aF1.0
aF0.048344946991775724
ag3
(g7
S'\x9a\xb4mW@\xf9\x11@'
p17
tp18
Rp19
a(F4.493409553914383
F4.493409457909064
tp20
a(F4.493409553914383
F-2.0855583196939353e-08
tp21
aa.