(lp0
(lp1
(cnumpy.core.multiarray
scalar
p2
(cnumpy
dtype
p3
(S'f8'
p4
I0
I1
tp5
Rp6
(I3
S'<'
p7
NNNI-1
I-1
I0
tp8
bS'\xb5H1\xcdJ\xa9\x0f@'
p9
tp10
Rp11
F6.527429032614406e-06
tp12
ag2
(g6
S'\x92|\xe7\xb6L\xc3\xa9\xbc'
p13
tp14
Rp15
aI36513975783
aF1.0
aF0.050851639095524974
ag2
(g6
S'\xc2\xc1\xfd\x8cF\xa9\x0f@'
p16
tp17
Rp18
a(g11
F3.95764598838955
tp19
a(F3.95764598838955
F1.3054884808005712e-05
tp20
aa(lp21
(g2
(g6
S'\xa8\xcfd\rO\xa9\x0f@'
p22
tp23
Rp24
F3.26371117343965e-06
tp25
ag2
(g6
S'S\xba\xcb\x86G\xc3\xa9\xbc'
p26
tp27
Rp28
aI18256987891
aF1.0
aF0.05085377435614244
ag2
(g6
S'.\x0cK\xedL\xa9\x0f@'
p29
tp30
Rp31
a(g24
g11
tp32
a(g11
F6.527429032614406e-06
tp33
aa(lp34
(F3.957678419314858
F-4.3331064642935194e-17
tp35
ag2
(g6
S'\xc3m[\x11D\xc3\xa9\xbc'
p36
tp37
Rp38
aI18256987892
aF1.0
aF0.05085519786438317
ag2
(g6
S'"\x93~-Q\xa9\x0f@'
p39
tp40
Rp41
a(F3.957678419314858
g24
tp42
a(g24
F3.26371117343965e-06
tp43
aa(lp44
(F3.957678419314858
F-4.3331064642935194e-17
tp45
ag2
(g6
S'\x0b,\x02U@\xc3\xa9\xbc'
p46
tp47
Rp48
aI21180031776
aF1.0
aF0.05085673530895586
ag2
(g6
S',(\xcf\xc4U\xa9\x0f@'
p49
tp50
Rp51
a(g2
(g6
S'\xbc\xf9\x05<X\xa9\x0f@'
p52
tp53
Rp54
F3.957678419314858
tp55
a(g54
F-3.78624085332565e-06
tp56
aa(lp57
(g54
F-3.78624085332565e-06
tp58
ag2
(g6
S'\xb2~\xbeQ<\xc3\xa9\xbc'
p59
tp60
Rp61
aI21180031776
aF1.0
aF0.05085838667318195
ag2
(g6
S'L\xcb<\xb3Z\xa9\x0f@'
p62
tp63
Rp64
a(g2
(g6
S'\xdc\x9cs*]\xa9\x0f@'
p65
tp66
Rp67
g54
tp68
a(g67
F-7.572472707920243e-06
tp69
aa(lp70
(g67
F-7.572472707920243e-06
tp71
ag2
(g6
S'\x9f\xe6\xc7L6\xc3\xa9\xbc'
p72
tp73
Rp74
aI42360063553
aF1.0
aF0.05086086373148118
ag2
(g6
S'\xfc?\xe1\x18b\xa9\x0f@'
p75
tp76
Rp77
a(F3.9577160426091624
g67
tp78
a(F3.9577160426091624
F-1.5144909420056237e-05
tp79
aa.