(lp0
(lp1
(F0.3725074107813666
F-5.1196989365556847e-17
tp2
aF2.1628377754426715e-16
aI35274927153
aF1.0
aF-3.2816270238233014
acnumpy.core.multiarray
scalar
p3
(cnumpy
dtype
p4
(S'f8'
p5
I0
I1
tp6
Rp7
(I3
S'<'
p8
NNNI-1
I-1
I0
tp9
bS'\xe4_n7%\xd7\xd7?'
p10
tp11
Rp12
a(F0.3725074107813666
F0.37250545262955076
tp13
a(F0.37250545262955076
F-7.629394497300878e-06
tp14
aa(lp15
(F0.3725074107813666
F-5.1196989365556847e-17
tp16
aF2.1628306412638612e-16
aI35275043570
aF1.0
aF-3.2815887085000703
ag3
(g7
S'u\xef\xfbm-\xd7\xd7?'
p17
tp18
Rp19
a(F0.3725093689396449
F0.3725074107813666
tp20
a(F0.3725093689396449
F7.629394510460178e-06
tp21
aa.