(lp0
(lp1
(cnumpy.core.multiarray
scalar
p2
(cnumpy
dtype
p3
(S'f8'
p4
I0
I1
tp5
Rp6
(I3
S'<'
p7
NNNI-1
I-1
I0
tp8
bS'\xd4l\\T\x11=\x03@'
p9
tp10
Rp11
F3.8146914211973563e-06
tp12
ag2
(g6
S'\xa1\x9a\xbf3\xe0\x9c\xb0\xbc'
p13
tp14
Rp15
aI16546180715
aF1.0
aF0.10793683016049586
ag2
(g6
S'\x9e\x15?g\x0f=\x03@'
p16
tp17
Rp18
a(g11
F2.404810861735133
tp19
a(F2.404810861735133
F7.629394497919178e-06
tp20
aa(lp21
(F2.404825557695773
F-6.10876525973673e-17
tp22
ag2
(g6
S'?\xcf#\xe0\xdc\x9c\xb0\xbc'
p23
tp24
Rp25
aI16546180716
aF1.0
aF0.10793807788320298
ag2
(g6
S'\n\xc4yA\x13=\x03@'
p26
tp27
Rp28
a(F2.404825557695773
g11
tp29
a(g11
F3.8146914211973563e-06
tp30
aa(lp31
(F2.404825557695773
F-6.10876525973673e-17
tp32
ag2
(g6
S'\x12\xd4\x84\x8c\xd9\x9c\xb0\xbc'
p33
tp34
Rp35
aI16546281884
aF1.0
aF0.1079393256506183
ag2
(g6
S'\x0e8\xb5\x1b\x17=\x03@'
p36
tp37
Rp38
a(g2
(g6
S'\xdcT\xd3\x08\x19=\x03@'
p39
tp40
Rp41
F2.404825557695773
tp42
a(g41
F-3.814703089479619e-06
tp43
aa(lp44
(g41
F-3.814703089479619e-06
tp45
ag2
(g6
S'\x1e\xa9\xe28\xd6\x9c\xb0\xbc'
p46
tp47
Rp48
aI16546281885
aF1.0
aF0.10794057334237947
ag2
(g6
S'\xaaq\xf1\xf5\x1a=\x03@'
p49
tp50
Rp51
a(F2.404840253746269
g41
tp52
a(F2.404840253746269
F-7.62939452302276e-06
tp53
aa.