(lp0
(lp1
(F-15.73121101946115
F-0.0039062499993212326
tp2
acnumpy.core.multiarray
scalar
p3
(cnumpy
dtype
p4
(S'f8'
p5
I0
I1
tp6
Rp7
(I3
S'<'
p8
NNNI-1
I-1
I0
tp9
bS'7\x0b\xc5\xd1\xd5\x98!='
p10
tp11
Rp12
aI7814910951
aF1.0
aF-49.28489754141315
ag3
(g7
S'\x00\x15\x87a`v/\xc0'
p13
tp14
Rp15
a(g3
(g7
S'\r\x0b\xa0x_v/\xc0'
p16
tp17
Rp18
F-15.73121101946115
tp19
a(g18
F-0.003661967029166032
tp20
aa(lp21
(g18
F-0.003661967029166032
tp22
ag3
(g7
S'\xa3\x10\x84&|\x98!='
p23
tp24
Rp25
aI7814910951
aF1.0
aF-49.27675081185872
ag3
(g7
S'\x1a\x01\xb9\x8f^v/\xc0'
p26
tp27
Rp28
a(g3
(g7
S'&\xf7\xd1\xa6]v/\xc0'
p29
tp30
Rp31
g18
tp32
a(g31
F-0.0034177030530115234
tp33
aa(lp34
(g31
F-0.0034177030530115234
tp35
ag3
(g7
S'Nt\x0e\x7f"\x98!='
p36
tp37
Rp38
aI7814910950
aF1.0
aF-49.26860572421046
ag3
(g7
S'3\xed\xea\xbd\\v/\xc0'
p39
tp40
Rp41
a(g3
(g7
S'@\xe3\x03\xd5[v/\xc0'
p42
tp43
Rp44
g31
tp45
a(g44
F-0.0031734580677493323
tp46
aa(lp47
(g44
F-0.0031734580677493323
tp48
ag3
(g7
S'C\x04d\xdb\xc8\x97!='
p49
tp50
Rp51
aI7814910951
aF1.0
aF-49.260462267646695
ag3
(g7
S'L\xd9\x1c\xecZv/\xc0'
p52
tp53
Rp54
a(g3
(g7
S'Y\xcf5\x03Zv/\xc0'
p55
tp56
Rp57
g44
tp58
a(g57
F-0.0029292320701779537
tp59
aa(lp60
(g57
F-0.0029292320701779537
tp61
ag3
(g7
S'i\x8e\x84;o\x97!='
p62
tp63
Rp64
aI7814910951
aF1.0
aF-49.25232043498581
ag3
(g7
S'f\xc5N\x1aYv/\xc0'
p65
tp66
Rp67
a(g3
(g7
S'r\xbbg1Xv/\xc0'
p68
tp69
Rp70
g57
tp71
a(g70
F-0.002685025057190276
tp72
aa(lp73
(g70
F-0.002685025057190276
tp74
ag3
(g7
S'\x03\xe1o\x9f\x15\x97!='
p75
tp76
Rp77
aI7814910950
aF1.0
aF-49.24418025322649
ag3
(g7
S'\x7f\xb1\x80HWv/\xc0'
p78
tp79
Rp80
a(g3
(g7
S'\x8c\xa7\x99_Vv/\xc0'
p81
tp82
Rp83
g70
tp84
a(g83
F-0.002440837025679809
tp85
aa(lp86
(g83
F-0.002440837025679809
tp87
ag3
(g7
S'\x06\xca%\x07\xbc\x96!='
p88
tp89
Rp90
aI7814910951
aF1.0
aF-49.23604171156581
ag3
(g7
S'\x98\x9d\xb2vUv/\xc0'
p91
tp92
Rp93
a(g3
(g7
S'\xa5\x93\xcb\x8dTv/\xc0'
p94
tp95
Rp96
g83
tp97
a(g96
F-0.002196667972446954
tp98
aa(lp99
(g3
(g7
S'\xbe\x7f\xfd\xbbRv/\xc0'
p100
tp101
Rp102
F-0.001952517894386484
tp103
ag3
(g7
S'k\x17\xa6rb\x96!='
p104
tp105
Rp106
aI7814910951
aF1.0
aF-49.22790479380176
ag3
(g7
S'\xb2\x89\xe4\xa4Sv/\xc0'
p107
tp108
Rp109
a(g102
g96
tp110
a(g96
F-0.002196667972446954
tp111
aa(lp112
(g102
F-0.001952517894386484
tp113
ag3
(g7
S'\xff\xb4\xa4E\x1f\x96!='
p114
tp115
Rp116
aI3907455476
aF1.0
aF-49.22180317082853
ag3
(g7
S'\xc4\xfa\x89GRv/\xc0'
p117
tp118
Rp119
a(g3
(g7
S'\xcau\x16\xd3Qv/\xc0'
p120
tp121
Rp122
g102
tp123
a(g122
F-0.001830449970050297
tp124
aa(lp125
(g122
F-0.001830449970050297
tp126
ag3
(g7
S'\xcby<~\xf2\x95!='
p127
tp128
Rp129
aI3907455475
aF1.0
aF-49.217735929856886
ag3
(g7
S'\xd0\xf0\xa2^Qv/\xc0'
p130
tp131
Rp132
a(g3
(g7
S'\xd7k/\xeaPv/\xc0'
p133
tp134
Rp135
g122
tp136
a(g135
F-0.0017083867883625533
tp137
aa(lp138
(g135
F-0.0017083867883625533
tp139
ag3
(g7
S'\xd5\xbb\xc6\xb7\xc5\x95!='
p140
tp141
Rp142
aI3907455475
aF1.0
aF-49.2136690957703
ag3
(g7
S'\xde\xe6\xbbuPv/\xc0'
p143
tp144
Rp145
a(g3
(g7
S'\xe4aH\x01Pv/\xc0'
p146
tp147
Rp148
g135
tp149
a(g148
F-0.0015863283489001294
tp150
aa(lp151
(g148
F-0.0015863283489001294
tp152
ag3
(g7
S'\x94tC\xf2\x98\x95!='
p153
tp154
Rp155
aI3907455476
aF1.0
aF-49.20960268657831
ag3
(g7
S'\xea\xdc\xd4\x8cOv/\xc0'
p156
tp157
Rp158
a(g3
(g7
S'\xf0Wa\x18Ov/\xc0'
p159
tp160
Rp161
g148
tp162
a(g161
F-0.0014642746512399472
tp163
aa(lp164
(g161
F-0.0014642746512399472
tp165
ag3
(g7
S'\xde\x9d\xb2-l\x95!='
p166
tp167
Rp168
aI3907455475
aF1.0
aF-49.20553668782709
ag3
(g7
S'\xf6\xd2\xed\xa3Nv/\xc0'
p169
tp170
Rp171
a(g3
(g7
S'\xfdMz/Nv/\xc0'
p172
tp173
Rp174
g161
tp175
a(g174
F-0.0013422256950526756
tp176
aa(lp177
(g174
F-0.0013422256950526756
tp178
ag3
(g7
S'\xab1\x14j?\x95!='
p179
tp180
Rp181
aI3907455475
aF1.0
aF-49.201471077963895
ag3
(g7
S'\x04\xc9\x06\xbbMv/\xc0'
p182
tp183
Rp184
a(g3
(g7
S'\nD\x93FMv/\xc0'
p185
tp186
Rp187
g174
tp188
a(g187
F-0.0012201814799153135
tp189
aa(lp190
(g187
F-0.0012201814799153135
tp191
ag3
(g7
S's)h\xa7\x12\x95!='
p192
tp193
Rp194
aI3907455476
aF1.0
aF-49.19740587499824
ag3
(g7
S'\x10\xbf\x1f\xd2Lv/\xc0'
p195
tp196
Rp197
a(g3
(g7
S'\x16:\xac]Lv/\xc0'
p198
tp199
Rp200
g187
tp201
a(g200
F-0.0010981420054049045
tp202
aa(lp203
(g3
(g7
S'#0\xc5tKv/\xc0'
p204
tp205
Rp206
F-0.000976107271192228
tp207
ag3
(g7
S'\x1e\x7f\xae\xe5\xe5\x94!='
p208
tp209
Rp210
aI3907455475
aF1.0
aF-49.193341100464174
ag3
(g7
S'\x1c\xb58\xe9Kv/\xc0'
p211
tp212
Rp213
a(g206
g200
tp214
a(g200
F-0.0010981420054049045
tp215
aa(lp216
(g206
F-0.000976107271192228
tp217
ag3
(g7
S'\x92,\xe7$\xb9\x94!='
p218
tp219
Rp220
aI3907455475
aF1.0
aF-49.18927674182929
ag3
(g7
S'*\xabQ\x00Kv/\xc0'
p221
tp222
Rp223
a(g3
(g7
S'0&\xde\x8bJv/\xc0'
p224
tp225
Rp226
g206
tp227
a(g226
F-0.0008540772768544047
tp228
aa(lp229
(g226
F-0.0008540772768544047
tp230
ag3
(g7
S'Y+\x12e\x8c\x94!='
p231
tp232
Rp233
aI3907455476
aF1.0
aF-49.18521278109655
ag3
(g7
S'6\xa1j\x17Jv/\xc0'
p234
tp235
Rp236
a(g3
(g7
S'<\x1c\xf7\xa2Iv/\xc0'
p237
tp238
Rp239
g226
tp240
a(g239
F-0.0007320520219685996
tp241
aa(lp242
(g239
F-0.0007320520219685996
tp243
ag3
(g7
S'Ru/\xa6_\x94!='
p244
tp245
Rp246
aI3907455475
aF1.0
aF-49.181149221777986
ag3
(g7
S'B\x97\x83.Iv/\xc0'
p247
tp248
Rp249
a(g3
(g7
S'I\x12\x10\xbaHv/\xc0'
p250
tp251
Rp252
g239
tp253
a(g252
F-0.000610031506205703
tp254
aa(lp255
(g3
(g7
S'V\x08)\xd1Gv/\xc0'
p256
tp257
Rp258
F-0.0004880157291429574
tp259
ag3
(g7
S'Y\x04?\xe82\x94!='
p260
tp261
Rp262
aI3907455475
aF1.0
aF-49.177086069363206
ag3
(g7
S'P\x8d\x9cEHv/\xc0'
p263
tp264
Rp265
a(g258
g252
tp266
a(g252
F-0.000610031506205703
tp267
aa(lp268
(g258
F-0.0004880157291429574
tp269
ag3
(g7
S'\x0b\xd2@+\x06\x94!='
p270
tp271
Rp272
aI3907455476
aF1.0
aF-49.17302333736092
ag3
(g7
S'\\\x83\xb5\\Gv/\xc0'
p273
tp274
Rp275
a(g3
(g7
S'b\xfeA\xe8Fv/\xc0'
p276
tp277
Rp278
g258
tp279
a(g278
F-0.00036600469035764915
tp280
aa(lp281
(g3
(g7
S'o\xf4Z\xffEv/\xc0'
p282
tp283
Rp284
F-0.00024399838952077926
tp285
ag3
(g7
S'>\xd84o\xd9\x93!='
p286
tp287
Rp288
aI3907455475
aF1.0
aF-49.16896099775868
ag3
(g7
S'hy\xcesFv/\xc0'
p289
tp290
Rp291
a(g284
g278
tp292
a(g278
F-0.00036600469035764915
tp293
aa(lp294
(g284
F-0.00024399838952077926
tp295
ag3
(g7
S'\xed<\xc3\xe2\xb7\x93!='
p296
tp297
Rp298
aI1953727737
aF1.0
aF-49.165914516019235
ag3
(g7
S'\xf21!\xc5Ev/\xc0'
p299
tp300
Rp301
a(g3
(g7
S'vo\xe7\x8aEv/\xc0'
p302
tp303
Rp304
g284
tp305
a(g304
F-0.00018299701571459318
tp306
aa(lp307
(g3
(g7
S'|\xeas\x16Ev/\xc0'
p308
tp309
Rp310
F-0.00012199682620971169
tp311
ag3
(g7
S'\xd4\xe4r\x85\xa1\x93!='
p312
tp313
Rp314
aI1953727738
aF1.0
aF-49.16388365912296
ag3
(g7
S'\xf9\xac\xadPEv/\xc0'
p315
tp316
Rp317
a(g310
g304
tp318
a(g304
F-0.00018299701571459318
tp319
aa(lp320
(g3
(g7
S'\x82e\x00\xa2Dv/\xc0'
p321
tp322
Rp323
F-6.099782098843806e-05
tp324
ag3
(g7
S'@\x17_(\x8b\x93!='
p325
tp326
Rp327
aI1953727738
aF1.0
aF-49.16185289306444
ag3
(g7
S"\xff':\xdcDv/\xc0"
p328
tp329
Rp330
a(g323
g310
tp331
a(g310
F-0.00012199682620971169
tp332
aa(lp333
(g3
(g7
S'\x05\xa3\xc6gDv/\xc0'
p334
tp335
Rp336
F-3.0498762468867315e-05
tp337
ag3
(g7
S'H\x13\xb6bz\x93!='
p338
tp339
Rp340
aI976863869
aF1.0
aF-49.1603298916589
ag3
(g7
S'D\x84\xe3\x84Dv/\xc0'
p341
tp342
Rp343
a(g336
g323
tp344
a(g323
F-6.099782098843806e-05
tp345
aa(lp346
(g3
(g7
S'\xc6\xc1\xa9JDv/\xc0'
p347
tp348
Rp349
F-1.5249344213562802e-05
tp350
ag3
(g7
S'P\xcf\xee\xffq\x93!='
p351
tp352
Rp353
aI488431935
aF1.0
aF-49.15956841408097
ag3
(g7
S'f28YDv/\xc0'
p354
tp355
Rp356
a(g349
g336
tp357
a(g336
F-3.0498762468867315e-05
tp358
aa(lp359
(F-15.730988906332882
F-1.8545939446732417e-15
tp360
ag3
(g7
S'\x1dX\xc4hl\x93!='
p361
tp362
Rp363
aI488431934
aF1.0
aF-49.159060765206824
ag3
(g7
S"'Q\x1b<Dv/\xc0"
p364
tp365
Rp366
a(F-15.730988906332882
g349
tp367
a(g349
F-1.5249344213562802e-05
tp368
aa(lp369
(F-15.730988906332882
F-1.8545939446732417e-15
tp370
ag3
(g7
S'-\xc6\xb9\xd0f\x93!='
p371
tp372
Rp373
aI489039556
aF1.0
aF-49.15855280678397
ag3
(g7
S'&\xcd\xf9\x1eDv/\xc0'
p374
tp375
Rp376
a(g3
(g7
S'\xc4\xb9f\x10Dv/\xc0'
p377
tp378
Rp379
F-15.730988906332882
tp380
a(g379
F1.526824063997519e-05
tp381
aa(lp382
(g379
F1.526824063997519e-05
tp383
ag3
(g7
S'\xfd\x1a\xcf7a\x93!='
p384
tp385
Rp386
aI489039556
aF1.0
aF-49.15804453420154
ag3
(g7
S'b\xa6\xd3\x01Dv/\xc0'
p387
tp388
Rp389
a(g3
(g7
S'\x00\x93@\xf3Cv/\xc0'
p390
tp391
Rp392
g379
tp393
a(g392
F3.053640708670207e-05
tp394
aa(lp395
(g392
F3.053640708670207e-05
tp396
ag3
(g7
S'\x13\xb0v\xd2X\x93!='
p397
tp398
Rp399
aI978079112
aF1.0
aF-49.15728216573468
ag3
(g7
S'<l\x1a\xd6Cv/\xc0'
p400
tp401
Rp402
a(g3
(g7
S'xE\xf4\xb8Cv/\xc0'
p403
tp404
Rp405
g392
tp406
a(g405
F6.107251739791558e-05
tp407
aa(lp408
(g405
F6.107251739791558e-05
tp409
ag3
(g7
S'\xb3f\xe0\x07H\x93!='
p410
tp411
Rp412
aI1956158223
aF1.0
aF-49.155757447630904
ag3
(g7
S'\xf0\xf7\xa7~Cv/\xc0'
p413
tp414
Rp415
a(g3
(g7
S'i\xaa[DCv/\xc0'
p416
tp417
Rp418
g405
tp419
a(g418
F0.00012214384768164074
tp420
aa(lp421
(g418
F0.00012214384768164074
tp422
ag3
(g7
S'D\xeb\x9f\xa41\x93!='
p423
tp424
Rp425
aI1956158223
aF1.0
aF-49.15372456831234
ag3
(g7
S'\xe2\\\x0f\nCv/\xc0'
p426
tp427
Rp428
a(g3
(g7
S'Z\x0f\xc3\xcfBv/\xc0'
p429
tp430
Rp431
g418
tp432
a(g431
F0.00018321399092963492
tp433
aa(lp434
(g431
F0.00018321399092963492
tp435
ag3
(g7
S'\t\x1d\x9cA\x1b\x93!='
p436
tp437
Rp438
aI1956158224
aF1.0
aF-49.15169179587803
ag3
(g7
S'\xd2\xc1v\x95Bv/\xc0'
p439
tp440
Rp441
a(g3
(g7
S'Jt*[Bv/\xc0'
p442
tp443
Rp444
g431
tp445
a(g444
F0.0002442829472222072
tp446
aa(lp447
(g444
F0.0002442829472222072
tp448
ag3
(g7
S'V\xc0\x8f\xad\xf9\x92!='
p449
tp450
Rp451
aI3912316447
aF1.0
aF-49.148642827527574
ag3
(g7
S':\xd9\x91\xe6Av/\xc0'
p452
tp453
Rp454
a(g3
(g7
S'+>\xf9qAv/\xc0'
p455
tp456
Rp457
g444
tp458
a(g457
F0.00036641729901255984
tp459
aa(lp460
(g457
F0.00036641729901255984
tp461
ag3
(g7
S'\xfc)\xf4\xe8\xcc\x92!='
p462
tp463
Rp464
aI3912316447
aF1.0
aF-49.14457789049737
ag3
(g7
S'\x1c\xa3`\xfd@v/\xc0'
p465
tp466
Rp467
a(g3
(g7
S'\x0c\x08\xc8\x88@v/\xc0'
p468
tp469
Rp470
g457
tp471
a(g470
F0.000488546903445374
tp472
aa(lp473
(g470
F0.000488546903445374
tp474
ag3
(g7
S'\xd4:K%\xa0\x92!='
p475
tp476
Rp477
aI3912316447
aF1.0
aF-49.14051336202475
ag3
(g7
S'\xfcl/\x14@v/\xc0'
p478
tp479
Rp480
a(g3
(g7
S'\xed\xd1\x96\x9f?v/\xc0'
p481
tp482
Rp483
g470
tp484
a(g483
F0.0006106717609132859
tp485
aa(lp486
(g483
F0.0006106717609132859
tp487
ag3
(g7
S'\xa1\xec\x94bs\x92!='
p488
tp489
Rp490
aI3912316447
aF1.0
aF-49.13644924659936
ag3
(g7
S'\xde6\xfe*?v/\xc0'
p491
tp492
Rp493
a(g3
(g7
S'\xce\x9be\xb6>v/\xc0'
p494
tp495
Rp496
g483
tp497
a(g496
F0.0007327918718088919
tp498
aa(lp499
(g496
F0.0007327918718088919
tp500
ag3
(g7
S'\x089\xd1\xa0F\x92!='
p501
tp502
Rp503
aI3912316448
aF1.0
aF-49.13238553706302
ag3
(g7
S'\xbe\x00\xcdA>v/\xc0'
p504
tp505
Rp506
a(g3
(g7
S'\xaee4\xcd=v/\xc0'
p507
tp508
Rp509
g496
tp510
a(g509
F0.0008549072365559617
tp511
aa(lp512
(g509
F0.0008549072365559617
tp513
ag3
(g7
S'\xe4\x19\x00\xe0\x19\x92!='
p514
tp515
Rp516
aI3912316447
aF1.0
aF-49.12832224591102
ag3
(g7
S'\x9e\xca\x9bX=v/\xc0'
p517
tp518
Rp519
a(g3
(g7
S'\x8f/\x03\xe4<v/\xc0'
p520
tp521
Rp522
g509
tp523
a(g522
F0.0009770178554845868
tp524
aa(lp525
(g522
F0.0009770178554845868
tp526
ag3
(g7
S'\x18\x89! \xed\x91!='
p527
tp528
Rp529
aI3912316447
aF1.0
aF-49.12425936064806
ag3
(g7
S'\x80\x94jo<v/\xc0'
p530
tp531
Rp532
a(g3
(g7
S'p\xf9\xd1\xfa;v/\xc0'
p533
tp534
Rp535
g522
tp536
a(g535
F0.0010991237290184591
tp537
aa(lp538
(g535
F0.0010991237290184591
tp539
ag3
(g7
S')\x805a\xc0\x91!='
p540
tp541
Rp542
aI3912316448
aF1.0
aF-49.12019685434251
ag3
(g7
S'`^9\x86;v/\xc0'
p543
tp544
Rp545
a(g3
(g7
S'P\xc3\xa0\x11;v/\xc0'
p546
tp547
Rp548
g535
tp549
a(g548
F0.0012212248575812262
tp550
aa(lp551
(g548
F0.0012212248575812262
tp552
ag3
(g7
S'\xf4\xf8;\xa3\x93\x91!='
p553
tp554
Rp555
aI3912316447
aF1.0
aF-49.116134793346696
ag3
(g7
S'@(\x08\x9d:v/\xc0'
p556
tp557
Rp558
a(g3
(g7
S'1\x8do(:v/\xc0'
p559
tp560
Rp561
g548
tp562
a(g561
F0.0013433212415028685
tp563
aa(lp564
(g561
F0.0013433212415028685
tp565
ag3
(g7
S']\xed4\xe6f\x91!='
p566
tp567
Rp568
aI3912316447
aF1.0
aF-49.11207312028758
ag3
(g7
S'"\xf2\xd6\xb39v/\xc0'
p569
tp570
Rp571
a(g3
(g7
S'\x12W>?9v/\xc0'
p572
tp573
Rp574
g561
tp575
a(g574
F0.0014654128812069559
tp576
aa(lp577
(g574
F0.0014654128812069559
tp578
ag3
(g7
S'\x0bW *:\x91!='
p579
tp580
Rp581
aI3912316447
aF1.0
aF-49.1080118602757
ag3
(g7
S'\x02\xbc\xa5\xca8v/\xc0'
p582
tp583
Rp584
a(g3
(g7
S'\xf3 \rV8v/\xc0'
p585
tp586
Rp587
g574
tp588
a(g587
F0.001587499777085809
tp589
aa(lp590
(g587
F0.001587499777085809
tp591
ag3
(g7
S'\xc1/\xfen\r\x91!='
p592
tp593
Rp594
aI3912316447
aF1.0
aF-49.10395101331106
ag3
(g7
S'\xe4\x85t\xe17v/\xc0'
p595
tp596
Rp597
a(g3
(g7
S'\xd4\xea\xdbl7v/\xc0'
p598
tp599
Rp600
g587
tp601
a(g600
F0.0017095819295317087
tp602
aa(lp603
(g600
F0.0017095819295317087
tp604
ag3
(g7
S'@q\xce\xb4\xe0\x90!='
p605
tp606
Rp607
aI3912316447
aF1.0
aF-49.099890561435075
ag3
(g7
S'\xc4OC\xf86v/\xc0'
p608
tp609
Rp610
a(g3
(g7
S'\xb5\xb4\xaa\x836v/\xc0'
p611
tp612
Rp613
g600
tp614
a(g613
F0.0018316593389368968
tp615
aa(lp616
(g613
F0.0018316593389368968
tp617
ag3
(g7
S'@\x15\x91\xfb\xb3\x90!='
p618
tp619
Rp620
aI3912316447
aF1.0
aF-49.095830540564904
ag3
(g7
S'\xa6\x19\x12\x0f6v/\xc0'
p621
tp622
Rp623
a(g3
(g7
S'\x96~y\x9a5v/\xc0'
p624
tp625
Rp626
g613
tp627
a(g626
F0.001953732005693575
tp628
aa(lp629
(g626
F0.001953732005693575
tp630
ag3
(g7
S'\xe0\xc0\x99\xe7p\x90!='
p631
tp632
Rp633
aI7824632894
aF1.0
aF-49.08974126351982
ag3
(g7
S'wHH\xb14v/\xc0'
p634
tp635
Rp636
a(g3
(g7
S'X\x12\x17\xc83v/\xc0'
p637
tp638
Rp639
g626
tp640
a(g639
F0.0021978631128300153
tp641
aa(lp642
(g639
F0.0021978631128300153
tp643
ag3
(g7
S'a\n\xcdz\x17\x90!='
p644
tp645
Rp646
aI7824632894
aF1.0
aF-49.08162364618717
ag3
(g7
S'9\xdc\xe5\xde2v/\xc0'
p647
tp648
Rp649
a(g3
(g7
S'\x1a\xa6\xb4\xf51v/\xc0'
p650
tp651
Rp652
g639
tp653
a(g652
F0.002441975254077859
tp654
aa(lp655
(g652
F0.002441975254077859
tp656
ag3
(g7
S'\xe5m\xc9\x11\xbe\x8f!='
p657
tp658
Rp659
aI7824632894
aF1.0
aF-49.073507654105605
ag3
(g7
S'\xfbo\x83\x0c1v/\xc0'
p660
tp661
Rp662
a(g3
(g7
S'\xdc9R#0v/\xc0'
p663
tp664
Rp665
g652
tp666
a(g665
F0.002686068432573305
tp667
aa(lp668
(g665
F0.002686068432573305
tp669
ag3
(g7
S'\x9d\xb9\x8e\xacd\x8f!='
p670
tp671
Rp672
aI7824632894
aF1.0
aF-49.06539327829583
ag3
(g7
S'\xbd\x03!:/v/\xc0'
p673
tp674
Rp675
a(g3
(g7
S'\x9e\xcd\xefP.v/\xc0'
p676
tp677
Rp678
g665
tp679
a(g678
F0.0029301426514519234
tp680
aa(lp681
(g678
F0.0029301426514519234
tp682
ag3
(g7
S'\xa6\xbb\x1cK\x0b\x8f!='
p683
tp684
Rp685
aI7824632894
aF1.0
aF-49.057280554674996
ag3
(g7
S'\x7f\x97\xbeg-v/\xc0'
p686
tp687
Rp688
a(g3
(g7
S'`a\x8d~,v/\xc0'
p689
tp690
Rp691
g678
tp692
a(g691
F0.0031741979138486527
tp693
aa(lp694
(g691
F0.0031741979138486527
tp695
ag3
(g7
S'1Bs\xed\xb1\x8e!='
p696
tp697
Rp698
aI7824632894
aF1.0
aF-49.04916944732596
ag3
(g7
S'A+\\\x95+v/\xc0'
p699
tp700
Rp701
a(g3
(g7
S'"\xf5*\xac*v/\xc0'
p702
tp703
Rp704
g691
tp705
a(g704
F0.0034182342228978022
tp706
aa(lp707
(g704
F0.0034182342228978022
tp708
ag3
(g7
S'\x87\x1b\x92\x93X\x8e!='
p709
tp710
Rp711
aI7824632894
aF1.0
aF-49.04105997420729
ag3
(g7
S'\x03\xbf\xf9\xc2)v/\xc0'
p712
tp713
Rp714
a(g3
(g7
S'\xe4\x88\xc8\xd9(v/\xc0'
p715
tp716
Rp717
g704
tp718
a(g717
F0.003662251581733053
tp719
aa(lp720
(g717
F0.003662251581733053
tp721
ag3
(g7
S'\x9c\x15y=\xff\x8d!='
p722
tp723
Rp724
aI7824632895
aF1.0
aF-49.032952131765306
ag3
(g7
S"\xc4R\x97\xf0'v/\xc0"
p725
tp726
Rp727
a(F-15.730766516890364
g717
tp728
a(F-15.730766516890364
F0.003906249993518636
tp729
aa.