(lp0
(lp1
(cnumpy.core.multiarray
scalar
p2
(cnumpy
dtype
p3
(S'f8'
p4
I0
I1
tp5
Rp6
(I3
S'<'
p7
NNNI-1
I-1
I0
tp8
bS'\xc0\x9b4\xc2\xfcG\xec?'
p9
tp10
Rp11
F-2.7620960703288165e-05
tp12
ag2
(g6
S'\xff=\xc5\xf0\xb9\xaf\x9a<'
p13
tp14
Rp15
aI298327508505
aF1.0
aF-0.15270430716280478
ag2
(g6
S'\xb4XZ\x07\xdaG\xec?'
p16
tp17
Rp18
a(g11
F0.8837543958804205
tp19
a(F0.8837543958804205
F-5.5242256454826726e-05
tp20
aa(lp21
(g2
(g6
S'\xcc\xde\x0e}\x1fH\xec?'
p22
tp23
Rp24
F-1.3810438468825799e-05
tp25
ag2
(g6
S'{\x1d\xa3\x07\xaa\xaf\x9a<'
p26
tp27
Rp28
aI149163754252
aF1.0
aF-0.15271433323185607
ag2
(g6
S'F\xbd\xa1\x1f\x0eH\xec?'
p29
tp30
Rp31
a(g24
g11
tp32
a(g11
F-2.7620960703288165e-05
tp33
aa(lp34
(g2
(g6
S'R\x00|\xda0H\xec?'
p35
tp36
Rp37
F-6.9052087635136544e-06
tp38
ag2
(g6
S'\x03n\xf7\x12\xa2\xaf\x9a<'
p39
tp40
Rp41
aI74581877126
aF1.0
aF-0.15271934561109934
ag2
(g6
S'\x8fo\xc5+(H\xec?'
p42
tp43
Rp44
a(g37
g24
tp45
a(g24
F-1.3810438468825799e-05
tp46
aa(lp47
(F0.8838206378941846
F-9.180893450362987e-17
tp48
ag2
(g6
S'\xb3\x7f%\xc5\x9c\xaf\x9a<'
p49
tp50
Rp51
aI74581877126
aF1.0
aF-0.15272268694194224
ag2
(g6
S'\x15\x912\x899H\xec?'
p52
tp53
Rp54
a(F0.8838206378941846
g37
tp55
a(g37
F-6.9052087635136544e-06
tp56
aa(lp57
(F0.8838206378941846
F-9.180893450362987e-17
tp58
ag2
(g6
S'x\xca!\xe6\x97\xaf\x9a<'
p59
tp60
Rp61
aI62406463148
aF1.0
aF-0.1527257554487245
ag2
(g6
S'.\xa9\xc4{IH\xec?'
p62
tp63
Rp64
a(g2
(g6
S'\x840\xa0\xbfPH\xec?'
p65
tp66
Rp67
F0.8838206378941846
tp68
a(g67
F5.777924511480507e-06
tp69
aa(lp70
(g67
F5.777924511480507e-06
tp71
ag2
(g6
S'\x91\xd3\xedu\x93\xaf\x9a<'
p72
tp73
Rp74
aI62406463147
aF1.0
aF-0.1527285511212487
ag2
(g6
S'\xda\xb7{\x03XH\xec?'
p75
tp76
Rp77
a(g2
(g6
S'/?WG_H\xec?'
p78
tp79
Rp80
g67
tp81
a(g80
F1.1555834359858368e-05
tp82
aa(lp83
(g80
F1.1555834359858368e-05
tp84
ag2
(g6
S'G;\x95\xcd\x8c\xaf\x9a<'
p85
tp86
Rp87
aI124812926295
aF1.0
aF-0.15273274419676675
ag2
(g6
S'\xdaM\x0e\xcfmH\xec?'
p88
tp89
Rp90
a(g2
(g6
S'\x86\\\xc5V|H\xec?'
p91
tp92
Rp93
g80
tp94
a(g93
F2.3111610066327482e-05
tp95
aa(lp96
(g93
F2.3111610066327482e-05
tp97
ag2
(g6
S'\xe0\xc6\xbe|\x7f\xaf\x9a<'
p98
tp99
Rp100
aI249625852590
aF1.0
aF-0.15274112971747886
ag2
(g6
S'\xddy3f\x99H\xec?'
p101
tp102
Rp103
a(F0.8838760659680021
g93
tp104
a(F0.8838760659680021
F4.622298551023461e-05
tp105
aa.