(lp0
(lp1
(cnumpy.core.multiarray
scalar
p2
(cnumpy
dtype
p3
(S'f8'
p4
I0
I1
tp5
Rp6
(I3
S'<'
p7
NNNI-1
I-1
I0
tp8
bS'\xecO\x16\xf4p\xce\x1d@'
p9
tp10
Rp11
F9.536733742574341e-07
tp12
ag2
(g6
S'Y\xa2\xa7\xacX\xb5\xa0\xbc'
p13
tp14
Rp15
aI8225755682
aF1.0
aF0.017516978138147066
ag2
(g6
S'\xdb\xc6\xf0\xfeo\xce\x1d@'
p16
tp17
Rp18
a(g11
F7.4515954523371395
tp19
a(F7.4515954523371395
F1.9073486186697224e-06
tp20
aa(lp21
(F7.451610064214504
F-2.0589416236247667e-17
tp22
ag2
(g6
S'j\xde\xfc\x86V\xb5\xa0\xbc'
p23
tp24
Rp25
aI8225755681
aF1.0
aF0.017517351919711228
ag2
(g6
S'\xfc\xd8;\xe9q\xce\x1d@'
p26
tp27
Rp28
a(F7.451610064214504
g11
tp29
a(g11
F9.536733742574341e-07
tp30
aa(lp31
(F7.451610064214504
F-2.0589416236247667e-17
tp32
ag2
(g6
S'\xd0\xd3NaT\xb5\xa0\xbc'
p33
tp34
Rp35
aI8225787648
aF1.0
aF0.017517725705235875
ag2
(g6
S'\x8d)\x87\xd3s\xce\x1d@'
p36
tp37
Rp38
a(g2
(g6
S'\r\xf1\xac\xc8t\xce\x1d@'
p39
tp40
Rp41
F7.451610064214504
tp42
a(g41
F-9.536752104028643e-07
tp43
aa(lp44
(g41
F-9.536752104028643e-07
tp45
ag2
(g6
S'\x8b\x82\x9d;R\xb5\xa0\xbc'
p46
tp47
Rp48
aI8225787648
aF1.0
aF0.01751809948757026
ag2
(g6
S'\x8d\xb8\xd2\xbdu\xce\x1d@'
p49
tp50
Rp51
a(F7.4516246761486515
g41
tp52
a(F7.4516246761486515
F-1.9073485506724708e-06
tp53
aa.