(lp0
(lp1
(cnumpy.core.multiarray
scalar
p2
(cnumpy
dtype
p3
(S'f8'
p4
I0
I1
tp5
Rp6
(I3
S'<'
p7
NNNI-1
I-1
I0
tp8
bS'j4l|\xfe\xff7\xc0'
p9
tp10
Rp11
F-0.4999842795582067
tp12
ag2
(g6
S'\xe2\xc2_u\x18#\xd5='
p13
tp14
Rp15
aI6502468479
aF1.0
aF-29455.615986879766
ag2
(g6
S'*\x1a6>\xff\xff7\xc0'
p16
tp17
Rp18
a(g11
F-23.99999999999992
tp19
a(F-23.99999999999992
F-0.9999999982313297
tp20
aa(lp21
(g2
(g6
S'\xabN\xa2\xba\xfd\xff7\xc0'
p22
tp23
Rp24
F-0.24998820994924628
tp25
ag2
(g6
S'\x0fYc"\xd7"\xd5='
p26
tp27
Rp28
aI3251234239
aF1.0
aF-29455.013895361313
ag2
(g6
S'\x8aA\x87\x1b\xfe\xff7\xc0'
p29
tp30
Rp31
a(g24
g11
tp32
a(g11
F-0.4999842795582067
tp33
aa(lp34
(g2
(g6
S'\xcc[\xbdY\xfd\xff7\xc0'
p35
tp36
Rp37
F-0.12499312255863965
tp38
ag2
(g6
S'H,\x07y\xb6"\xd5='
p39
tp40
Rp41
aI1625617119
aF1.0
aF-29454.712849044998
ag2
(g6
S'<\xd5/\x8a\xfd\xff7\xc0'
p42
tp43
Rp44
a(g37
g24
tp45
a(g24
F-0.24998820994924628
tp46
aa(lp47
(g2
(g6
S'\\\xe2J)\xfd\xff7\xc0'
p48
tp49
Rp50
F-0.06249631566289069
tp51
ag2
(g6
S'\xe9\x97a$\xa6"\xd5='
p52
tp53
Rp54
aI812808560
aF1.0
aF-29454.562323028025
ag2
(g6
S'\x14\x1f\x84A\xfd\xff7\xc0'
p55
tp56
Rp57
a(g50
g37
tp58
a(g37
F-0.12499312255863965
tp59
aa(lp60
(F-23.9999537971825
F9.756319734811011e-12
tp61
ag2
(g6
S'\xfd\xc7KA\x9b"\xd5='
p62
tp63
Rp64
aI812808560
aF1.0
aF-29454.461972654328
ag2
(g6
S'\xa4\xa5\x11\x11\xfd\xff7\xc0'
p65
tp66
Rp67
a(F-23.9999537971825
g50
tp68
a(g50
F-0.06249631566289069
tp69
aa(lp70
(F-23.9999537971825
F9.756319734811011e-12
tp71
ag2
(g6
S'\xa2\x87\x0b^\x90"\xd5='
p72
tp73
Rp74
aI812910792
aF1.0
aF-29454.36161320661
ag2
(g6
S'\x88d\x9e\xe0\xfc\xff7\xc0'
p75
tp76
Rp77
a(g2
(g6
S'$`d\xc8\xfc\xff7\xc0'
p78
tp79
Rp80
F-23.9999537971825
tp81
a(g80
F0.06250368491954705
tp82
aa(lp83
(g80
F0.06250368491954705
tp84
ag2
(g6
S'\xf4\xd6\xa0z\x85"\xd5='
p85
tp86
Rp87
aI812910792
aF1.0
aF-29454.2612464753
ag2
(g6
S'\xc0[*\xb0\xfc\xff7\xc0'
p88
tp89
Rp90
a(g2
(g6
S'\\W\xf0\x97\xfc\xff7\xc0'
p91
tp92
Rp93
g80
tp94
a(g93
F0.1250068784860079
tp95
aa(lp96
(g93
F0.1250068784860079
tp97
ag2
(g6
S'\xf6\xaa\x85%u"\xd5='
p98
tp99
Rp100
aI1625821583
aF1.0
aF-29454.110707653483
ag2
(g6
S'\x94N|g\xfc\xff7\xc0'
p101
tp102
Rp103
a(g2
(g6
S'\xcdE\x087\xfc\xff7\xc0'
p104
tp105
Rp106
g93
tp107
a(g106
F0.25001179151875014
tp108
aa(lp109
(g106
F0.25001179151875014
tp110
ag2
(g6
S'5X`{T"\xd5='
p111
tp112
Rp113
aI3251643167
aF1.0
aF-29453.80961430066
ag2
(g6
S'>4 \xd6\xfb\xff7\xc0'
p114
tp115
Rp116
a(g2
(g6
S'\xae"8u\xfb\xff7\xc0'
p117
tp118
Rp119
g106
tp120
a(g119
F0.5000157216148334
tp121
aa(lp122
(g119
F0.5000157216148334
tp123
ag2
(g6
S'\xbe\xc7Y\'\x13"\xd5='
p124
tp125
Rp126
aI6503286333
aF1.0
aF-29453.207420474595
ag2
(g6
S'\x90\xffg\xb3\xfa\xff7\xc0'
p127
tp128
Rp129
a(F-23.99990758855387
g119
tp130
a(F-23.99990758855387
F0.999999997919995
tp131
aa.