(lp0
(lp1
(F-226.19467105846508
F3.723916638426495e-14
tp2
aF2.842170943040401e-14
aI448
aF1.0
aF-0.0
acnumpy.core.multiarray
scalar
p3
(cnumpy
dtype
p4
(S'f8'
p5
I0
I1
tp6
Rp7
(I3
S'<'
p8
NNNI-1
I-1
I0
tp9
bS'\xda\xb1\xcc\xbe:Fl\xc0'
p10
tp11
Rp12
a(F-226.19467105845234
F-226.19467105846508
tp13
a(F-226.19467105845234
F1.277016499120526e-11
tp14
aa(lp15
(F-226.19467105845234
F1.277016499120526e-11
tp16
aF2.842170943040401e-14
aI1073741371
aF1.0
aF-0.0
ag3
(g7
S'\xdc\xb1\xcc\x9e:Fl\xc0'
p17
tp18
Rp19
a(F-226.1946405408871
F-226.19467105845234
tp20
a(F-226.1946405408871
F3.051757802013062e-05
tp21
aa.