(lp0
(lp1
(cnumpy.core.multiarray
scalar
p2
(cnumpy
dtype
p3
(S'f8'
p4
I0
I1
tp5
Rp6
(I3
S'<'
p7
NNNI-1
I-1
I0
tp8
bS'dr\xba\x83D\xa7\x0e@'
p9
tp10
Rp11
F1.3017358632410647e-05
tp12
ag2
(g6
S'L8m\xb7\xe4\xc6\xa9\xbc'
p13
tp14
Rp15
aI72778841253
aF1.0
aF0.05254837769106501
ag2
(g6
S'\x12\xf4\xbf\n<\xa7\x0e@'
p16
tp17
Rp18
a(g11
F3.8316413296113008
tp19
a(F3.8316413296113008
F2.6034827054538728e-05
tp20
aa(lp21
(g2
(g6
S'\xb6\xf0\xb4\xfcL\xa7\x0e@'
p22
tp23
Rp24
F6.508665591880792e-06
tp25
ag2
(g6
S'\x93\xd2\xe7\x07\xda\xc6\xa9\xbc'
p26
tp27
Rp28
aI36389420626
aF1.0
aF0.05255226180996549
ag2
(g6
S'\x8d\xb17\xc0H\xa7\x0e@'
p29
tp30
Rp31
a(g24
g11
tp32
a(g11
F1.3017358632410647e-05
tp33
aa(lp34
(g2
(g6
S'\xdf/29Q\xa7\x0e@'
p35
tp36
Rp37
F3.2543293648187473e-06
tp38
ag2
(g6
S'\xb0\xfe\x10\xb0\xd4\xc6\xa9\xbc'
p39
tp40
Rp41
aI18194710313
aF1.0
aF0.052554203790850476
ag2
(g6
S'J\x90\xf3\x1aO\xa7\x0e@'
p42
tp43
Rp44
a(g37
g24
tp45
a(g24
F6.508665591880792e-06
tp46
aa(lp47
(F3.831705970207512
F1.1736302822728639e-16
tp48
ag2
(g6
S'f\xc6$ \xd1\xc6\xa9\xbc'
p49
tp50
Rp51
aI18194710313
aF1.0
aF0.05255549850531853
ag2
(g6
S't\xcfpWS\xa7\x0e@'
p52
tp53
Rp54
a(F3.831705970207512
g37
tp55
a(g37
F3.2543293648187473e-06
tp56
aa(lp57
(F3.831705970207512
F1.1736302822728639e-16
tp58
ag2
(g6
S'X\xe2\xadA\xcd\xc6\xa9\xbc'
p59
tp60
Rp61
aI21327812941
aF1.0
aF0.05255690466871468
ag2
(g6
S'\xae\xbbM\xf1W\xa7\x0e@'
p62
tp63
Rp64
a(g2
(g6
S'U\x08\xeclZ\xa7\x0e@'
p65
tp66
Rp67
F3.831705970207512
tp68
a(g67
F-3.814711406662342e-06
tp69
aa(lp70
(g67
F-3.814711406662342e-06
tp71
ag2
(g6
S'f\xe3\xaa\x14\xc9\xc6\xa9\xbc'
p72
tp73
Rp74
aI21327812941
aF1.0
aF0.05255842229262358
ag2
(g6
S'\xfcT\x8a\xe8\\\xa7\x0e@'
p75
tp76
Rp77
a(g2
(g6
S'\xa2\xa1(d_\xa7\x0e@'
p78
tp79
Rp80
g67
tp81
a(g80
F-7.62941338371474e-06
tp82
aa(lp83
(g80
F-7.62941338371474e-06
tp84
ag2
(g6
S'\t\x97\x16\xd1\xc2\xc6\xa9\xbc'
p85
tp86
Rp87
aI42655625883
aF1.0
aF0.05256069869769628
ag2
(g6
S'\xf0:e[d\xa7\x0e@'
p88
tp89
Rp90
a(F3.8317438560138997
g80
tp91
a(F3.8317438560138997
F-1.5258789047727329e-05
tp92
aa.