(lp0
(lp1
(lp2
F5.256866329216981e-15
aF-2.599613332624613e-15
aF-2.391311754464642e-16
aF-1.507644162908361e-16
aF-9.164198777980749e-33
aa(lp3
F171.92489615101016
aF39.101266478099426
aF10.736877779457402
aF3.931008032372374
aF2.1313196269557732e-16
aaF0.8335565596009648
a(lp4
F0.833494442698136
aF0.8336186554332131
aaI4
aa.