(lp0
(lp1
(lp2
F2.9782087519758335e-19
aF-2.1149687896821367e-19
aF1.2402349185298969e-17
aF-2.204723241223433e-34
aa(lp3
F0.023950777249807924
aF0.002354246780882452
aF-0.14416600481816505
aF-1.524456280251315e-17
aaF30.618286491641115
a(lp4
F30.618180650026847
aF30.618392333621475
aaI3
aa.