(lp0
(lp1
(lp2
F-8.500450823179859e-21
aF-4.196441259228805e-21
aF-8.929133513234871e-20
aF2.4530579486340146e-19
aF3.1355675211907287e-34
aa(lp3
F-0.0006781921885345418
aF-0.0017959963870693954
aF0.002868707923051891
aF0.007983811450268627
aF3.545524518541676e-18
aaF-3.9999999999999996
a(lp4
F-3.9999999999999996
aF-3.999514879261855
aaI4
aa.