(lp0
(lp1
(lp2
F5.42926617086019e-18
aF2.2785176126822238e-17
aF-2.3683625987483772e-17
aF1.0286621286224352e-16
aF2.0235941403469542e-33
aa(lp3
F-0.41666666666666663
aF0.4714045207910316
aF-0.49999999999999994
aF1.414213562373095
aF3.1827525243774055e-17
aaF0.881373587019543
a(lp4
F0.8812009640651985
aF0.88154623104732
aaI4
aa.