(lp0
(lp1
(lp2
F-2.9431086441130776e-12
aF-2.7818399382152246e-13
aF-5.4156231526342716e-14
aF2.6833991736308142e-14
aF2.647970061363739e-15
aF3.1436978992997942e-15
aF-1.0835052724525898e-16
aF-4.0161374439836364e-32
aa(lp3
F36474.2607120814
aF-9799.840358205742
aF2645.4745716379894
aF-705.2813983902887
aF195.02897371403697
aF-49.15880694488895
aF17.57583029204344
aF-1.8545939446732417e-15
aaF-15.730988906332882
a(lp4
F-15.73450976327126
aF-15.727722743690954
aaI7
aa.