(lp0
(lp1
(lp2
F7.458490485538094e-19
aF2.2003201967056603e-18
aF1.4124037170780707e-18
aF0.0
aa(lp3
F-0.02673779125529429
aF0.06133020935658129
aF0.2131391994087529
aF0.0
aaF-2.0
a(lp4
F-2.0002863864891
aF-1.9997136607035648
aaI3
aa.