(lp0
(lp1
(lp2
F1.9229954585600426e-16
aF1.7691950980744983e-17
aF1.517887794630456e-16
aF-5.046173363100548e-34
aa(lp3
F6.522376145438926
aF-3.281607866398562
aF3.8962157339071672
aF-5.1196989365556847e-17
aaF0.3725074107813666
a(lp4
F0.3724760811272706
aF0.3725387420889792
aaI3
aa.