(lp0
(lp1
(lp2
F-8.718764127527252e-13
aF4.2259980736117486e-13
aF-1.0255601312502798e-13
aF1.1238913501713098e-14
aF3.2920582714360144e-15
aF1.5615215482927668e-15
aF5.2161955720572655e-17
aF6.415793180492841e-18
aa(lp3
F12921.918022910148
aF12239.976697235743
aF-1287.5485849364227
aF-869.604283040325
aF61.052335325599955
aF24.714898513004385
aF-0.8679293094621015
aF-0.11707950171271868
aaF-422.1900187728513
a(lp4
F-422.19360736206556
aF-422.18643018363707
aaI7
aa(lp5
(lp6
F-4.573149852329082e-13
aF-5.364808798211549e-14
aF3.179651534533591e-14
aF2.2007908486824377e-15
aF4.715443409965297e-17
aF3.901418384946385e-17
aF2.9174890542513427e-18
aa(lp7
F12753.943483257171
aF-748.4134922171835
aF-906.2016532289043
aF35.515479972547475
aF25.756411056236857
aF-0.5050297507657908
aF-0.1220154327398279
aaF-422.1828415944228
a(lp8
F-422.18643018363707
aF-422.1792530052086
aaI6
aa(lp9
(lp10
F3.1186639133082866e-13
aF-6.006772840976636e-15
aF-3.8938171057612125e-14
aF-8.64298090147293e-17
aF-7.527787962141533e-16
aF-9.164329990786637e-18
aF3.208187107116877e-18
aa(lp11
F12991.008609309474
aF-193.0782777462837
aF-923.1253294651854
aF9.20897308591867
aF26.238776211049878
aF-0.13117321965663262
aF-0.12430264661202868
aaF-422.17566441599433
a(lp12
F-422.1792530052086
aF-422.1720758267801
aaI6
aa(lp13
(lp14
F-8.732371238339032e-13
aF-8.763910675503029e-16
aF9.623387012073644e-15
aF1.0181210125780237e-15
aF6.045871782185186e-16
aF5.651089588914876e-18
aF4.767890976476413e-18
aa(lp15
F12946.059124332947
aF366.400873556643
aF-920.0096207219183
aF-17.29609419055306
aF26.151551588623917
aF0.24552442150186893
aF-0.1238915379958605
aaF-422.16848723756584
a(lp16
F-422.1720758267801
aF-422.1648986483516
aaI6
aa(lp17
(lp18
F-1.7214423388782152e-13
aF4.125114610470519e-13
aF-5.4605886352297685e-14
aF-5.056613231918384e-14
aF-2.1196340976736095e-15
aF-1.1035376823041722e-15
aF7.085443882723979e-18
aF-6.853358242645936e-18
aa(lp19
F-9247.381778961813
aF12620.104244607472
aF917.8792599498097
aF-896.9238598730489
aF-43.42436908029814
aF25.49665956603101
aF0.6168860509001377
aF-0.12079107657904214
aaF-422.16131005913735
a(lp20
F-422.1648986483516
aF-422.1577214699231
aaI7
aa(lp21
(lp22
F-7.178820523324345e-13
aF5.380561890394266e-13
aF-1.1248941319141256e-13
aF-6.572398349211197e-15
aF-5.98907248096446e-15
aF9.140560826633295e-16
aF-5.1484465204335686e-17
aF3.896323791482535e-18
aa(lp23
F-14588.55249389952
aF12020.252512135272
aF1449.3872882908374
aF-854.3708470394724
aF-68.60872644705874
aF24.28834450890326
aF0.9748507903137265
aF-0.11506860938758876
aaF-422.15413288070886
a(lp24
F-422.1577214699231
aF-422.1505442914946
aaI7
aa(lp25
(lp26
F-6.418588771185906e-13
aF7.741078563203525e-13
aF-9.309954106444512e-14
aF-5.085993785389066e-14
aF2.0797827748170237e-15
aF2.2071732418642983e-16
aF6.620883487205346e-18
aF-1.532966083081088e-20
aa(lp27
F-19612.439021692422
aF11159.556567998821
aF1949.3902583229467
aF-793.2758843679383
aF-92.30257799467479
aF22.552862534675103
aF1.311648969849752
aF-0.10684839594380748
aaF-422.14695570228037
a(lp28
F-422.1505442914946
aF-422.1433671130661
aaI7
aa(lp29
(lp30
F4.086626671646667e-13
aF2.2580950689807427e-14
aF-7.065817315011131e-14
aF1.4076351750004757e-14
aF-5.884967328770639e-15
aF1.4691721243772046e-15
aF4.9142937727345044e-17
aF5.670932670089383e-18
aa(lp31
F-24210.04135133278
aF10056.728934635643
aF2407.0386677783276
aF-714.966641686089
aF-113.99173423848639
aF20.327910582122705
aF1.6199707568759958
aF-0.09630890816878625
aaF-422.1397785238519
a(lp32
F-422.1433671130661
aF-422.1361899346376
aaI7
aa(lp33
(lp34
F-7.502997308668273e-13
aF3.155443976054097e-13
aF-1.8659787292208986e-13
aF2.0195741008959057e-14
aF-9.619320980545453e-15
aF-1.9312524782366476e-16
aF7.937322203605442e-17
aF-3.8416008757745865e-18
aa(lp35
F-28281.628451629495
aF8735.73500000243
aF2812.4036070493307
aF-621.144291452999
aF-133.20556184136984
aF17.66180721049015
aF1.8931247895742302
aF-0.08367895374201537
aaF-422.1326013454234
a(lp36
F-422.1361899346376
aF-422.1290127562092
aaI7
aa(lp37
(lp38
F8.30144922216367e-13
aF-2.2233541482224693e-13
aF4.742545055440642e-14
aF1.6901205166846435e-15
aF-1.213394504283845e-14
aF5.468192854102986e-16
aF-1.3435087966052142e-16
aF-3.572290567435959e-18
aa(lp39
F-31738.901279936104
aF7225.2720606243765
aF3156.692136812197
aF-513.8465408498164
aF-149.52719424057966
aF14.612442938595745
aF2.1251833729432525
aF-0.06923270716248063
aaF-422.125424166995
a(lp40
F-422.1290127562092
aF-422.12183557778076
aaI7
aa(lp41
(lp42
F1.213066164555383e-12
aF4.204258954292085e-13
aF-2.113477223976651e-13
aF-1.854368725205002e-14
aF-4.797470366827001e-15
aF-5.585981205182306e-16
aF-3.6427558962616703e-17
aF-2.9231977292511527e-18
aa(lp43
F-34506.907268928444
aF5558.145751529011
aF3432.43797743156
aF-395.4033646038271
aF-162.60257407815087
aF11.246022933620488
aF2.3111110871709735
aF-0.053283756453793366
aaF-422.1182469885665
a(lp44
F-422.12183557778076
aF-422.11465839935227
aaI7
aa(lp45
(lp46
F4.270036276810607e-13
aF4.6054462428591104e-14
aF-1.8478570523529676e-13
aF-1.3372947426632552e-14
aF2.479874057264195e-15
aF9.593450770944308e-17
aF2.1378773284825952e-16
aF-3.026887400766982e-18
aa(lp47
F-36525.664790250645
aF3770.5574163507135
aF3633.663375565959
aF-268.3864004628185
aF-172.14813133102484
aF7.635629364143802
aF2.4468740186224025
aF-0.03617829481505066
aaF-422.111069810138
a(lp48
F-422.11465839935227
aF-422.1074812209238
aaI7
aa(lp49
(lp50
F-7.438547989650403e-13
aF-4.850802671113962e-14
aF1.0103190145079271e-13
aF2.5189566163916718e-15
aF-1.2770634346420176e-14
aF3.218448252142363e-17
aF-6.1013153217927e-17
aF-8.3903865485721145e-19
aa(lp51
F-37751.46239930447
aF1901.317900179887
aF3756.0086399097318
aF-135.55310655712432
aF-177.95693068647884
aF3.859634640592328
aF2.5295272447189148
aF-0.01828760505632154
aaF-422.1038926317095
a(lp52
F-422.1074812209238
aF-422.1003040424953
aaI7
aa(lp53
(lp54
F1.903686462073267e-12
aF5.763182281952989e-16
aF-5.698098444963628e-14
aF-3.5196491351274736e-18
aF7.046220291313829e-15
aF1.8594803937016054e-28
aF-3.2589138401217585e-17
aF-1.304986990420984e-30
aa(lp55
F-38157.804729432886
aF-8.995157752831403
aF3796.826540149
aF0.21310655673059536
aF-179.90315494739949
aF-1.1035317119861897e-11
aF2.5572786761091733
aF5.2288097565560515e-14
aaF-422.09671545328104
a(lp56
F-422.1003040424953
aF-422.0929064115755
aaI7
aa(lp57
(lp58
F9.867880792465657e-13
aF9.778264193651571e-14
aF1.8121229308618544e-13
aF-1.0466143528853885e-14
aF1.1911910572605402e-14
aF1.6486526394049491e-16
aF6.717139567571876e-17
aF-3.462168632356744e-19
aa(lp59
F-37683.18458673537
aF-2035.3034340968804
aF3750.009182387308
aF144.2382796974225
aF-177.69773923851008
aF-4.094712103068034
aF2.5260207956019904
aF0.019402122104470766
aaF-422.08909736986993
a(lp60
F-422.0929064115755
aF-422.0852883281644
aaI7
aa(lp61
(lp62
F1.0097648743798659e-12
aF-4.428270436545052e-14
aF8.03666220396817e-14
aF2.6971400449732e-14
aF-9.108196264740623e-15
aF-1.2401415756852488e-16
aF-9.556675788603483e-18
aF-2.2984772241741916e-18
aa(lp63
F-36287.47664913197
aF-4011.6399647296166
aF3611.5272079117344
aF284.72713513665036
aF-171.1485504156352
aF-8.089178929702936
aF2.4330127779358226
aF0.038329940197224154
aaF-422.08147928645883
a(lp64
F-422.0852883281644
aF-422.0776702447533
aaI7
aa(lp65
(lp66
F3.0782423531881126e-12
aF3.9212916061569704e-13
aF-7.487632491906989e-14
aF9.648123469474957e-15
aF-1.1090255363284501e-14
aF-4.462648324880195e-16
aF1.0222242159490941e-16
aF2.856468981721402e-18
aa(lp67
F-34004.93061614001
aF-5889.700874676243
aF3384.7756588937777
aF418.24577750648217
aF-160.41599625553977
aF-11.885760433766764
aF2.2805304634364063
aF0.05632076054124026
aaF-422.0738612030477
a(lp68
F-422.0776702447533
aF-422.0700521613422
aaI7
aa(lp69
(lp70
F-2.8532995801367047e-13
aF-2.9929762410274606e-13
aF-5.801603292526675e-14
aF-4.712571376625752e-14
aF-1.0853700006090027e-14
aF-1.3824442163672081e-16
aF-9.236045179659052e-17
aF-2.0021008515645534e-18
aa(lp71
F-30891.468196991624
aF-7623.591492860762
aF3075.306818533069
aF541.5310648062829
aF-145.76273045859799
aF-15.391660859306368
aF2.0723034163970713
aF0.0729348111118355
aaF-422.0662431196366
a(lp72
F-422.0700521613422
aF-422.06243407793113
aaI7
aa(lp73
(lp74
F-1.3364518068378605e-12
aF-7.248358781198343e-14
aF-1.5856700645473469e-13
aF-4.559604995902988e-14
aF7.263169667646773e-16
aF-1.1184049684814279e-15
aF2.2724300918097542e-17
aF3.657826898108637e-18
aa(lp75
F-27023.312296587716
aF-9170.947784798758
aF2690.694181903978
aF651.5703506807691
aF-127.54722126598183
aF-18.52119663197335
aF1.8134236529834487
aF0.08776599047292855
aaF-422.05862503622564
a(lp76
F-422.06243407793113
aF-422.0548159945201
aaI7
aa(lp77
(lp78
F7.585029879211853e-13
aF7.561031421470005e-13
aF-8.83300236313308e-14
aF-1.6971624345587893e-14
aF1.0639379357993047e-15
aF-1.0431829525035905e-15
aF1.9611917611333295e-17
aF-1.0036370028358046e-18
aa(lp79
F-22495.12025510902
aF-10493.971283891835
aF2240.347043911986
aF745.675092236211
aF-106.21497882934294
aF-21.19789015634624
aF1.5102210734451458
aF0.10045179282662474
aaF-422.05100695281453
a(lp80
F-422.0548159945201
aF-422.047197911109
aaI7
aa(lp81
(lp82
F-9.177246920293435e-13
aF3.3059681465493146e-13
aF-3.0776286064990686e-14
aF-4.876301188525554e-16
aF-5.220670380359938e-15
aF-6.865363237572223e-16
aF1.0926512537650477e-16
aF-2.787151742147826e-18
aa(lp83
F-17417.666877477477
aF-11560.352241754594
aF1735.2802453347883
aF821.5465251697689
aF-82.28765610590595
aF-23.35633836084162
aF1.1701086471821227
aF0.11068216670049048
aaF-422.04338886940343
a(lp84
F-422.047197911109
aF-422.0395798276979
aaI7
aa(lp85
(lp86
F8.247567005317453e-13
aF-7.722702015064367e-13
aF4.512793625036596e-14
aF-3.2421501069208285e-14
aF-3.1984135534932043e-15
aF1.3469553767767172e-15
aF4.9626785737840763e-17
aF6.413502900084046e-18
aa(lp87
F-11915.133980104152
aF-12344.058456436962
aF1187.8447128616622
aF877.3318022629893
aF-56.35028998439888
aF-24.943810346720607
aF0.8014011380299219
aF0.11820709083623727
aaF-422.0357707859923
a(lp88
F-422.0395798276979
aF-422.0319617442868
aaI7
aa(lp89
(lp90
F-4.253564298876326e-13
aF-7.387386188698187e-13
aF5.3698133628285336e-14
aF1.7036587537024642e-14
aF8.880423857222813e-17
aF-1.3352082707807062e-15
aF2.2474582216359523e-17
aF-4.450022120932213e-18
aa(lp91
F-6122.0727883583995
aF-12825.970524525892
aF611.4253863948252
aF911.669224617235
aF-29.036994770480792
aF-25.92153512401538
aF0.4131118035340322
aF0.12284268221453579
aaF-422.0281527025812
a(lp92
F-422.0319617442868
aF-422.0243436608757
aaI7
aa(lp93
(lp94
F-4.00860641784453e-13
aF1.4624005102469318e-15
aF2.3486028295664245e-14
aF-1.8546547576020834e-17
aF-1.0112607006154573e-15
aF-6.230812136274784e-19
aF-4.52149846613359e-18
aa(lp95
F-12994.348021365926
aF20.113922557227202
aF923.7214618829555
aF-1.0154579315198988
aF-26.265647998760286
aF0.01473203971409487
aF0.12447568705377011
aaF-422.0205346191701
a(lp96
F-422.0243436608757
aF-422.01672557746457
aaI6
aa(lp97
(lp98
F-1.4805524952391933e-13
aF-7.101490412371197e-13
aF-4.4874918454929344e-14
aF-2.6300170941419003e-14
aF-1.3482016517498328e-17
aF-1.688282064385056e-15
aF-1.9219371405807674e-17
aF5.117928270362014e-19
aa(lp99
F5765.497528881847
aF-12845.11524907552
aF-571.6358215806196
aF913.195951485505
aF27.029382779857674
aF-25.967772523233695
aF-0.38400064093833486
aF0.12306624515855705
aaF-422.012916535759
a(lp100
F-422.01672557746457
aF-422.00910749405347
aaI7
aa(lp101
(lp102
F-2.7477474769980203e-13
aF4.912683825015148e-13
aF-8.187831617756696e-14
aF2.2308238083277165e-14
aF-2.328475442918442e-15
aF-1.1038152610021085e-15
aF-4.156941455597263e-17
aF-3.2327278792536626e-18
aa(lp103
F11569.44825124713
aF-12381.959604348685
aF-1149.3611012725123
aF880.351980353557
aF54.41208175781119
aF-25.03522383158343
aF-0.7733406260146998
aF0.11864886020813961
aaF-422.0052984523479
a(lp104
F-422.00910749405347
aF-422.00148941064236
aaI7
aa(lp105
(lp106
F-6.395285698703754e-13
aF1.331710181518986e-13
aF-5.1358043127559497e-14
aF-4.469161099342115e-14
aF1.1959198267702261e-15
aF2.6985029062572677e-16
aF2.760162235756803e-17
aF-3.363655526995437e-18
aa(lp107
F17089.912350266703
aF-11616.240199094782
aF-1698.943756767024
aF825.9942782301068
aF80.46343827581153
aF-23.49082843889316
aF-1.14377239628535
aF0.11133155243107501
aaF-421.9976803689368
a(lp108
F-422.00148941064236
aF-421.9938713272313
aaI7
aa.