(lp0
(lp1
(lp2
F-7.581565600096646e-14
aF8.464119262770638e-15
aF1.776048355580722e-14
aF2.2929574919116854e-15
aF6.40808953202433e-17
aF-3.296351422086279e-17
aF-5.204418406513944e-18
aa(lp3
F2272.34625219488
aF549.8954628664837
aF-287.1362951510723
aF-46.2311550967422
aF14.50822610872836
aF1.1670585189319562
aF-0.12213558432486095
aaF-237.57574320255134
a(lp4
F-237.57827810797863
aF-237.573208297124
aaI6
aa(lp5
(lp6
F6.445078311124798e-14
aF-2.5554415685975827e-16
aF-2.3106720886388368e-14
aF3.141586897953025e-15
aF6.559204017992397e-16
aF-1.0093998726703676e-16
aF6.936472617671106e-18
aa(lp7
F2154.9009674313343
aF617.2656284329009
aF-272.33553272113056
aF-51.906874105410424
aF13.761533777641624
aF1.3104538033332864
aF-0.11585212586363451
aaF-237.5706733916967
a(lp8
F-237.573208297124
aF-237.56813848626936
aaI6
aa(lp9
(lp10
F-9.07671282769717e-15
aF-5.326008334845326e-14
aF1.5941293664100514e-15
aF1.8992877646374712e-15
aF-4.865689633046311e-16
aF9.573924384057482e-17
aF-6.870189883999112e-18
aa(lp11
F2024.319806363128
aF680.8615267619028
aF-255.87399319660878
aF-57.265443498793296
aF12.930886122620175
aF1.4458481960904945
aF-0.10886160224975394
aaF-237.56560358084204
a(lp12
F-237.56813848626936
aF-237.56306867541474
aaI6
aa(lp13
(lp14
F-7.445399234672754e-14
aF-3.455676485268308e-14
aF-6.11972642116473e-15
aF6.418744913057845e-16
aF4.679292360881884e-16
aF-3.388114418202036e-17
aF-2.6781441880176884e-18
aa(lp15
F1881.401623964385
aF740.2955326154498
aF-237.85231498697902
aF-62.27418780237628
aF12.021357884044793
aF1.5724157299795938
aF-0.10120669198095167
aaF-237.56053376998744
a(lp16
F-237.56306867541474
aF-237.55799886456012
aaI6
aa(lp17
(lp18
F-8.235572564961068e-14
aF5.6749386314536665e-15
aF1.1590954709475481e-14
aF-5.66773847036936e-15
aF-6.818793372402476e-16
aF-4.554761911258804e-17
aF1.6050136377836037e-18
aa(lp19
F1727.0204260652972
aF795.2054770123697
aF-218.38064461777842
aF-66.90256991193058
aF11.03850476040422
aF1.6893843595792761
aF-0.09293412642618229
aaF-237.5554639591328
a(lp20
F-237.55799886456012
aF-237.55292905370547
aaI6
aa(lp21
(lp22
F8.277230082690807e-14
aF-5.238401521528438e-14
aF-3.636737583806398e-15
aF2.9753361995721197e-15
aF-6.19403836191917e-16
aF-9.287449893178732e-17
aF-1.551629375540563e-18
aa(lp23
F1562.1200213827162
aF845.2568530081497
aF-197.5779631388871
aF-71.12237717511239
aF9.988329452544846
aF1.7960406682381052
aF-0.08409440437560516
aaF-237.55039414827814
a(lp24
F-237.55292905370547
aF-237.54785924285085
aaI6
aa(lp25
(lp26
F-1.136001093366118e-13
aF-2.312517322928597e-14
aF-5.464583300618408e-15
aF5.795108855101212e-15
aF2.8463894517939143e-16
aF-5.674728967691193e-17
aF4.9683275273171134e-18
aa(lp27
F1387.708248719709
aF890.1448522539256
aF-175.5713587340926
aF-74.90789326090247
aF8.877244984331854
aF1.8917342167656233
aF-0.07474148362290715
aaF-237.54532433742355
a(lp28
F-237.54785924285085
aF-237.54278943199623
aaI6
aa(lp29
(lp30
F-4.166594292801193e-15
aF-1.2822269586149197e-14
aF3.0814439189195602e-15
aF2.9187207944408945e-15
aF-5.427605151808882e-17
aF4.256698784528688e-17
aF-6.489769606275158e-18
aa(lp31
F1204.8508146721692
aF929.5962199359959
aF-152.49524998249652
aF-78.23605476989685
aF7.71203552403535
aF1.9758815073401335
aF-0.06493245146517057
aaF-237.5402545265689
a(lp32
F-237.54278943199623
aF-237.5377196211416
aaI6
aa(lp33
(lp34
F-4.084881381311802e-14
aF-3.880950569760764e-14
aF-9.912500496023475e-15
aF-4.8986923323391875e-15
aF3.4150168878861683e-16
aF8.058518967642767e-17
aF7.980447646903082e-19
aa(lp35
F1014.664779558884
aF963.3709168119237
aF-128.49056452384778
aF-81.08659163207419
aF6.499814946036156
aF2.0479695384855052
aF-0.05472717613447652
aaF-237.5351847157143
a(lp36
F-237.5377196211416
aF-237.53264981028698
aaI6
aa(lp37
(lp38
F-4.473252577380487e-14
aF-2.243333909429646e-14
aF-3.581466920811312e-15
aF6.248495008823059e-16
aF-4.4007492751156423e-16
aF2.1601324067567126e-16
aF-2.9516438804297524e-18
aa(lp39
F818.3117313554145
aF991.2635782541882
aF-103.70387814180073
aF-83.44215043905801
aF5.247983385729445
aF2.1075589295006836
aF-0.04418794128762555
aaF-237.53011490485966
a(lp40
F-237.53264981028698
aF-237.52757999943236
aaI6
aa(lp41
(lp42
F-3.3595740080156315e-14
aF1.303360850990052e-14
aF-6.467613326427417e-15
aF-1.582056038212732e-16
aF1.9601489800339345e-16
aF-1.694119497634802e-16
aF-1.6061097871508658e-18
aa(lp43
F616.9906894185671
aF1013.1047614285236
aF-78.2865195337939
aF-85.28839996009476
aF3.96418205342589
aF2.1542865953030987
aF-0.033379065789521184
aaF-237.52504509400504
a(lp44
F-237.52757999943236
aF-237.5225101885777
aaI6
aa(lp45
(lp46
F-1.6878145285378e-14
aF1.1351770438821994e-13
aF2.3726352505583675e-15
aF8.643294916420655e-16
aF-1.410186053566984e-17
aF1.915642199026677e-16
aF-1.6564576194488252e-18
aa(lp47
F411.9307813040886
aF1028.7619730535196
aF-52.39364622907727
aF-86.61411820190163
aF2.65624658284953
aF2.187867955445875
aF-0.02236651110865927
aaF-237.51997528315042
a(lp48
F-237.5225101885777
aF-237.5174403777231
aaI6
aa(lp49
(lp50
F2.3968403017636727e-13
aF-1.1791725942231682e-16
aF2.2327365257272733e-15
aF1.9291183205232286e-19
aF3.019403312379173e-15
aF6.222606860354314e-29
aF-1.0634101381648683e-16
aF-3.6641967700277017e-32
aa(lp51
F-5887.886137943299
aF-4.3837504054886685
aF1041.1838384556052
aF0.18457132070822924
aF-87.67500811543339
aF1.8060364999342485e-12
aF2.2148558489277024
aF-1.5208098602776744e-14
aaF-237.50983566144114
a(lp52
F-237.5174403777231
aF-237.5022316804676
aaI7
aa(lp53
(lp54
F7.314280586519156e-15
aF4.889326236146986e-14
aF1.1526836965576928e-15
aF2.68805667808023e-15
aF1.707563271780509e-16
aF-1.5072977444233589e-16
aF-1.2719691747212381e-18
aa(lp55
F-420.4450201054062
aF1028.235384376999
aF52.74428230768938
aF-86.59953554106453
aF-2.655765547953277
aF2.1878746968351015
aF0.022364369986779677
aaF-237.49969702014306
a(lp56
F-237.5022316804676
aF-237.49716235981856
aaI6
aa(lp57
(lp58
F2.661324247174287e-14
aF-1.8662948859569685e-14
aF6.75543879000148e-15
aF6.057149294717554e-15
aF1.0274105020353341e-16
aF-5.824506756206808e-17
aF6.901955151668804e-19
aa(lp59
F-625.2212398690058
aF1012.3247722183195
aF78.61807384327493
aF-85.26701821025999
aF-3.9633005252862232
aF2.15430340523841
aF0.03337591728854645
aaF-237.49462769949406
a(lp60
F-237.49716235981856
aF-237.49209303916953
aaI6
aa(lp61
(lp62
F-4.922638109683403e-14
aF-3.4866182612449216e-14
aF-5.458021788779334e-15
aF-2.8076950197189876e-15
aF-3.774536794172793e-16
aF-1.6211994867539056e-16
aF-5.325846636386792e-19
aa(lp63
F-826.157603460139
aF990.2409599968412
aF104.01010386200551
aF-83.41447067868182
aF-5.2466039484393985
aF2.1075916404887107
aF0.04418387051838279
aaF-237.489558378845
a(lp64
F-237.49209303916953
aF-237.4870237185205
aaI6
aa(lp65
(lp66
F5.650952212676466e-14
aF-3.6368997439041185e-14
aF9.897981482180187e-15
aF-6.6288412075029385e-15
aF2.6214483253932134e-16
aF-5.197877323035776e-17
aF-3.3325833776875988e-18
aa(lp67
F-1022.0290660999307
aF962.1194403682395
aF128.76554113882142
aF-81.0532373427934
aF-6.4978495011950015
aF2.048024897508514
aF0.05472230651327036
aaF-237.484489058196
a(lp68
F-237.4870237185205
aF-237.48195439787148
aaI6
aa(lp69
(lp70
F-8.126916668761907e-14
aF1.4546501545099806e-14
aF-2.6740819872185903e-15
aF2.48416570227982e-15
aF-2.849777209250686e-16
aF-5.0402138408027423e-17
aF2.705471851855876e-18
aa(lp71
F-1211.6416850524658
aF928.1325125632403
aF152.73345718755652
aF-78.19776416358576
aF-7.709407077082296
aF1.9759670646367178
aF0.06492694891710982
aaF-237.47941973754695
a(lp72
F-237.48195439787148
aF-237.47688507722242
aaI6
aa(lp73
(lp74
F7.669335497268387e-14
aF-1.2419582081249714e-14
aF-3.1289417767497924e-16
aF3.488527409940113e-15
aF-2.0392920960796146e-16
aF-8.95089755198462e-17
aF4.115591782333604e-18
aa(lp75
F-1393.839895837378
aF888.4882251942955
aF175.76774625001414
aF-74.8655101570886
aF-8.873889298373859
aF1.8918581973756643
aF0.07473556013771854
aaF-237.4743504168979
a(lp76
F-237.47688507722242
aF-237.4718157565734
aaI6
aa(lp77
(lp78
F-1.1354180218204877e-13
aF1.9979461806693027e-14
aF-1.2599144266168439e-14
aF4.926388624307379e-17
aF2.5535414573874446e-16
aF5.283232165193149e-17
aF-4.6463322791775364e-18
aa(lp79
F-1567.513552836978
aF843.4291012191184
aF197.7280157156749
aF-71.07684052022742
aF-9.984196548771036
aF1.79621182779139
aF0.08408832083611129
aaF-237.4692810962489
a(lp80
F-237.4718157565734
aF-237.46674643592436
aaI6
aa(lp81
(lp82
F3.218824556548319e-14
aF-7.341798983164952e-15
aF-1.135685688783677e-14
aF-6.81868526688393e-15
aF7.053084978105687e-16
aF-8.321504148997692e-17
aF-5.0873236066182306e-18
aa(lp83
F-1731.604691388328
aF793.2306528856925
aF218.48044154388094
aF-66.85490204713997
aF-11.033560245181128
aF1.6896118260406436
aF0.09292819463345221
aaF-237.46421177559984
a(lp84
F-237.46674643592436
aF-237.4616771152753
aaI6
aa(lp85
(lp86
F1.2236344830443435e-14
aF1.8202464201073115e-14
aF2.841270034952758e-15
aF-3.844356401180874e-17
aF3.065502493272521e-17
aF-8.282468848280076e-17
aF4.4879911722130033e-20
aa(lp87
F-1885.113970168549
aF738.1996957668357
aF237.89858347599437
aF-62.22548159932293
aF-12.015584084828355
aF1.5727088332368542
aF0.1012012758119673
aaF-237.45914245495078
a(lp88
F-237.4616771152753
aF-237.45660779462628
aaI6
aa(lp89
(lp90
F-4.003819756039254e-14
aF-6.849071467419325e-15
aF8.515429872869009e-15
aF6.263565895370832e-16
aF-4.408533825132244e-16
aF3.752670206160988e-17
aF-4.6544103668826e-18
aa(lp91
F-2027.1067546928632
aF678.6724722004977
aF255.86415507780305
aF-57.21684849491838
aF-12.924283016659123
aF1.4462162874467674
aF0.10885711789285056
aaF-237.45407313430178
a(lp92
F-237.45660779462628
aF-237.45153847397725
aaI6
aa(lp93
(lp94
F1.0492815058656105e-13
aF1.4871285140869137e-15
aF8.310641919503628e-15
aF2.5112922701870514e-15
aF-1.4140341112054698e-16
aF-1.3494053009388415e-17
aF-2.946124069633095e-18
aa(lp95
F-2156.71880488828
aF615.0125956243801
aF272.267743921989
aF-51.859581781404586
aF-13.75411969957051
aF1.3109060671140966
aF0.11584904108812001
aaF-237.44900381365272
a(lp96
F-237.45153847397725
aF-237.44646915332822
aaI6
aa(lp97
(lp98
F-7.7810052485517e-14
aF-3.5774426199698706e-14
aF2.1028445017220615e-14
aF3.3649991900798952e-15
aF4.615670241948328e-16
aF5.038222811021093e-17
aF5.775001739773065e-18
aa(lp99
F-2273.1615321371673
aF547.6088283877294
aF287.00947752647124
aF-46.18638344835516
aF-14.500038225404976
aF1.1676037785461
aF0.12213441675287114
aaF-237.44393449300372
a(lp100
F-237.44646915332822
aF-237.4413998326792
aaI6
aa.