(lp0
(lp1
(lp2
F9.963242640032543e-17
aF5.669913555646764e-17
aF-1.3044632003570405e-17
aF4.500079196424845e-17
aF2.8968819100104158e-33
aa(lp3
F-3.3091117726079515
aF2.341633731889032
aF-1.5548106648036686
aF2.1769985090709922
aF5.806356010173174e-17
aaF0.5238225713898644
a(lp4
F0.5237665008765428
aF0.5239340072935383
aaI4
aa.