(lp0
(lp1
(lp2
(lp3
F2.5457749941346044e-14
aF6.2836657487468406e-15
aF-4.0998532141116456e-15
aF-3.126661366478118e-14
aF-2.5757005742428008e-14
aF-1.125313790940958e-14
aF9.955054610755836e-16
aF-5.125463662662465e-14
aF4.449604577715949e-14
aF2.966698049461349e-14
aF-5.150158891552823e-14
aF-3.273036946692682e-15
aF1.2973134232946517e-15
aF-8.504994861886135e-14
aF-1.1488152919547001e-14
aF2.433343494484452e-15
aF-6.867432698523123e-15
aF2.8220356852938842e-15
aF-4.048488753162902e-14
aF2.4709196067093944e-14
aF6.005550136798462e-16
aF-1.326327508458388e-15
aF-6.881173587667266e-15
aF-2.3251396169672574e-17
aF3.2102218508999585e-16
aF9.907931853447366e-16
aF-2.044903940985478e-16
aF8.250923016240294e-17
aa(lp4
F2.2413582196154986e-14
aF2.5049032649913882e-14
aF-2.140809891350556e-14
aF1.9975501068547992e-15
aF1.9646983690861102e-15
aF-3.021191177663332e-15
aF-3.822321635075313e-14
aF2.1584161109269336e-14
aF-1.9773584638861225e-14
aF-9.657390370569683e-15
aF3.0661068930180925e-15
aF1.7276824175464906e-14
aF2.1290643145118345e-14
aF-6.976383106099656e-15
aF2.598499740617632e-15
aF1.3419358643259335e-14
aF5.9859450643814284e-15
aF8.036611274450002e-16
aF1.2991436214283486e-15
aF3.318608900576731e-16
aF1.0761451217627463e-16
aa(lp5
F5.962752009412387e-15
aF-2.3474454241686987e-15
aF3.030917711402023e-15
aF2.1003184248030433e-16
aF1.0831886292314936e-16
aF-2.9503828660494434e-16
aF-6.318123315960668e-15
aF-7.019894135896372e-16
aF2.8751860491529082e-16
aF2.002487752234909e-15
aF9.019589717835004e-17
aF1.5714944169787903e-16
aF-4.898593436364445e-16
aF-1.0699864629727908e-16
aF8.956060750280012e-17
aa(lp6
F-6.951177886130294e-15
aF-6.3184309096154976e-15
aF3.050056048320899e-15
aF4.345621024409066e-16
aF-1.1743282869181659e-14
aF2.3716244463970794e-15
aF3.3278972415801127e-16
aF1.949373333959583e-16
aF4.817808278563675e-16
aF1.3440320908555036e-17
aa(lp7
F-1.1091217770858995e-15
aF-8.023583775058105e-16
aF3.6872129829601993e-16
aF-1.7240520166401806e-15
aF-1.4245163449163363e-16
aF-2.4594617302870906e-16
aa(lp8
F1.6257330861569255e-17
aF1.873026919274396e-17
aF3.203145888744639e-19
aa(lp9
F-1.5467015077770666e-17
aaa(lp10
(lp11
F809.2553452989456
aF-762.0366937152269
aF660.7018034722556
aF-512.8957545808448
aF340.0278989394617
aF-175.4201753831633
aF54.97282274962516
aF-1495.5292255241995
aF1238.100122557188
aF-910.4374782882134
aF565.4134388459156
aF-268.69587445081936
aF75.3597918291627
aF1185.7149493782
aF-829.9307440815641
aF486.24484433778446
aF-215.25891117292915
aF55.159264552116305
aF-516.51560667462
aF287.06947091662045
aF-119.35989374091533
aF28.318550660356586
aF130.45078278963058
aF-51.26422557678029
aF11.368329016901834
aF-18.119546427762184
aF3.7827856821838477
aF1.0818184301000995
aa(lp12
F443.0886421781584
aF-395.3856170396951
aF317.95755923397246
aF-220.4370691619169
aF120.72619846965888
aF-41.307285258102326
aF-730.608295060997
aF554.3685658294853
aF-357.8763773801306
aF178.713341607545
aF-53.60303594412078
aF497.5420239220362
aF-301.63840791749476
aF139.33230577872195
aF-37.71850795391141
aF-175.02664250697288
aF75.53566002424236
aF-18.776454812513787
aF31.823925493418155
aF-7.349450269072154
aF-2.3937862926168667
aa(lp13
F-93.64377391277303
aF65.59467712566591
aF-36.91434334272118
aF13.874702898296187
aF-1.419658723266954
aF123.01865041113565
aF-67.4328855611141
aF25.97765845273625
aF-4.613694858019447
aF-62.11300302679573
aF23.574652112319647
aF-4.5804034241363984
aF14.262686924267452
aF-2.78931121835547
aF-1.2535821839253503
aa(lp14
F-115.8941281597744
aF77.64858819301317
aF-40.330439043426395
aF12.417274811436611
aF128.48726204960982
aF-61.65636059678071
aF17.339625787102797
aF-49.18226209164576
aF12.706031660852531
aF6.5023949210690795
aa(lp15
F-24.797984550932505
aF14.395397751068984
aF-5.226290291690941
aF20.63848151731152
aF-6.577883977845406
aF-4.474630479870816
aa(lp16
F0.39704945439574024
aF0.25270565869977535
aF0.004780665054169093
aa(lp17
F0.5275221889640301
aaI6
aa(F2.000000000000001
F8.000000000007475
F1.768964992430297
tp18
a(lp19
(lp20
F1.9988897769753753
aF2.002220446049251
aa(lp21
F7.995559107905237
aF8.008881784204476
aa(lp22
F1.7678547694056719
aF1.7700752154549222
aaaa.