(lp0
(lp1
(lp2
(lp3
F-4.1230055267014814e-14
aF1.3423384193665968e-14
aF6.688059123983125e-15
aF-1.63922523776354e-15
aF-2.2989125832309667e-16
aF8.301270190263062e-17
aF-9.909859150474738e-18
aF2.78085420028181e-15
aF-3.638038867879987e-17
aF3.332266260517076e-17
aF-2.0878317889564627e-17
aF-4.3320715092648935e-21
aF-1.6711199043842822e-18
aF2.4962256664350315e-17
aF8.101801834073392e-18
aF1.6750439682416448e-18
aF-2.1257794172073878e-19
aF-1.13025686289926e-19
aF-4.953477729046547e-20
aF-1.789952223431194e-19
aF1.7258921750506802e-20
aF8.382419309315092e-22
aF4.986535888425905e-21
aF-5.725505466253906e-21
aF-9.067229643658972e-23
aF4.233251912170399e-22
aF-2.4313924963992367e-23
aF-1.3701452252315776e-24
aa(lp4
F1.9119853582019556e-14
aF3.451197416526691e-15
aF-1.4367512560238266e-15
aF-4.280561229664502e-17
aF2.2420894068916787e-17
aF8.02842733314275e-18
aF-3.241053152262539e-16
aF-3.4081316879694216e-17
aF2.796412631508192e-18
aF-5.61790226470753e-19
aF-8.026817006136616e-19
aF-5.121503998234104e-18
aF-3.2685877263819905e-18
aF-1.6559894020223935e-19
aF-5.63892170593972e-20
aF-6.013201922223594e-20
aF2.3972432314057913e-20
aF-1.433160216530444e-21
aF1.3175871104216293e-21
aF-8.197580187029033e-22
aF3.030042923148333e-23
aa(lp5
F-1.1824342698395187e-16
aF1.9847422872096738e-16
aF1.4291848707269716e-16
aF4.0503897441278383e-17
aF-4.06108922570755e-18
aF1.3799126271088115e-17
aF-3.2171582740503456e-19
aF-1.6789854567563273e-18
aF7.031824595487163e-19
aF1.8037380988200573e-19
aF-3.989221084864084e-19
aF4.5118157031332217e-20
aF2.2648772910244207e-20
aF1.4223434784331647e-22
aF7.65807331808615e-23
aa(lp6
F1.1869601964572364e-16
aF-1.4459636684652437e-18
aF-5.3441596594916314e-18
aF-2.1750513797513945e-18
aF1.0966231439640755e-17
aF-2.2329546986484493e-18
aF1.4285212381259128e-20
aF-8.262985801136287e-21
aF2.497793106843124e-22
aF1.3394965012623018e-21
aa(lp7
F2.6201844677614723e-18
aF-3.9000903881131536e-18
aF2.3217625262651565e-19
aF1.7075326968968147e-18
aF6.228008112497744e-20
aF-1.558198144859436e-23
aa(lp8
F-1.694433711143032e-18
aF-8.942466167460434e-20
aF9.069037828148507e-21
aa(lp9
F2.3604141968348375e-21
aaa(lp10
(lp11
F956.0985912107091
aF254.36101705081362
aF68.86506941384621
aF19.01266744178974
aF5.3663469124832
aF1.553368921359789
aF0.46299964664684223
aF48.30098259435142
aF10.179336236381761
aF1.935737412335396
aF0.27407533967014247
aF-0.008535720903520602
aF-0.03213526419856593
aF-0.3760212567345413
aF-0.14794004045583928
aF-0.040684973690072186
aF-0.0060759565863637115
aF0.0021588386997980265
aF0.0022572841348168487
aF0.002738827052524741
aF0.0008266133536622922
aF-0.0001405397454392482
aF-9.421849080257107e-05
aF-7.929115067559114e-05
aF8.875663919061743e-06
aF6.514937768957684e-06
aF-5.443580862861064e-07
aF3.2455413173623666e-08
aa(lp12
F354.44383723465234
aF83.81418489570898
aF18.86714340371787
aF3.682459095306146
aF0.3350665036786392
aF-0.3481980666710873
aF8.501984644462734
aF0.7993205083420849
aF-0.14422396085145156
aF-0.10334185699620893
aF-0.007967172996909135
aF-0.23548311595217186
aF-0.036572077671874634
aF0.0020713066930753976
aF0.0016133723868334612
aF0.004613066933426166
aF0.0004730411203267354
aF-0.00015172773800889875
aF-7.945946995579477e-05
aF1.1788335780872623e-05
aF-8.309106949098269e-07
aa(lp13
F3.089107383972039
aF-3.265908328327087
aF-2.0002158234413425
aF-0.7137022486576802
aF0.1391679328428537
aF-1.4451498334216784
aF-0.3300395371441532
aF-0.017914544536508207
aF0.014531593464960281
aF0.019209081601202715
aF0.00672924319418104
aF-0.0007110084796538998
aF-0.0005072669419319821
aF1.152349595334872e-05
aF1.6457555946832626e-06
aa(lp14
F-2.0722319180266386
aF0.06096528268055112
aF0.35837605397913425
aF-0.039107693257025684
aF0.12726540516325582
aF0.044743610664405235
aF-0.006939529954582442
aF-0.002272503143918156
aF-2.2565049821900134e-05
aF1.697816239770432e-05
aa(lp15
F0.2285044241017814
aF-0.11304323786693102
aF0.008639136323702626
aF-0.022808614090859606
aF0.0021043141555992483
aF9.2225641922384e-05
aa(lp16
F0.02691839512184695
aF-0.0015923256908653147
aF-0.0004840834104554951
aa(lp17
F0.0002540384033766125
aaI6
aa(F0.9999999999997491
F8.000000000000021
F-0.1550622152973539
tp18
a(lp19
(lp20
F0.9994448884874365
aF1.0011102230241233
aa(lp21
F7.99555910790151
aF8.008881784197023
aa(lp22
F-0.15520099317543204
aF-0.15492343741927575
aaaa.