(lp0
(lp1
(lp2
(lp3
F-1.0827763874843148e-21
aF-3.49726128486559e-24
aF-1.4698039889981543e-24
aF7.943935680713333e-27
aF9.266479605442492e-28
aF-1.392984892002707e-29
aF4.250840436122387e-31
aF5.408980328713093e-09
aF-8.695017833501068e-11
aF-6.605622733201021e-13
aF-1.0901823913492129e-13
aF4.0043501673400474e-16
aF-7.544695948314168e-18
aF4.406183406770666e-10
aF-1.290318225829737e-12
aF-6.17692587765413e-14
aF-1.1155215865914998e-15
aF-1.2126311840350819e-17
aF5.561435527666872e-13
aF-1.33798687926093e-14
aF-7.445446719682625e-16
aF3.122354430266214e-17
aF3.912403357644351e-14
aF-3.312744068568536e-15
aF2.5927225822303607e-17
aF-8.808072404980485e-16
aF-2.415714011820645e-19
aF-2.3527836682060578e-18
aa(lp4
F1.5330717798853883e-28
aF8.600277402314526e-29
aF-2.925297048926787e-30
aF1.1383976446105887e-30
aF5.557610109406804e-32
aF1.3458836464190665e-33
aF5.009441807417563e-15
aF-1.5265972043771656e-15
aF-2.9540599877816616e-16
aF3.413368146249312e-17
aF1.2404964761493393e-18
aF1.666824245862998e-13
aF3.010803903479411e-15
aF1.6987673759379747e-16
aF-1.1623618069767372e-20
aF3.843043555933719e-15
aF-7.11926708934745e-17
aF-1.0383312967457325e-18
aF-2.7398735507137662e-18
aF-2.5349726542337824e-18
aF4.365956650911938e-19
aa(lp5
F2.5581220114413764e-30
aF-5.898187504351198e-31
aF-5.94665128512833e-32
aF-8.721080803255574e-34
aF1.1535583653323167e-33
aF2.5835730520208447e-17
aF5.63800444712101e-18
aF-2.460870026341912e-19
aF-1.0013806688005494e-19
aF2.0134356975365593e-16
aF-1.3605171234341733e-17
aF-5.0541373063359017e-20
aF1.221681090845721e-18
aF-3.8816157293031044e-21
aF6.011616250314255e-20
aa(lp6
F1.712894404426432e-32
aF-3.540324709095721e-35
aF-2.863168856253872e-35
aF-3.5060433484334335e-35
aF1.5965821087332595e-20
aF2.37944153541503e-21
aF-1.6532850327155584e-21
aF3.9563542878310763e-19
aF-5.456106020970396e-21
aF-9.576127862302808e-22
aa(lp7
F-1.0935776889375957e-35
aF-1.2244213251263791e-37
aF3.0066060117681217e-36
aF-5.450990861847991e-25
aF-3.9330425293540966e-23
aF-7.160385819739131e-23
aa(lp8
F7.335392916627251e-40
aF-5.776660174473103e-38
aF-7.078549165065588e-24
aa(lp9
F-1.0670392966350036e-38
aaa(lp10
(lp11
F3.7292530446177686e-05
aF8.592439736722251e-07
aF2.0619312222969086e-08
aF5.264729641813618e-10
aF1.4694758880330754e-11
aF4.349137103554121e-13
aF1.0034012670118482e-14
aF76638118.46669434
aF1839088.0137245809
aF46957.44006909347
aF1310.6622873329748
aF38.79104128546748
aF0.8949586791076191
aF-4323556.137456836
aF-92251.12352814393
aF-1825.3632430329337
aF-24.1275317323772
aF0.14520226949272794
aF28706.8724364962
aF-154.41460891445286
aF-23.165603427164317
aF-0.5522188836784065
aF1719.4925548676076
aF33.03689883146503
aF0.28671561291375314
aF-13.713211164268182
aF-0.010997506706584914
aF-0.05918185688793843
aa(lp12
F-2.26431085189292e-12
aF-9.507167544908281e-13
aF-2.9400461698306774e-13
aF-6.317922890309852e-14
aF-8.431845229269206e-15
aF-5.266334328109236e-16
aF-84.79680450511351
aF-26.22300691824837
aF-5.635113399301219
aF-0.7520573589964581
aF-0.04697175266740077
aF3542.53280098145
aF106.56116322895957
aF2.93825224209108
aF0.030706086355769616
aF-127.72477262690816
aF-1.1661297411292986
aF0.02706099370791461
aF-2.0635944107302806
aF-0.040851803138804814
aF0.017910083762964973
aa(lp13
F-9.535684690288599e-14
aF-1.7891593759125065e-14
aF-1.5367874956254686e-15
aF8.173576996715223e-17
aF2.1867483802214862e-17
aF-1.5957959835442592
aF-0.13706991932054075
aF0.007290217695605932
aF0.0019504155578075454
aF-3.120613180819841
aF-0.13107282942187573
aF-0.0028181592819183157
aF0.15955011151468176
aF-6.475815542673625e-05
aF0.0025503900659087715
aa(lp14
F-2.372904777046821e-16
aF2.3820749424617957e-17
aF-5.282146363349964e-19
aF-9.60792161943068e-19
aF0.002124632202619181
aF-4.71127841632967e-05
aF-8.569545528980751e-05
aF0.005354999981837862
aF0.00017520676683641174
aF-6.729607518720053e-05
aa(lp15
F-1.8277499520598164e-19
aF2.560176855383964e-21
aF4.6005873903695647e-20
aF2.2834857519888553e-07
aF4.103378926623954e-06
aF-1.0113449927911239e-05
aa(lp16
F-9.927033564203343e-24
aF-2.3414496498607284e-21
aF-2.0883974883515288e-07
aa(lp17
F1.2406019448404274e-22
aaI6
aa(F16.19650648234097
F1.1211704969578721e-14
F0.9807993288672534
tp18
a(lp19
(lp20
F16.178742913946966
aF16.21427005073497
aa(lp21
F1.120381636052651e-14
aF1.1219593578630931e-14
aa(lp22
F0.9802442173549408
aF0.981354440379566
aaaa.