(lp0
(lp1
(lp2
F1.940315028789972e-18
aF-1.1945825208546434e-17
aF-4.2835483667512466e-17
aF4.473195090382002e-35
aa(lp3
F-0.13450416471668394
aF-0.1527243575768862
aF0.8339357939112115
aF7.765374422987675e-19
aaF0.8838206378941847
a(lp4
F0.8837543958804205
aF0.8838760659680021
aaI3
aa.