(lp0
(lp1
(lp2
F-1.905394200647907e-18
aF9.022415591735672e-18
aF6.878347149357538e-34
aa(lp3
F0.04834494391087783
aF-0.21723362821122166
aF-7.218300729428198e-18
aaF4.493409457909064
a(lp4
F4.493409058617158
aF4.493409553914383
aaI2
aa.