(lp0
(lp1
(lp2
F-1.0052771571067671e-19
aF1.3505216917828673e-19
aF-5.678951988372493e-19
aF0.0
aa(lp3
F-0.0017959963870693941
aF0.002868707923051893
aF0.007983811450268625
aF0.0
aaF-4.0
a(lp4
F-4.0000000000000115
aF-3.9999696615380373
aaI3
aa.