(lp0
(lp1
(lp2
F-1.7303491298567285e-12
aF2.928761625291955e-14
aF1.9713620994720516e-13
aF5.820697471254632e-15
aF-9.610837119327208e-15
aF-1.7694199315034796e-17
aF-5.210172478327842e-17
aF7.797106891525697e-19
aa(lp3
F-37621.87121388221
aF2180.333188053828
aF3743.0577596750963
aF-155.38158725797348
aF-177.34151623603282
aF4.423307077582606
aF2.5207667867458707
aF-0.02095832837335866
aaF-422.1049502407193
a(lp4
F-422.10906763443836
aF-422.10083284700016
aaI7
aa(lp5
(lp6
F1.903686462073267e-12
aF5.763182281952989e-16
aF-5.698098444963628e-14
aF-3.5196491351274736e-18
aF7.046220291313829e-15
aF1.8594803937016054e-28
aF-3.2589138401217585e-17
aF-1.304986990420984e-30
aa(lp7
F-38157.804729432886
aF-8.995157752831403
aF3796.826540149
aF0.21310655673059536
aF-179.90315494739949
aF-1.1035317119861897e-11
aF2.5572786761091733
aF5.2288097565560515e-14
aaF-422.09671545328104
a(lp8
F-422.10083284700016
aF-422.09292006870953
aaI7
aa(lp9
(lp10
F1.923805041476844e-12
aF3.362939150571199e-14
aF3.6028611676463034e-14
aF1.1849316204103987e-14
aF1.6283075400661782e-15
aF-3.524323754014178e-16
aF1.5711394737540875e-16
aF6.480512284413888e-19
aa(lp11
F-37686.54544731363
aF-2028.098092364342
aF3750.3421489121024
aF143.7261131663027
aF-177.71347031218127
aF-4.080150407093295
aF2.5262440859941035
aF0.01933312264392784
aaF-422.089124684138
a(lp12
F-422.09292006870953
aF-422.08532929956647
aaI7
aa.