(lp0
(lp1
(lp2
F-1.754455787808109e-17
aF-2.348441212118517e-15
aF4.4094108587893295e-18
aF-2.0449427384257762e-16
aF-1.843350926575049e-31
aa(lp3
F1.6739388062418448
aF-77.80865243984205
aF-0.10803699996774725
aF10.043632837447152
aF7.250766601159764e-15
aaF-46.482375669729755
a(lp4
F-46.483153204082285
aF-46.48159833389217
aaI4
aa.