(lp0
(lp1
(lp2
F-1.0622590364698902e-18
aF1.800225289209694e-19
aF-2.1061355430369344e-17
aF-7.41630033444082e-34
aa(lp3
F0.05660177443794623
aF0.10793870175492011
aF-0.5191474972894667
aF-6.10876525973673e-17
aaF2.404825557695773
a(lp4
F2.404810861735133
aF2.404840253746269
aaI3
aa.