(lp0
(lp1
(lp2
F3.4129052332621025e-18
aF2.2164413722730893e-18
aF5.256416660090713e-18
aF-2.051184634865321e-33
aa(lp3
F0.05852382210517024
aF0.05085590959215825
aF-0.40254267177502423
aF-4.3331064642935194e-17
aaF3.957678419314858
a(lp4
F3.95764598838955
aF3.9577160426091624
aaI3
aa.