(lp0
(lp1
(lp2
F2.6833991736308142e-14
aF2.647970061363739e-15
aF3.1436978992997942e-15
aF-1.0835052724525898e-16
aF-4.0161374439836364e-32
aa(lp3
F-705.2813983902887
aF195.02897371403697
aF-49.15880694488895
aF17.57583029204344
aF-1.8545939446732417e-15
aaF-15.730988906332882
a(lp4
F-15.73121101946115
aF-15.730766516890364
aaI4
aa.