(lp0
(lp1
(lp2
F2.3968403017636727e-13
aF-1.1791725942231682e-16
aF2.2327365257272733e-15
aF1.9291183205232286e-19
aF3.019403312379173e-15
aF6.222606860354314e-29
aF-1.0634101381648683e-16
aF-3.6641967700277017e-32
aa(lp3
F-5887.886137943299
aF-4.3837504054886685
aF1041.1838384556052
aF0.18457132070822924
aF-87.67500811543339
aF1.8060364999342485e-12
aF2.2148558489277024
aF-1.5208098602776744e-14
aaF-237.50983566144114
a(lp4
F-237.51690426933945
aF-237.5027670539665
aaI7
aa.