(lp0
(lp1
(lp2
F2.4768744956272233e-13
aF9.509963515391707e-13
aF1.9241219621966315e-14
aF-1.309485544647502e-28
aa(lp3
F11583.785765336714
aF-29454.41179698776
aF21642.340805455537
aF9.756319734811011e-12
aaF-23.9999537971825
a(lp4
F-23.99999999999992
aF-23.99990758855387
aaI3
aa.