(lp0
(lp1
(lp2
F-2.599613332624613e-15
aF-2.391311754464642e-16
aF-1.507644162908361e-16
aF-9.164198777980749e-33
aa(lp3
F39.101266478099426
aF10.736877779457402
aF3.931008032372374
aF2.1313196269557732e-16
aaF0.8335565596009648
a(lp4
F0.8335526779119159
aF0.8335604413448147
aaI3
aa.