(lp0
(lp1
(lp2
F1.7691950980744983e-17
aF1.517887794630456e-16
aF-5.046173363100548e-34
aa(lp3
F-3.281607866398562
aF3.8962157339071672
aF-5.1196989365556847e-17
aaF0.3725074107813666
a(lp4
F0.37250545262955076
aF0.3725093689396449
aaI2
aa.