(lp0
(lp1
(lp2
F-9.25185853854297e-18
aF0.0
aF-3.1495383083783753e-12
aF8.370654867166265e-24
aF0.0
aF0.0
aF-6.5517385105328596e-12
aF0.0
aF0.0
aF9.25185853854297e-18
aa(lp3
F-0.16666666666666666
aF-261.64362012100173
aF-91334.58098023398
aF-1.583946662989041e-07
aF0.5
aF523.7872402420035
aF91596.55793368832
aF-0.5
aF-262.14362012100173
aF0.16666666666666666
aI3
aa(lp4
F91157.37383962428
aF91683.66107986629
aa(lp5
(lp6
F91084.61422183616
aF91230.13337411983
aa(lp7
F91610.90146231925
aF91756.42061460292
aaaa.