(lp0
(lp1
(lp2
F7.0424844811770005e-22
aF3.8911885914539675e-21
aF8.219248079703756e-20
aF-1.4674779438717585e-19
aF4.344749777132532e-19
aF1.3375590279873004e-17
aF-7.383633137069109e-17
aF-9.951230103706138e-33
aF2.3734909256273498e-21
aF-7.258662375371115e-21
aF-3.48551363352745e-21
aF1.5416058465657927e-19
aF-1.3838561745314452e-18
aF3.1462384015569483e-18
aF9.501974998202247e-17
aF-9.864134525068394e-23
aF-1.6882120044519101e-21
aF-3.372694014708553e-21
aF1.7038896411234932e-21
aF7.219394910315483e-20
aF7.672189754203024e-19
aF4.408111151202469e-23
aF-1.3339561600822507e-22
aF-4.744677537939103e-21
aF4.4199208608057494e-20
aF-1.8672606636401263e-19
aF9.858333622913026e-23
aF-1.0881118430263421e-21
aF-1.311811404627654e-21
aF1.622488635263752e-21
aF-1.7751856425448738e-22
aF3.107226653381794e-22
aF-1.1850145165356672e-23
aF5.761927964575929e-25
aF2.1662446424134502e-23
aF-4.7948764964949574e-24
aa(lp3
F-9.869289781528011e-05
aF0.0004227941939957559
aF-0.0018610799355048657
aF0.008461899042019366
aF-0.03983976591136753
aF0.19407548495736948
aF-1.9894497064427437
aF1.41822269336884e-16
aF6.809683014875638e-05
aF-0.00030268369248744964
aF0.0014320419855677084
aF-0.007320914385746563
aF0.040020780850787974
aF-0.224891584505448
aF1.2293238370767783
aF1.7410809311218507e-06
aF-1.7831151917831968e-05
aF8.771987649645069e-05
aF8.719425234112112e-05
aF-0.006386765524719446
aF0.07176257263542757
aF3.5048532367315327e-06
aF-3.90963154955222e-06
aF-8.25014844839991e-05
aF0.0007305949933831059
aF-0.0026970870525697306
aF-1.8308519576188626e-06
aF1.7551924896516496e-05
aF-6.818888907493805e-05
aF0.00010349328051899996
aF-2.381520930567447e-06
aF4.472330406450267e-06
aF-6.929665169601071e-07
aF-5.391214327436036e-08
aF-4.884274744884298e-07
aF6.712260673690878e-08
aI7
aa(lp4
F6.137493608338486
aF3.6656706182904895
aa(lp5
(lp6
F6.135448291336759
aF6.144330075533761
aa(lp7
F3.6649304696074063
aF3.666410766973573
aaaa(lp8
(lp9
F9.778712870987171e-23
aF-2.5948495477097858e-20
aF5.468945550169487e-20
aF-8.377008405653827e-19
aF7.746330721510764e-19
aF-8.327424749663344e-18
aF-7.126323982415166e-17
aF-2.2528572874595668e-33
aF-1.5049920425757728e-21
aF-7.220532594868169e-21
aF-2.1913170788420623e-21
aF-3.587063475676487e-19
aF2.105995171104394e-18
aF5.73948119176657e-19
aF7.436112128722703e-17
aF1.7749511499982888e-23
aF-4.508204975602588e-22
aF-2.694710613797482e-21
aF-6.380411622370352e-21
aF-2.7799240041850766e-19
aF4.363102531772307e-18
aF1.6488546553083835e-22
aF-2.0558633768529002e-22
aF-3.5090440182585664e-21
aF3.885468037517685e-21
aF-6.779455109284341e-20
aF-4.723184213167599e-23
aF1.4029137305359988e-21
aF-7.492932559066611e-22
aF-3.6415660601490695e-21
aF-1.130672694148632e-22
aF2.186366119460156e-22
aF2.923468806983777e-23
aF5.623644435874902e-25
aF4.7328376904227295e-23
aF-3.780891774497527e-24
aa(lp10
F-9.845272355314951e-05
aF0.00042193570855062395
aF-0.0018580529503765624
aF0.008451563269537051
aF-0.03980721915827508
aF0.19399446749879568
aF-1.9894138869696527
aF-1.0456959889064003e-16
aF6.793193633565724e-05
aF-0.0003020712741564713
aF0.0014297186029332942
aF-0.007312021915686255
aF0.03998870648450018
aF-0.22480373344350774
aF1.2293347518875624
aF1.7360001023066494e-06
aF-1.7793124847615953e-05
aF8.758632158608172e-05
aF8.699113626672686e-05
aF-0.006381260317024575
aF0.0717337466219743
aF3.4967525225366797e-06
aF-3.90642039567487e-06
aF-8.23508272709902e-05
aF0.0007296980619074182
aF-0.002695015038209598
aF-1.8254239537413828e-06
aF1.751531400749663e-05
aF-6.808345697422005e-05
aF0.0001033841160910424
aF-2.375975032116227e-06
aF4.464512821985775e-06
aF-6.933648049168656e-07
aF-5.3936539361547104e-08
aF-4.873830039167549e-07
aF6.696929246727062e-08
aI7
aa(lp11
F6.13988918343526
aF3.6671509156566566
aa(lp12
g6
a(lp13
F3.666410766973573
aF3.66789106433974
aaaa(lp14
(lp15
F4.411871057581546e-22
aF-2.6709202797480478e-20
aF7.434279711723113e-20
aF-3.3011557884600135e-19
aF-3.0004779849654685e-18
aF1.3384016990097019e-18
aF-3.643708047123276e-17
aF1.4942426863994775e-32
aF4.332003827328589e-21
aF2.2052384668445384e-20
aF-2.592255408563769e-20
aF-9.004720390408997e-20
aF-5.591719803246845e-19
aF-1.1767792820505912e-17
aF2.850836365915799e-17
aF-9.362298228451363e-24
aF1.4447986095457713e-21
aF5.30710776370148e-21
aF2.3222537959086824e-21
aF-4.0707599234438504e-19
aF-2.417273897512494e-18
aF-1.508396361004318e-22
aF-2.9266374024619773e-22
aF3.2675119741269623e-21
aF5.0822343811034266e-20
aF-2.0922154700676699e-19
aF-7.859515195143406e-23
aF1.6035583784477759e-21
aF5.4912299792535745e-21
aF3.628178020069819e-21
aF-6.693293098485157e-23
aF-2.2675208462141534e-22
aF3.290995604141337e-23
aF2.4282825472997157e-25
aF1.758777760747891e-24
aF1.8436214714234217e-24
aa(lp16
F-9.82132298571167e-05
aF0.0004210793094577258
aF-0.001855032096122716
aF0.008441244226391758
aF-0.039774711799944254
aF0.1939135151256398
aF-1.9893780824184255
aF5.206926261224025e-16
aF6.776750832506217e-05
aF-0.0003014603428328833
aF0.0014273999318503432
aF-0.007303143839413824
aF0.03995667059360426
aF-0.22471595010349535
aF1.2293456494066806
aF1.730936118256952e-06
aF-1.7755194135908296e-05
aF8.745301540375643e-05
aF8.678852503890288e-05
aF-0.0063757622914708155
aF0.07170494415520114
aF3.488673210050872e-06
aF-3.903204748933805e-06
aF-8.220051067263037e-05
aF0.0007288026027881965
aF-0.002692945422412848
aF-1.8200140513505833e-06
aF1.747879428580136e-05
aF-6.797822810602066e-05
aF0.00010327510305776582
aF-2.370444086369288e-06
aF4.456711308079733e-06
aF-6.937594715620119e-07
aF-5.396046770637279e-08
aF-4.863411667925486e-07
aF6.681638279585342e-08
aI7
aa(lp17
F6.142284694156886
aF3.668631213022824
aa(lp18
g6
a(lp19
F3.66789106433974
aF3.669371361705907
aaaa.