(lp0
(lp1
(lp2
F9.211823454186448e-14
aF-2.8797538060146446e-13
aF-9.73939502435627e-14
aF3.9773743183084465e-15
aF-1.0214344117290561e-14
aF1.7586784943839158e-17
aF1.298222025337225e-16
aF2.251636832499621e-33
aF3.606297794687357e-14
aF1.8557218267155843e-14
aF3.2047794998568116e-14
aF-1.3967254731721298e-15
aF1.6124460224082711e-16
aF1.5657679490505134e-18
aF-1.1802632846111202e-17
aF2.7509518052726932e-14
aF3.2117621344120296e-15
aF-5.778688490937191e-15
aF2.577098455728422e-17
aF-8.457703255391799e-17
aF1.8260428908447164e-19
aF-6.811937641328663e-15
aF1.091379511889213e-16
aF-2.861277340783446e-17
aF2.545030502933334e-19
aF-8.92385726028921e-19
aF8.278395778493549e-17
aF-1.211086968375695e-17
aF6.282745408456764e-18
aF1.6556868494863393e-20
aF-5.567179195595614e-18
aF-1.4928156036021426e-19
aF-4.751250435223484e-20
aF1.9695202423057766e-19
aF1.5689437029783041e-21
aF6.830053389235866e-22
aa(lp3
F2876.9782386619218
aF-7162.850575987871
aF1575.3765033619745
aF368.9680357108834
aF-147.5401133346707
aF-3.7435315398441853
aF3.0336463199339185
aF-2.660923595240805e-16
aF-3979.821344420775
aF-1363.1138462461136
aF601.3477763883895
aF26.233942125570184
aF-24.991325310322175
aF-0.022534636519391207
aF0.16551057695247978
aF-1008.7558481107638
aF-54.59132359345086
aF69.23355204537145
aF-0.28448491442830365
aF-1.3632074386863797
aF-0.0043431402305816
aF-97.42363469622269
aF2.070225128055079
aF3.7515087124548296
aF-0.020481308114667113
aF-0.02465019772486712
aF-5.168835522323196
aF0.16859883507196902
aF0.10240898732982263
aF0.0006451285296615579
aF-0.16739634809743437
aF0.001987198782782332
aF0.0010913167407485597
aF-0.003086561539500759
aF-2.8307140790367874e-05
aF-2.2813053889688434e-05
aI7
aa(lp4
F19.062075282028466
aF1.4841544843981747
aa(lp5
(lp6
F19.06141737208795
aF19.062733191968984
aa(lp7
F1.4821123771720717
aF1.484332823221322
aaaa(lp8
(lp9
F5.731486926912142e-14
aF-1.9490040415858052e-13
aF9.505448730467298e-14
aF-6.842986645799077e-15
aF-4.367574973019057e-15
aF1.398403516946611e-16
aF-1.6873408686213145e-16
aF-1.0064295229309576e-32
aF8.501847614365903e-14
aF-9.805588612230574e-14
aF1.970432621947253e-14
aF-1.0497037786937014e-15
aF1.1734791167313097e-15
aF1.6209500254082678e-18
aF-6.665711284806352e-18
aF3.5965406070667824e-14
aF-4.4281627280826697e-16
aF-5.087660489305756e-15
aF-8.3134869015559e-18
aF-1.532620057360698e-17
aF2.8027231604177173e-19
aF2.085231819873521e-15
aF-2.0696041526284472e-16
aF1.1858188817115362e-16
aF-1.6990675099445512e-18
aF-1.0075038468603278e-18
aF1.2895963912049942e-16
aF5.0838790278386485e-18
aF2.214136563702811e-18
aF-2.6200160262272766e-20
aF1.2790797799464145e-17
aF1.1192231872823995e-19
aF-2.648874716407665e-20
aF2.483156670875765e-20
aF1.9744841878753295e-22
aF-1.5196964426603262e-21
aa(lp10
F2879.262765271561
aF-7169.535883140693
aF1576.668640562812
aF369.19388807058886
aF-147.61155956773297
aF-3.744640517916962
aF3.034154175536033
aF1.5701069560837462e-16
aF-3983.50553107858
aF-1364.0545710001536
aF601.6934776001586
aF26.24346086110141
aF-24.99772440732602
aF-0.022533908300914385
aF0.1655007656325797
aF-1009.4273455602196
aF-54.61381576139292
aF69.25740335144413
aF-0.28458659175465495
aF-1.363247438703193
aF-0.004342582792127053
aF-97.46572704388126
aF2.0709959265072406
aF3.7519502365466226
aF-0.02048093424045984
aF-0.024645332535173887
aF-5.169894296810758
aF0.16861071198734534
aF0.10239785505409936
aF0.0006449566117028531
aF-0.16739289115424894
aF0.0019868650596610304
aF0.0010909506727171793
aF-0.0030857999786418734
aF-2.8295687742080227e-05
aF-2.280225237017009e-05
aI7
aa(lp11
F19.063391101909502
aF1.484082703642141
aa(lp12
(lp13
F19.062733191968984
aF19.06404901185002
aag7
aaa(lp14
(lp15
F1.2211470331755083e-13
aF4.524081404207992e-13
aF9.424702500518727e-14
aF9.64705619960145e-15
aF-1.5236474946558305e-15
aF-8.903674664508383e-19
aF1.326008133272145e-17
aF7.734678036585039e-33
aF1.6012206699586323e-13
aF-1.934360691557013e-14
aF-5.2598364892740604e-14
aF1.7592525637058848e-15
aF1.2598569754211899e-15
aF7.50889105237333e-19
aF9.065845720742833e-18
aF3.565823533029242e-14
aF-2.6179506909466e-15
aF1.7263086280626512e-15
aF2.3504391415811787e-17
aF3.0419359868390256e-17
aF1.6525965200247302e-19
aF-6.27564464527383e-15
aF-6.801514994785892e-17
aF4.1233328210304995e-17
aF9.338658519473627e-19
aF-1.6445252326168895e-18
aF-4.382384609538272e-16
aF-5.06826343861532e-18
aF-9.724138998105555e-19
aF2.5431167478267532e-20
aF-1.3177507531960086e-17
aF-4.26950497039473e-20
aF9.741361577438261e-21
aF2.0468379957269793e-19
aF4.456849556465941e-22
aF-7.46341470927984e-23
aa(lp16
F2881.5487353953554
aF-7176.226860272442
aF1577.961719897536
aF369.41985980079744
aF-147.68303410656958
aF-3.745749734231925
aF3.034662069463602
aF1.7906778531166104e-16
aF-3987.192775450515
aF-1364.995865030495
aF602.0393463499195
aF26.252982255217695
aF-25.004124540950386
aF-0.022533180049241645
aF0.165490955360662
aF-1010.0992281283345
aF-54.636315179047855
aF69.28126060496703
aF-0.2846882823245333
aF-1.3632874319072095
aF-0.004342025458181294
aF-97.50783354472877
aF2.0717668959844455
aF3.75239175823586
aF-0.02048056025663822
aF-0.02464046861021255
aF-5.170953169617145
aF0.1686225873151457
aF0.1023867243642872
aF0.0006447847506106316
aF-0.16738943346136584
aF0.0019865314053980994
aF0.0010905847513581856
aF-0.0030850386464066066
aF-2.8284240082621314e-05
aF-2.2791456681373083e-05
aI7
aa(lp17
F19.06470692179054
aF1.4840109391544773
aa(lp18
(lp19
F19.06404901185002
aF19.06536483173106
aag7
aaa(lp20
(lp21
F8.659190306902347e-15
aF1.464565596335397e-13
aF-6.768818612283304e-14
aF-2.433194039858058e-14
aF-7.164787318747864e-15
aF1.5744245782319937e-16
aF1.3038480407097722e-17
aF-1.6977232205553152e-32
aF-1.072105925773454e-13
aF-9.814840069274375e-14
aF1.7544340139303046e-14
aF2.266375407681398e-16
aF1.4647478918718924e-15
aF-1.2518377378950248e-18
aF-1.9823021852661923e-18
aF2.2207650566236234e-14
aF-1.1069011635663213e-15
aF3.4131972165410513e-15
aF-1.6676457686866552e-17
aF7.713407729678472e-17
aF-3.431584507382557e-19
aF-5.3644248737528405e-15
aF1.9091220711418968e-17
aF3.0028304507367416e-17
aF3.076797037285478e-19
aF1.6776113266162667e-18
aF1.2192052480572498e-16
aF1.5002140554590664e-18
aF5.455444565007183e-18
aF-6.886568370328437e-21
aF1.1208932206330366e-17
aF-1.6243125793407574e-19
aF-8.752651685450294e-20
aF1.8923763785088722e-19
aF2.6111084583757385e-22
aF-2.1496293567517258e-23
aa(lp22
F2883.836149586895
aF-7182.9235117134285
aF1579.2557419681123
aF369.6459509547904
aF-147.75453695992695
aF-3.746859188822131
aF3.0351700017160996
aF2.994116209075497e-16
aF-3990.883079785827
aF-1365.9377286341075
aF602.3853827038705
aF26.262506308455738
aF-25.010525711266514
aF-0.022532451764414103
aF0.16548114613658546
aF-1010.7714960007778
aF-54.65882184814821
aF69.30512380685997
aF-0.28478998613719203
aF-1.36332741829987
aF-0.004341468228719183
aF-97.5499542021746
aF2.072538036500297
aF3.752833277521583
aF-0.020480186163252725
aF-0.02463560594957728
aF-5.172012140739156
aF0.1686344610555744
aF0.10237559526015576
aF0.000644612946362496
aF-0.16738597501915264
aF0.001986197819977831
aF0.001090218976603329
aF-0.0030842775427151127
aF-2.8272797809103042e-05
aF-2.2780666819764945e-05
aI7
aa(lp23
F19.06602274167158
aF1.4839391909301907
aa(lp24
(lp25
F19.06536483173106
aF19.0666806516121
aag7
aaa(lp26
(lp27
F-1.5737506597824412e-13
aF-3.633957079037552e-13
aF-7.147068352250875e-15
aF-1.8359553019563386e-14
aF5.982441378622182e-15
aF-4.8482632408862155e-17
aF1.2514645213132846e-16
aF2.410987758158416e-32
aF1.1149123228185757e-13
aF5.1926693260058324e-14
aF-4.536593012241211e-14
aF2.9743736530213727e-16
aF1.5881040368918539e-15
aF-1.2209407384023664e-18
aF-3.3474339564047514e-18
aF9.59913966015527e-16
aF3.4979217243082995e-15
aF-7.337995955006298e-16
aF-4.287350565206423e-18
aF5.69609418182828e-17
aF8.247235645514465e-20
aF5.915423756027009e-16
aF-7.575502874771109e-17
aF-1.9249473832555453e-17
aF1.3115959186935073e-18
aF1.0495568295422627e-18
aF-1.8526033491593907e-16
aF-9.539281589187376e-18
aF4.546757140354266e-18
aF-3.1285021536252536e-20
aF1.3422199614987409e-17
aF-9.039651540204086e-20
aF-4.743339294982746e-20
aF3.873951958910731e-20
aF-4.803692059315765e-22
aF-8.413036770629021e-22
aa(lp28
F2886.1250083994314
aF-7189.625841796814
aF1580.5507073768345
aF369.87216158586125
aF-147.82606813655298
aF-3.7479688817204266
aF3.035677972292994
aF-3.0857665368988e-16
aF-3994.5764463352048
aF-1366.8801621080668
aF602.7315867282284
aF26.272033021351092
aF-25.01692791834558
aF-0.022531723446451025
aF0.16547133796020902
aF-1011.4441493632858
aF-54.68133577042424
aF69.32899295804249
aF-0.284891703191974
aF-1.3633673978826142
aF-0.004340911103715
aF-97.59208901962805
aF2.073309348068556
aF3.753274794402823
aF-0.020479811960357103
aF-0.02463074455286246
aF-5.173071210173562
aF0.16864633320884234
aF0.10236446774147473
aF0.0006444411989360168
aF-0.1673825158279762
aF0.0019858643033846737
aF0.0010898533483844005
aF-0.003083516667487582
aF-2.8261360918637898e-05
aF-2.2769882781815735e-05
aI7
aa(lp29
F19.067338561552617
aF1.4838674589642902
aa(lp30
(lp31
F19.0666806516121
aF19.067996471493135
aag7
aaa(lp32
(lp33
F-1.2845598526635314e-13
aF-3.634419361017164e-13
aF2.5005255736153313e-14
aF-8.207027808450566e-15
aF4.493166685980025e-15
aF9.718757104915211e-17
aF6.872299267755572e-17
aF4.1477586808669346e-33
aF-1.7189361641466623e-13
aF9.365325397211626e-14
aF-1.2807075458416763e-14
aF1.4433942000944289e-16
aF-1.3186418029231595e-15
aF-4.432808140980086e-19
aF-7.885755607306183e-18
aF3.456898348858888e-14
aF-5.464337038795737e-16
aF-5.037303013086458e-15
aF5.423728174366112e-19
aF4.2238215571132514e-17
aF4.068441386121519e-19
aF5.508450542262675e-15
aF3.3992865401149514e-17
aF-6.001704073001981e-17
aF-9.686802135981885e-20
aF1.346183772088637e-18
aF-4.1436934317005385e-17
aF-1.4056097857951256e-19
aF3.00431096382413e-18
aF6.2768122686249994e-21
aF1.0942868048935725e-17
aF5.5878244546440454e-21
aF3.534723144660118e-20
aF-1.0365031114173673e-19
aF1.6463944649776428e-21
aF1.4875016148501068e-21
aa(lp34
F2888.4153123863134
aF-7196.333854858798
aF1581.846616726316
aF370.0984917473329
aF-147.89762764519745
aF-3.7490788129600254
aF3.0361859811937557
aF-1.0860477023611489e-16
aF-3998.272877350745
aF-1367.8231657496121
aF603.07795848923
aF26.281562394441423
aF-25.0233311622588
aF-0.02253099509541059
aF0.16546153083139148
aF-1012.1171884016691
aF-54.7038569476108
aF69.35286805943443
aF-0.2849934334880617
aF-1.3634073706568823
aF-0.0043403540831440865
aF-97.63423800049938
aF2.074080830702689
aF3.7537163088786243
aF-0.020479437647999227
aF-0.02462588441966258
aF-5.174130377917171
aF0.16865820377514854
aF0.10235334180801386
aF0.0006442695083088518
aF-0.1673790558882041
aF0.0019855308556028122
aF0.0010894878666332234
aF-0.003082756020644238
aF-2.824992940834232e-05
aF-2.275910456399776e-05
aI7
aa(lp35
F19.068654381433653
aF1.4837957432517868
aa(lp36
(lp37
F19.067996471493135
aF19.06931229137417
aag7
aaa(lp38
(lp39
F1.9295644077553168e-13
aF-3.7923334249335377e-13
aF-6.217610452709036e-14
aF1.1528456908136368e-14
aF7.332806715879345e-18
aF1.9484292230920257e-16
aF6.939885963495725e-17
aF-1.290406661713112e-33
aF3.1399105934889574e-14
aF-2.2040969338079268e-14
aF-1.791689605044356e-14
aF-1.7421318968402607e-15
aF-3.0444639049258586e-16
aF-5.135400575151989e-19
aF2.4823415911831968e-18
aF-6.326208678975546e-15
aF2.7602085706660094e-15
aF-3.5975662983527256e-15
aF-1.9504725636031994e-17
aF-6.843310513085424e-18
aF-3.4337429066022725e-19
aF3.700389719256967e-15
aF-1.8780949602116578e-16
aF3.139790391210727e-17
aF-1.0532253633571453e-18
aF-9.823751747242888e-19
aF8.920815051120513e-18
aF-5.916056326545354e-18
aF-1.0238781754807078e-18
aF-2.1395667769995152e-20
aF5.524546998851105e-18
aF1.8677854032441045e-19
aF-4.9163440908643236e-20
aF-9.973785056386885e-20
aF8.84226777430507e-22
aF-1.0380580852197662e-21
aa(lp40
F2890.7070621004764
aF-7203.04755523851
aF1583.1434706195273
aF370.32494149254046
aF-147.9692154946129
aF-3.7501889825737944
aF3.036694028417859
aF9.685757833706148e-17
aF-4001.9723750860703
aF-1368.7667398560907
aF603.4244980531362
aF26.291094428262557
aF-25.02973544307742
aF-0.022530266711312422
aF0.1654517247499917
aF-1012.7906133018167
aF-54.726385381439044
aF69.3767491119557
aF-0.2850951770247976
aF-1.3634473366241138
aF-0.00433979716698074
aF-97.67640114819935
aF2.07485248441646
aF3.754157820948025
aF-0.02047906322623274
aF-0.02462102554957228
aF-5.175189643966768
aF0.16867007275470391
aF0.10234221745954274
aF0.0006440978744585911
aF-0.16737559520020295
aF0.001985197476616695
aF0.0010891225312816574
aF-0.003081995602105326
aF-2.8238503275332158e-05
aF-2.2748332162785693e-05
aI7
aa(lp41
F19.06997020131469
aF1.4837240437876928
aa(lp42
(lp43
F19.06931229137417
aF19.070628111255207
aag7
aaa(lp44
(lp45
F-3.5823872187978905e-14
aF3.576370014848942e-13
aF-4.179796653474487e-14
aF-1.748140199625045e-14
aF1.226264190465799e-14
aF-1.5294718317144834e-17
aF2.9277756336167056e-17
aF-1.8955549076990343e-32
aF-6.268914353719104e-14
aF-9.920868515959829e-14
aF-4.5872162362447766e-14
aF1.4012249660058967e-16
aF-7.987341854090735e-16
aF-1.1038128687510737e-18
aF5.0438180830223746e-18
aF4.912767267685455e-14
aF4.717117202214596e-16
aF-7.775470807535482e-16
aF-1.2357554319901647e-17
aF-4.414864320766986e-17
aF3.806154240490993e-19
aF-4.126231602751354e-15
aF6.968546008661307e-17
aF2.0947458354971947e-17
aF-7.650398166810165e-19
aF-1.692345416520566e-18
aF3.532612720277917e-16
aF2.374842038233421e-18
aF-5.4334480608869305e-18
aF-4.1254465296951435e-20
aF9.699465057045463e-18
aF-3.0209689337123815e-20
aF-1.022042238202799e-19
aF-1.9242495439239872e-19
aF1.3983134908790847e-21
aF1.1994779609576213e-21
aa(lp46
F2893.000258094702
aF-7209.766947278028
aF1584.4412696597678
aF370.5515108748391
aF-148.0408316935538
aF-3.7512993905946304
aF3.0372021139647774
aF-3.0695452952317925e-16
aF-4005.6749417962415
aF-1369.710884724982
aF603.7712054862276
aF26.300629123350536
aF-25.036140760872676
aF-0.02252953829417922
aF0.1654419197158686
aF-1013.4644242496902
aF-54.748921073640695
aF69.4006361165263
aF-0.2851969338015113
aF-1.3634872957857476
aF-0.004339240355199356
aF-97.71857846613919
aF2.075624309223608
aF3.7545993306100636
aF-0.0204786886951108
aF-0.024616167942186372
aF-5.176249008319142
aF0.1686819401477184
aF0.10233109469583095
aF0.0006439262973628413
aF-0.16737213376433935
aF0.0019848641664107535
aF0.0010887573422615983
aF-0.0030812354117911223
aF-2.8227082516725196e-05
aF-2.2737565574656596e-05
aI7
aa(lp47
F19.071286021195725
aF1.4836523605670229
aa(lp48
(lp49
F19.070628111255207
aF19.071943931136243
aag7
aaa(lp50
(lp51
F7.80642226821621e-15
aF2.0728503114006412e-13
aF8.378790407950875e-14
aF2.005625046456621e-14
aF6.793301713958597e-15
aF-1.6654681884711332e-17
aF-1.5076848729385993e-16
aF-7.013430762605805e-34
aF-2.247800632699961e-13
aF-1.0879483330069819e-13
aF4.520984922128762e-14
aF-6.300200728159065e-17
aF7.287080206056148e-17
aF1.32880623678363e-18
aF4.534694014931471e-18
aF-9.45985832566157e-15
aF-8.367024041369323e-16
aF-1.0508237059405846e-15
aF-1.7617418830723418e-17
aF-9.631240441681902e-17
aF2.955081040167312e-19
aF-2.5348835388196787e-15
aF8.521502235744533e-17
aF-8.026058044116614e-17
aF-5.687521583909451e-19
aF1.1306172136707737e-18
aF-3.465519858210153e-16
aF-8.542552879187907e-19
aF-1.1278417476019242e-18
aF5.0053645324514083e-20
aF1.2306572428008491e-17
aF1.2422026827060844e-19
aF5.129305794909377e-20
aF-1.8290237578299597e-19
aF1.193520372050228e-22
aF6.926141684989046e-22
aa(lp52
F2895.2949009218146
aF-7216.492035322369
aF1585.740014450637
aF370.7781999476091
aF-148.11247625077536
aF-3.752410037055757
aF3.0377102378339793
aF2.793436394461311e-16
aF-4009.380579737678
aF-1370.6556006539138
aF604.1180808548002
aF26.310166480243243
aF-25.04254711571575
aF-0.02252880984407018
aF0.16543211572888109
aF-1014.1386214313145
aF-54.77146402595149
aF69.4245290740661
aF-0.28529870381738076
aF-1.3635272481432228
aF-0.004338683647775326
aF-97.7607699577305
aF2.0763963051375858
aF3.7550408378637843
aF-0.020478314054681073
aF-0.024611311597099825
aF-5.177308470971093
aF0.16869380595439062
aF0.10231997351664834
aF0.0006437547769992939
aF-0.16736867158098048
aF0.0019845309249691767
aF0.001088392299504979
aF-0.00308047544962195
aF-2.8215667129643188e-05
aF-2.2726804796089924e-05
aI7
aa(lp53
F19.07260184107676
aF1.483580693584794
aa(lp54
(lp55
F19.071943931136243
aF19.073259751017282
aag7
aaa(lp56
(lp57
F-3.2814247261962557e-14
aF-8.396560787337802e-14
aF-9.273991613013157e-14
aF2.8336952062469212e-14
aF2.786274923580229e-15
aF-1.5791254812462083e-16
aF-6.437139807371734e-17
aF4.301082776851295e-33
aF-1.3376144715727514e-13
aF5.131870449806341e-14
aF-5.217353216416393e-14
aF6.021503608089342e-16
aF1.261702841228358e-15
aF-7.328745795360319e-19
aF-6.2570096425625205e-18
aF-5.179731221721012e-14
aF2.5626736840550322e-15
aF-4.384760792072544e-15
aF2.310533245014123e-17
aF-9.929645208818396e-17
aF-4.212872204926629e-19
aF-2.05964972299969e-15
aF2.90201805520642e-17
aF-1.6215474511878013e-16
aF-4.856911211856296e-19
aF1.4943904268022101e-18
aF1.5322490103891493e-16
aF5.384014943154359e-18
aF1.9410319767759813e-18
aF2.575400276539652e-20
aF-7.181414301197605e-19
aF-1.780967969865109e-19
aF-7.896139963157627e-20
aF-6.33125206383943e-20
aF9.057901584768587e-22
aF-9.294345816236163e-22
aa(lp58
F2897.5909911341487
aF-7223.222823719563
aF1587.0397055961216
aF371.005008764243
aF-148.18414917503688
aF-3.753520921989915
aF3.038218400024944
aF1.0309983582627513e-16
aF-4013.0892911684086
aF-1371.6008879406236
aF604.46512422518
aF26.319706499476013
aF-25.048954507677937
aF-0.022528081360989195
aF0.16542231278888803
aF-1014.8132050328051
aF-54.79401424010198
aF69.44842798549541
aF-0.2854004870718145
aF-1.3635671936979779
aF-0.004338127044682542
aF-97.80297562638584
aF2.077168472172281
aF3.755482342708227
aF-0.020477939304999488
aF-0.02460645651390771
aF-5.178368031919412
aF0.1687056701749364
aF0.10230885392176438
aF0.0006435833133455367
aF-0.1673652086504922
aF0.0019841977522765267
aF0.0010880274029437655
aF-0.003079715715518137
aF-2.8204257111206166e-05
aF-2.2716049823567378e-05
aI7
aa(lp59
F19.073917660957804
aF1.4835090428360236
aa(lp60
(lp61
F19.073259751017282
aF19.074575570898322
aag7
aaa(lp62
(lp63
F7.731078068239606e-14
aF4.5181323839699843e-13
aF7.996661030845258e-14
aF1.543066539525876e-14
aF-9.387246256368194e-15
aF-5.960103184951837e-17
aF4.104504207633616e-17
aF6.590249287733878e-33
aF6.378549414257011e-14
aF-9.566933579262455e-15
aF-4.574830867979931e-14
aF-7.452201406034425e-16
aF-3.784031922926928e-16
aF2.4995280473171153e-19
aF9.031616787534438e-18
aF4.30352435934443e-14
aF2.112323288086526e-15
aF4.487094939816041e-15
aF1.1334982373598046e-18
aF4.201729268061895e-17
aF-3.3405413065006883e-19
aF3.2769203886855344e-15
aF-1.1156946751835108e-16
aF-1.6848209275127463e-16
aF-4.189218163950671e-19
aF-7.819771089736259e-19
aF3.165836501137061e-16
aF-1.2443744457748655e-17
aF3.571885737405808e-18
aF2.79454335683384e-20
aF-7.368296650666121e-18
aF1.8952381447801642e-19
aF1.0917192741870047e-21
aF-2.031487038558307e-19
aF-1.1332328635480073e-21
aF-1.2352977482918238e-21
aa(lp64
F2899.888529284096
aF-7229.959316820472
aF1588.3403437004788
aF371.23193737815615
aF-148.25585047509708
aF-3.7546320454302315
aF3.038726600537136
aF1.5267251994751387e-16
aF-4016.801078347738
aF-1372.5467468829856
aF604.8123356637013
aF26.32924918158628
aF-25.055362936830363
aF-0.022527352844985374
aF0.16541251089574843
aF-1015.4881752403282
aF-54.816571717827216
aF69.47233285173401
aF-0.2855022835640313
aF-1.3636071324514507
aF-0.004337570545896147
aF-97.8451954755174
aF2.077940810341216
aF3.7559238451424304
aF-0.020477564446115187
aF-0.024601602692205356
aF-5.1794276911608845
aF0.16871753280955737
aF0.10229773591094898
aF0.0006434119063792628
aF-0.1673617449732413
aF0.00198386464831707
aF0.0010876626525099659
aF-0.0030789562094000727
aF-2.8192852458538844e-05
aF-2.2705300653573252e-05
aI7
aa(lp65
F19.07523348083884
aF1.4834374083157333
aa(lp66
(lp67
F19.074575570898322
aF19.075891390779358
aag7
aaa(lp68
(lp69
F-8.631614058560027e-14
aF1.9945280103216873e-13
aF-9.268110741811886e-14
aF2.5873902408111004e-14
aF2.938071818264921e-15
aF7.746266680743593e-17
aF-1.7279065233441265e-17
aF1.8195001098828802e-32
aF6.349466491760739e-14
aF-9.77140262175358e-14
aF-1.0936909845700626e-14
aF-1.4507339489109482e-15
aF1.632706034316873e-15
aF1.3270847963100478e-18
aF1.1979197514900535e-17
aF-6.827870779253604e-16
aF2.234945281613988e-15
aF-2.510271966588254e-15
aF8.758234491332689e-18
aF-1.1806508322524057e-17
aF-2.5015225246188912e-19
aF1.0591167637206064e-15
aF-1.7438922867852326e-17
aF-1.6809121882731893e-16
aF-1.1977553585641812e-18
aF-3.0445445532036433e-19
aF-1.5658944205483455e-17
aF1.2194505747399857e-17
aF-4.27930939534489e-18
aF3.0668185748243377e-20
aF-3.8882182468572324e-19
aF2.4429339972926068e-20
aF5.398965865179117e-20
aF4.971741421024011e-20
aF5.908964879977757e-22
aF1.9600214970113312e-22
aa(lp70
F2902.1875159237466
aF-7236.701518979032
aF1589.6419293683443
aF371.45898584278285
aF-148.32758015971865
aF-3.7557434074096085
aF3.039234839370033
aF-2.5435450339043943e-16
aF-4020.5159435365517
aF-1373.493177779008
aF605.1597152367283
aF26.338794527110377
aF-25.061772403244305
aF-0.022526624296080232
aF0.16540271004932125
aF-1016.1635322401406
aF-54.839136460860125
aF69.49624367370227
aF-0.28560409329336656
aF-1.3636470644050789
aF-0.004337014151390527
aF-97.88742950853866
aF2.0787133196581378
aF3.756365345165438
aF-0.020477189478081415
aF-0.024596750131588158
aF-5.180487448692307
aF0.1687293938584638
aF0.10228661948397175
aF0.0006432405560781164
aF-0.16735828054959376
aF0.001983531613075257
aF0.0010872980481356183
aF-0.003078196931188155
aF-2.81814531687658e-05
aF-2.269455728259399e-05
aI7
aa(lp71
F19.076549300719876
aF1.483365790018945
aa(lp72
(lp73
F19.075891390779358
aF19.077207210660394
aag7
aaa(lp74
(lp75
F4.480217624140352e-14
aF2.4604675591051636e-13
aF9.53641901232996e-14
aF2.8247073897022573e-14
aF-3.678846162608826e-15
aF-1.4104700672108058e-16
aF-1.8561287336490115e-16
aF-3.889764254568674e-33
aF8.329704296373102e-14
aF-8.145047307550896e-14
aF2.5485613445485447e-14
aF-7.513060569726966e-16
aF1.3752004669491726e-15
aF-7.5104550182057e-19
aF-7.314241408115058e-18
aF-1.8926919275076016e-14
aF-3.3429069847110673e-16
aF-5.353407866675677e-15
aF2.5700279958897748e-17
aF7.809382856342723e-17
aF2.4322409747941694e-19
aF-2.989841188734318e-15
aF-1.0377462187229183e-16
aF1.8325498261792816e-16
aF6.756264667439822e-19
aF6.903224982396041e-19
aF-2.378608350660156e-16
aF-9.131435983042054e-19
aF-3.015136707764222e-18
aF2.9669152207553176e-20
aF-5.939098531706543e-18
aF9.811765534175553e-20
aF8.222077595585267e-20
aF-6.985629836979156e-20
aF-3.586427805031938e-22
aF2.4648563574516703e-22
aa(lp76
F2904.4879516051715
aF-7243.449434552094
aF1590.9444632046532
aF371.68615421158023
aF-148.39933823766495
aF-3.756855007961197
aF3.039743116523105
aF-7.504870655492425e-17
aF-4024.2338889970965
aF-1374.4401809268381
aF605.5072630106397
aF26.348342536586024
aF-25.06818290699095
aF-0.02252589571432373
aF0.16539291024946545
aF-1016.8392762185616
aF-54.861708470936684
aF69.52016045232033
aF-0.28570591625903674
aF-1.3636869895603003
aF-0.004336457861140857
aF-97.92967772886327
aF2.0794860001365687
aF3.756806842776295
aF-0.02047681440094714
aF-0.024591898831651696
aF-5.18154730451048
aF0.16874125332185724
aF0.10227550464060249
aF0.000643069262419811
aF-0.16735481537991603
aF0.001983198646535352
aF0.0010869335897527998
aF-0.0030774378808028266
aF-2.8170059239015138e-05
aF-2.2683819707118483e-05
aI7
aa(lp77
F19.07786512060091
aF1.4832941879406831
aa(lp78
(lp79
F19.077207210660394
aF19.078523030541433
aag7
aaa(lp80
(lp81
F1.0573601580515462e-14
aF1.6144258628447785e-13
aF6.365879081159627e-14
aF-7.237654025769425e-15
aF-4.284068118760835e-15
aF9.658287745909634e-17
aF4.1079193272524074e-17
aF1.0816332448980262e-32
aF8.209186271782302e-16
aF7.621190698996486e-14
aF-3.2665400255775163e-14
aF-1.321007471541853e-15
aF1.1668390802887574e-15
aF-1.7264890922937894e-19
aF5.728262908740607e-19
aF1.4392210271036472e-14
aF2.84414300515445e-15
aF-5.942720519072835e-15
aF1.2235288999332117e-17
aF-8.842170170098255e-17
aF4.3274503718076475e-19
aF2.8738345117850447e-15
aF1.4211805576246782e-16
aF-1.3368604632276388e-17
aF-1.4152218684985927e-18
aF6.804446743362023e-19
aF-3.725296424789155e-16
aF-1.0391702586869838e-17
aF3.3286459193028983e-18
aF-1.3266964108030512e-20
aF8.932421690114309e-19
aF-1.9645842243629447e-19
aF-3.0962265653514126e-20
aF3.532618180977806e-20
aF-1.0893329761950253e-21
aF-7.121429887241928e-22
aa(lp82
F2906.7898368800847
aF-7250.2030678995025
aF1592.2479458147047
aF371.9134425380206
aF-148.47112471770248
aF-3.7579668471178747
aF3.040251431995828
aF-1.7348862723436547e-16
aF-4027.954916993161
aF-1375.3877566247422
aF605.85497905184
aF26.35789321054953
aF-25.074594448141553
aF-0.02252516709973437
aF0.16538311149603996
aF-1017.515407361993
aF-54.88428774979005
aF69.54408318850861
aF-0.2858077524603895
aF-1.3637269079185517
aF-0.004335901675121458
aF-97.97194013990566
aF2.0802588517902763
aF3.757248337974045
aF-0.020476439214766013
aF-0.02458704879199168
aF-5.182607258612197
aF0.16875311119994887
aF0.10226439138061083
aF0.0006428980253820058
aF-0.1673513494645738
aF0.0019828657486818326
aF0.001086569277293621
aF-0.0030766790581645497
aF-2.8158670666414728e-05
aF-2.2673087923637915e-05
aI7
aa(lp83
F19.07918094048195
aF1.4832226020759736
aa(lp84
(lp85
F19.078523030541433
aF19.07983885042247
aag7
aaa(lp86
(lp87
F1.1831348108912737e-13
aF-2.306101879212621e-13
aF1.0646469044794392e-13
aF1.5972696605872146e-14
aF1.0905660864281564e-14
aF-1.8865117976442762e-16
aF5.286980096196334e-17
aF-9.343676117551778e-33
aF-2.0502730992600092e-14
aF-3.1863701826018146e-14
aF-1.9285935181232818e-14
aF-1.273345641901228e-15
aF-1.7503474856276834e-15
aF-5.635327045320811e-19
aF2.495177139754715e-18
aF-4.647595085479568e-15
aF-1.4513651722076567e-15
aF-1.3969546995138545e-15
aF-3.3129262719620793e-19
aF-1.2882637446168707e-17
aF-4.225688328310538e-19
aF6.767069209081159e-15
aF-6.110319652254385e-17
aF1.0357638458652073e-16
aF3.5586355609872693e-19
aF1.039157088814215e-18
aF2.770319757233498e-16
aF8.383242038931686e-18
aF-3.516528792300042e-18
aF-2.3323361580580785e-20
aF8.973924500704897e-18
aF-2.1289289492625281e-19
aF1.2726647134069651e-20
aF-2.92016047375876e-20
aF1.6383755968754653e-21
aF1.0168437551016398e-21
aa(lp88
F2909.0931723001813
aF-7256.962423384015
aF1593.5523778040983
aF372.140850875599
aF-148.54293960859846
aF-3.7590789249127683
aF3.0407597857876723
aF3.186380484788446e-16
aF-4031.679029789896
aF-1376.3359051711257
aF606.2028634267481
aF26.3674465495386
aF-25.081007026767296
aF-0.022524438452359206
aF0.16537331378890383
aF-1018.1919258568987
aF-54.90687429915642
aF69.56801188318734
aF-0.28590960189665315
aF-1.3637668194812702
aF-0.004335345593307442
aF-98.01421674508036
aF2.081031874632801
aF3.7576898307577316
aF-0.020476063919587402
aF-0.024582200012204014
aF-5.183667310994258
aF0.16876496749294098
aF0.10225327970376666
aF0.0006427268449424289
aF-0.16734788280393323
aF0.0019825329194989895
aF0.001086205110690231
aF-0.0030759204631938307
aF-2.8147287448095986e-05
aF-2.2662361928645922e-05
aI7
aa(lp89
F19.08049676036299
aF1.483151032419845
aa(lp90
(lp91
F19.07983885042247
aF19.08115467030351
aag7
aaa(lp92
(lp93
F-1.182936471425613e-14
aF3.177450534747444e-14
aF8.407503330510364e-14
aF-1.0059165681174179e-14
aF-9.862579664656157e-16
aF-9.79310159370544e-17
aF2.0395611666817043e-16
aF8.566222536491543e-33
aF-2.2016084619477925e-13
aF8.842750205653147e-14
aF-1.3739395098140814e-14
aF-2.6631497242057e-16
aF2.4846754099220407e-16
aF2.268987204904715e-19
aF-1.262188001550624e-19
aF3.095275445023815e-14
aF2.4753901947517014e-15
aF-4.840091613943196e-15
aF-1.8247268424180943e-17
aF5.938259685003761e-17
aF2.253905310434039e-19
aF-1.5170055882788966e-15
aF-2.1347419058071316e-16
aF-1.7644131544602173e-17
aF7.4582800812618e-20
aF-1.7058986078858183e-18
aF2.3507325564844415e-16
aF1.2982441507006211e-17
aF-1.8796260507237123e-18
aF3.40362466816209e-20
aF8.30556747438169e-18
aF3.5176880979693344e-20
aF8.563543385719605e-20
aF1.3553767066648594e-19
aF-3.048954784927672e-22
aF-4.642218398074658e-22
aa(lp94
F2911.397958416733
aF-7263.727505371374
aF1594.8577597788021
aF372.3683792778238
aF-148.61478291912323
aF-3.7601912413786436
aF3.041268177898113
aF-2.1982667831752093e-16
aF-4035.40622965401
aF-1377.2846268645062
aF606.550916201809
aF26.37700255408902
aF-25.087420642939424
aF-0.022523709772204224
aF0.1653635171279161
aF-1018.8688318898261
aF-54.92946812076816
aF69.591946537277
aF-0.2860114645672271
aF-1.3638067242498917
aF-0.0043347896156728126
aF-98.05650754780264
aF2.081805068678003
aF3.758131321126396
aF-0.020475688515466793
aF-0.02457735249188473
aF-5.184727461653443
aF0.16877682220104864
aF0.10224216960983956
aF0.0006425557210787352
aF-0.16734441539835943
aF0.0019822001589713915
aF0.0010858410898748143
aF-0.003075162095811193
aF-2.813590958118952e-05
aF-2.265164171863843e-05
aI7
aa(lp95
F19.081812580244026
aF1.483079478967327
aa(lp96
(lp97
F19.08115467030351
aF19.082470490184544
aag7
aaa(lp98
(lp99
F-1.1534269456963903e-13
aF-3.1659288544850385e-13
aF9.573198871299626e-14
aF-8.719004912190114e-15
aF6.856697751336896e-15
aF1.990274512613357e-16
aF1.7644424770609505e-16
aF3.180843291299628e-34
aF1.3271469132166268e-13
aF-5.282253209289971e-14
aF8.331091847232878e-15
aF-1.0889639701782858e-15
aF-1.563319829210701e-15
aF-1.5643584158866738e-18
aF-1.2414914339603385e-17
aF-4.739622491594559e-14
aF1.4700775261368252e-15
aF-1.4274140544746268e-15
aF-2.1985637853518312e-17
aF3.405014588410343e-17
aF2.8517567236404243e-19
aF-5.980455424579847e-15
aF-9.445188005957225e-17
aF1.7164407657601584e-16
aF-8.259929283663139e-19
aF-1.6375303051358399e-18
aF5.491160899686779e-17
aF-7.500382503755063e-18
aF-9.437819753548233e-19
aF-9.645886108389141e-21
aF-3.536551599680253e-18
aF9.454804722212398e-20
aF-2.0393541968958032e-20
aF-1.385808707386469e-19
aF1.4739109393774463e-22
aF1.302535686292069e-21
aa(lp100
F2913.704195781184
aF-7270.498318230299
aF1596.164092345075
aF372.5960277982328
aF-148.6866546580479
aF-3.761303796548774
aF3.0417766083266216
aF3.944142373278706e-18
aF-4039.136518853546
aF-1378.2339220035642
aF606.8991374434821
aF26.386561224739438
aF-25.093835296729118
aF-0.022522981059331697
aF0.16535372151293581
aF-1019.5461256473851
aF-54.95206921636374
aF69.61588715169798
aF-0.28611334047127696
aF-1.3638466222258525
aF-0.0043342337421931046
aF-98.09881255148822
aF2.0825784339393048
aF3.7585728090790873
aF-0.02047531300245122
aF-0.024572506230630026
aF-5.185787710586565
aF0.1687886753244695
aF0.10223106109859949
aF0.0006423846537687037
aF-0.1673409472482186
aF0.0019818674670832336
aF0.0010854772147795909
aF-0.003074403955937207
aF-2.8124537062831067e-05
aF-2.2640927290113744e-05
aI7
aa(lp101
F19.083128400125062
aF1.483007941713452
aa(lp102
(lp103
F19.082470490184544
aF19.08378631006558
aag7
aaa(lp104
(lp105
F-8.957638582700725e-14
aF2.196268201010857e-13
aF-1.4301254630989868e-14
aF-2.557460113959912e-14
aF-7.719223738070205e-15
aF-2.1019803343936285e-17
aF-2.0091921754891057e-16
aF1.6117880935005476e-32
aF-8.628226825300991e-14
aF2.3098599345211234e-14
aF-6.3362686873668645e-15
aF1.0713890843563359e-15
aF1.3760843893846806e-16
aF-1.7305605891905972e-18
aF-1.89699029310937e-18
aF3.1436313363418403e-14
aF-5.712612147267168e-16
aF-4.669893229169337e-16
aF-1.717695267360646e-17
aF-4.3411773740447024e-17
aF-2.5110398817971313e-19
aF6.3822746281969135e-15
aF-4.229730176135026e-17
aF8.01474057166145e-17
aF4.938227376707504e-19
aF2.050869991675352e-19
aF1.2466887506036824e-16
aF-1.1074665772715149e-17
aF-4.592863521965673e-18
aF2.1924428800571556e-20
aF5.7724002853888615e-18
aF1.281978064690048e-19
aF5.716566930058409e-20
aF8.635410752943777e-21
aF-1.9607379388711347e-22
aF1.667623492650912e-22
aa(lp106
F2916.011884944488
aF-7277.274866332486
aF1597.4713761095497
aF372.8237964903749
aF-148.75855483414676
aF-3.762416590455981
aF3.042285077072674
aF-2.8987719525605636e-16
aF-4042.8698996581193
aF-1379.1837908870853
aF607.2475272182536
aF26.39612256202608
aF-25.100250988207634
aF-0.022522252313753207
aF0.16534392694382197
aF-1020.2238073162698
aF-54.974677587676716
aF69.63983372737091
aF-0.28621522960817913
aF-1.3638865134105882
aF-0.0043336779728424864
aF-98.14113175955349
aF2.0833519704305234
aF3.75901429461485
aF-0.0204749373805953
aF-0.024567661228036233
aF-5.186848057790414
aF0.16880052686341684
aF0.10221995416981608
aF0.0006422136429900206
aF-0.16733747835387577
aF0.0019815348438190525
aF0.0010851134853368152
aF-0.0030736460434924585
aF-2.8113169890155e-05
aF-2.263021863957247e-05
aI7
aa(lp107
F19.084444220006098
aF1.4829364206532538
aa(lp108
(lp109
F19.08378631006558
aF19.08510212994662
aag7
aaa(lp110
(lp111
F1.2351994697221948e-13
aF6.260976801912915e-14
aF7.396042504253647e-14
aF-1.7889315659030875e-14
aF-2.6870655246763206e-15
aF-1.7818312395905943e-17
aF-2.2140212065039767e-16
aF5.895735667222855e-33
aF-2.6460678989662368e-14
aF-6.892848378185504e-14
aF-2.2497112300883185e-14
aF-1.7748142050949968e-15
aF3.936188883203493e-16
aF-1.348554629932576e-18
aF1.1843857986021535e-17
aF5.431177739272669e-14
aF-2.5638825724806056e-15
aF2.7441261011053236e-16
aF1.9326266047519178e-17
aF5.4323220853012935e-17
aF-3.675170795817808e-20
aF-6.6099840348112085e-15
aF-4.237206529440841e-17
aF1.1970065613653474e-16
aF-1.6343824009236847e-18
aF5.260660558248311e-19
aF-4.277083516728713e-16
aF-1.0590540067677209e-17
aF-2.5789818211349046e-18
aF3.3602568337370706e-20
aF4.498738653329582e-18
aF1.2729988173599422e-19
aF-9.999831709420394e-20
aF1.0008269839180787e-19
aF-5.487953267630712e-22
aF4.683247046460074e-22
aa(lp112
F2918.3210264576383
aF-7284.05715405262
aF1598.7796116791692
aF373.0516854078251
aF-148.83048345619554
aF-3.7635296231333997
aF3.0427935841357447
aF-3.125870524791003e-16
aF-4046.606374338738
aF-1380.134233814007
aF607.5960855926269
aF26.40568656648696
aF-25.106667717446197
aF-0.02252152353551444
aF0.1653341334204336
aF-1020.9018770832422
aF-54.99729323644454
aF69.66378626521647
aF-0.2863171319771687
aF-1.3639263978055347
aF-0.00433312230759606
aF-98.18346517541532
aF2.084125678165212
aF3.7594557777327338
aF-0.0204745616499485
aF-0.024562817483699824
aF-5.187908503261797
aF0.16881237681809347
aF0.10220884882325915
aF0.0006420426887204508
aF-0.16733400871569648
aF0.0019812022891631587
aF0.0010847499014787778
aF-0.0030728883583975727
aF-2.8101808060299447e-05
aF-2.2619515763517555e-05
aI7
aa(lp113
F19.08576003988714
aF1.482864915781768
aa(lp114
(lp115
F19.08510212994662
aF19.08641794982766
aag7
aaa(lp116
(lp117
F2.6650796301109464e-14
aF-4.3994912033241146e-13
aF-7.887805363330613e-14
aF-2.6309079760368006e-15
aF-3.1428961027345415e-15
aF2.0921348763973913e-16
aF-2.1283545594617522e-17
aF-1.1798154059225226e-32
aF-8.477669807967443e-14
aF-9.181262920387706e-14
aF-3.488317329328922e-14
aF2.4497329308392477e-16
aF1.4037914402385938e-15
aF1.6939784762670691e-18
aF-5.824076164321126e-18
aF-4.824075558253119e-14
aF-1.7868095017478688e-16
aF2.5893173560955958e-15
aF1.2593303932360698e-17
aF1.0132609011803568e-16
aF-7.572771586102211e-20
aF6.769454040104727e-16
aF-2.8415586139700434e-17
aF1.1801751510803237e-17
aF-1.0428838593117807e-18
aF8.6163517457532225e-19
aF3.9143177240177303e-17
aF-5.126535260319634e-18
aF9.553461862820193e-19
aF5.285249480209425e-20
aF3.704134937612229e-18
aF2.011366152507404e-19
aF6.445521141557816e-20
aF-1.1896059054869205e-19
aF1.2153574360206779e-21
aF2.605842105506519e-22
aa(lp118
F2920.6316208713515
aF-7290.845185768253
aF1600.0887996611978
aF373.2796946041729
aF-148.90244053297096
aF-3.7646428946140604
aF3.0433021295153013
aF1.2464948582675673e-16
aF-4050.345945167832
aF-1381.0852510833793
aF607.9448126331216
aF26.415253238659517
aF-25.11308548451595
aF-0.022520794724651187
aF0.16532434094262993
aF-1021.580335135129
aF-55.01991616440359
aF69.68774476615503
aF-0.2864190475775202
aF-1.3639662754121264
aF-0.004332566746428671
aF-98.22581280249057
aF2.084899557156988
aF3.759897258431782
aF-0.020474185810561773
aF-0.024557974997217503
aF-5.188969046997505
aF0.16882422518870505
aF0.10219774505869864
aF0.0006418717909377521
aF-0.16733053833404601
aF0.001980869803099938
aF0.0010843864631378095
aF-0.003072130900573214
aF-2.809045157040383e-05
aF-2.2608818658454453e-05
aI7
aa(lp119
F19.087075859768177
aF1.482793427094033
aa(lp120
(lp121
F19.08641794982766
aF19.087733769708695
aag7
aaa(lp122
(lp123
F7.050861887647432e-15
aF-2.8052442953306505e-13
aF-9.149499450168409e-15
aF1.719669983345511e-14
aF-4.6721287945324436e-15
aF-1.238078827946799e-16
aF-3.7313453573064246e-17
aF-6.535257847452558e-33
aF-2.1045678157455525e-13
aF8.795288112392158e-14
aF4.6085737442729585e-14
aF5.606293128172312e-16
aF7.549924084876061e-16
aF-1.1185682735705505e-18
aF-2.7441891217797697e-18
aF2.944009694413788e-14
aF9.111380049340779e-16
aF1.4462709125053147e-15
aF9.58258452745015e-18
aF-2.5833757835036613e-17
aF-1.5872473607804027e-19
aF-4.667461470487865e-15
aF-1.8749940234600377e-16
aF-1.2644652216760687e-16
aF-1.6997340703613532e-18
aF6.062512078512348e-19
aF3.127040137168687e-16
aF-8.56868900536947e-18
aF1.8435296160903845e-18
aF4.69184767795442e-20
aF1.0286232558313677e-18
aF-8.914126377777793e-20
aF7.954800362785071e-21
aF-2.1222193062296891e-19
aF1.534337989070637e-21
aF-1.118589558851767e-21
aa(lp124
F2922.943668736103
aF-7297.638965860031
aF1601.3989406632677
aF373.50782413302835
aF-148.9744260732534
aF-3.7657564049308694
aF3.043810713210823
aF2.3034327456557195e-16
aF-4054.0886144193905
aF-1382.0368429943903
aF608.2937084062856
aF26.424822579080647
aF-25.11950428948816
aF-0.02252006588118302
aF0.16531454951026997
aF-1022.2591816588453
aF-55.04254637328924
aF69.7117092311075
aF-0.28652097640857743
aF-1.364006146231798
aF-0.004332011289314727
aF-98.26817464419726
aF2.085673607419607
aF3.7603387367110424
aF-0.020473809862488458
aF-0.02455313376818604
aF-5.190029688994336
aF0.16883607197546247
aF0.10218664287590422
aF0.0006417009496196566
aF-0.1673270672092891
aF0.001980537385613881
aF0.0010840231702462714
aF-0.00307137366994006
aF-2.807910041760811e-05
aF-2.2598127320890765e-05
aI7
aa(lp125
F19.088391679649213
aF1.4827219545850883
aa(lp126
(lp127
F19.087733769708695
aF19.08904958958973
aag7
aaa(lp128
(lp129
F9.122276931848212e-14
aF-2.508975650902725e-13
aF-1.0918926759351963e-13
aF-1.931933653163116e-14
aF3.744051124513393e-15
aF-1.3761986305724728e-16
aF-2.098363424514229e-16
aF1.921460567472533e-32
aF1.8491172050561585e-13
aF-8.971751094966724e-15
aF2.2237985603505996e-14
aF9.824189770929017e-16
aF-1.1010084478957496e-15
aF-5.083087470355619e-19
aF-4.487185630319424e-18
aF-7.7037625841085e-15
aF1.793731497727853e-15
aF8.515031312549953e-16
aF1.7385415206130745e-17
aF-9.62949962570585e-17
aF2.2084163030004934e-19
aF-4.1419094468756355e-15
aF-1.9861380920069684e-16
aF-2.0135720271116287e-16
aF1.096415627821191e-18
aF2.229797852362012e-20
aF3.491441002332149e-16
aF1.262943680683295e-17
aF6.332289342108809e-18
aF2.646595893234213e-20
aF-1.763227046338213e-18
aF1.4387297579024778e-19
aF1.0693859808495177e-19
aF-2.564937127747226e-20
aF-1.391162948703894e-21
aF1.5346016170475379e-21
aa(lp130
F2925.2571706022823
aF-7304.438498711529
aF1602.7100352933232
aF373.73607404802283
aF-149.0464400858243
aF-3.766870154116889
aF3.044319335221783
aF2.9212785522137155e-16
aF-4057.834384368799
aF-1382.9890098463632
aF608.6427729786832
aF26.43439458828812
aF-25.125924132434033
aF-0.022519337005147334
aF0.16530475912321285
aF-1022.9384168413708
aF-55.065183864838865
aF69.73567966099463
aF-0.28662291846960963
aF-1.3640460102659842
aF-0.004331455936229129
aF-98.31055070395368
aF2.0864478289666795
aF3.760780212569564
aF-0.02047343380577922
aF-0.024548293796202394
aF-5.191090429249093
aF0.16884791717857098
aF0.10217554227464574
aF0.0006415301647439439
aF-0.16732359534179078
aF0.0019802050366893656
aF0.0010836600227365624
aF-0.003070616666418831
aF-2.8067754599055124e-05
aF-2.258744174733652e-05
aI7
aa(lp131
F19.08970749953025
aF1.4826504982499753
aa(lp132
(lp133
F19.08904958958973
aF19.090365409470767
aag7
aaa(lp134
(lp135
F-1.592279601076712e-13
aF2.7211392474298355e-13
aF-1.363423720416916e-14
aF1.0318656335225329e-14
aF1.1594501497514201e-14
aF2.2117457249406606e-16
aF-1.259738933729243e-16
aF-7.173347917935534e-33
aF2.126740783890893e-13
aF6.182076531666955e-14
aF-2.1846304145150775e-14
aF-2.234077600708695e-16
aF-5.910756279199973e-16
aF1.0470737961232395e-18
aF1.058241437458194e-17
aF4.818788118053727e-14
aF2.5891348427418997e-15
aF-2.3597421665650385e-15
aF1.4428761706265998e-17
aF1.0252785315597084e-16
aF-3.356620712840188e-19
aF3.554381768387757e-15
aF1.6871690968489437e-16
aF-4.369326672189692e-18
aF-1.6958135198209661e-18
aF-1.4375513132140335e-18
aF-4.0444423441553655e-16
aF9.609595683465894e-18
aF-3.7730293130498664e-18
aF5.236650706266577e-20
aF1.2814297824266329e-17
aF-1.1574586223824287e-19
aF-1.9743098140661906e-20
aF2.4413136648696408e-20
aF-1.2333275746090159e-21
aF-5.804333694085596e-22
aa(lp136
F2927.572127020053
aF-7311.243788709305
aF1604.022084159648
aF373.96444440280595
aF-149.1184825794672
aF-3.7679841422051177
aF3.0448279955476556
aF1.5188321349702708e-16
aF-4061.5832572929194
aF-1383.9417519387496
aF608.9920064168996
aF26.44396926681943
aF-25.132345013424793
aF-0.022518608096574133
aF0.1652949697813177
aF-1023.6180408697608
aF-55.087828640789375
aF69.75965605673727
aF-0.2867248737599167
aF-1.364085867516119
aF-0.004330900687146583
aF-98.35294098517863
aF2.0872222218118734
aF3.7612216860063956
aF-0.020473057640485792
aF-0.024543455080863672
aF-5.192151267758574
aF0.1688597607982382
aF0.10216444325469305
aF0.0006413594362883886
aF-0.16732012273191577
aF0.001979872756310822
aF0.0010832970205411172
aF-0.0030698598899302743
aF-2.8056414111888976e-05
aF-2.257676193430407e-05
aI7
aa(lp137
F19.091023319411285
aF1.4825790580837377
aa(lp138
(lp139
F19.090365409470767
aF19.091681229351803
aag7
aaa(lp140
(lp141
F-1.8694778697216089e-13
aF-2.5774541933930294e-13
aF-1.914830656870386e-14
aF-1.4509179333384444e-14
aF6.952152039035179e-15
aF2.928918955426912e-17
aF1.8952156171491e-16
aF3.093296660332598e-33
aF1.1549951187970883e-13
aF6.47158153617778e-14
aF-4.056293760524316e-15
aF1.1457798258427428e-15
aF-1.770479376898212e-15
aF-7.62969544257782e-19
aF-4.734460269791767e-18
aF-2.3510594151616178e-14
aF-5.550337785433889e-17
aF3.4509174039487424e-15
aF-1.7609240796088834e-18
aF-2.901624531808017e-17
aF4.1909858648646293e-19
aF9.463438033916564e-16
aF2.824330576861105e-17
aF-3.7923595398669417e-17
aF-7.237873303393243e-19
aF7.802092592130406e-19
aF-7.898604269923773e-17
aF-1.1798826444848892e-17
aF4.193542095968476e-18
aF2.834210735476798e-20
aF5.865421825018511e-19
aF9.795336676982212e-20
aF-6.215492139957846e-21
aF-5.053932564576848e-20
aF2.6221228777645585e-22
aF1.0897082370226663e-21
aa(lp142
F2929.8885385394187
aF-7318.054840242891
aF1605.3350878708573
aF374.1929352510478
aF-149.1905535629676
aF-3.7690983692285895
aF3.045336694187915
aF-1.1568603452436506e-16
aF-4065.3352354700664
aF-1384.8950695711342
aF609.3414087875401
aF26.453546615212314
aF-25.138766932531645
aF-0.02251787915549725
aF0.16528518148444368
aF-1024.2980539311422
aF-55.11048070287837
aF69.78363841925629
aF-0.2868268422787826
aF-1.3641257179836355
aF-0.004330345542041912
aF-98.3953454912914
aF2.087996785968827
aF3.7616631570205867
aF-0.02047268136665933
aF-0.02453861762176714
aF-5.193212204519583
aF0.16887160283467048
aF0.10215334581581596
aF0.0006411887642307835
aF-0.1673166493800287
aF0.0019795405444626565
aF0.001082934163592406
aF-0.00306910334039517
aF-2.8045078953255714e-05
aF-2.2566087878308123e-05
aI7
aa(lp143
F19.09233913929232
aF1.482507634081421
aa(lp144
(lp145
F19.091681229351803
aF19.092997049232842
aag7
aaa(lp146
(lp147
F5.1247633961171205e-14
aF1.4615202689071834e-13
aF6.304122842794219e-14
aF3.0310290530813254e-15
aF3.90405884588151e-15
aF-1.8199018356806086e-16
aF4.529222817780921e-18
aF5.2330381826936896e-33
aF-8.47669093997204e-14
aF9.308634162533236e-14
aF-2.6772131214936724e-15
aF-4.766980235861785e-16
aF1.1338100785145822e-15
aF-7.014825764761275e-20
aF-9.74678802060896e-19
aF6.799547643186856e-14
aF1.2481275702461422e-15
aF-4.1237905372377016e-15
aF-2.2486486630157362e-17
aF7.982437051872857e-18
aF-4.253363275737556e-19
aF5.129087650471727e-15
aF-1.821082571075676e-16
aF1.2300956375553564e-16
aF1.4107179550135483e-18
aF9.790462669407538e-19
aF3.5197916756288657e-16
aF7.544942280154748e-18
aF-1.6132338618990035e-18
aF-4.83168764289511e-20
aF-2.9139952205461285e-19
aF-1.6725686895315318e-19
aF3.998447977325186e-20
aF-1.2534499273696723e-19
aF-1.3813155582236838e-21
aF-1.5319592723261183e-22
aa(lp148
F2932.206405710287
aF-7324.871657704839
aF1606.6490470358958
aF374.421546646441
aF-149.26265304511293
aF-3.7702128352204562
aF3.045845431142037
aF2.979316896362184e-16
aF-4069.090321180006
aF-1385.8489630432446
aF609.6909801572308
aF26.46312663400524
aF-25.145189889825822
aF-0.022517150181962632
aF0.16527539423244988
aF-1024.9784562127168
aF-55.13314005284511
aF69.80762674947275
aF-0.28692882402544156
aF-1.364165561669968
aF-0.004329790500890267
aF-98.43776422571194
aF2.088771521451085
aF3.762104625611191
aF-0.020472304984349148
aF-0.024533781418510186
aF-5.194273239528932
aF0.16888344328807045
aF0.1021422499577844
aF0.0006410181485489549
aF-0.16731317528649436
aF0.001979208401129199
aF0.0010825714518229333
aF-0.0030683470177343304
aF-2.8033749120303774e-05
aF-2.255541957586567e-05
aI7
aa(lp149
F19.093654959173364
aF1.4824362262380724
aa(lp150
(lp151
F19.092997049232842
aF19.09431286911388
aag7
aaa(lp152
(lp153
F-1.529520542258374e-13
aF-6.81972856571447e-14
aF-1.186733758870977e-14
aF1.1045937735216236e-14
aF4.954060626228339e-15
aF7.448914045831133e-17
aF1.512298922839342e-16
aF-3.829987498438138e-33
aF-1.525003729512073e-14
aF-2.756565753827624e-14
aF-3.470818173234314e-14
aF1.0344078175538253e-15
aF6.147846667539856e-16
aF7.966236494281538e-19
aF1.0519626408870085e-17
aF-5.971949769894567e-14
aF-3.5202369289784448e-15
aF5.397639439348412e-15
aF2.6606591262798938e-17
aF6.509809264939396e-17
aF1.6088139208181514e-19
aF-7.943914258339977e-16
aF8.375358527401373e-17
aF1.3357394838046454e-16
aF-1.1746226928253792e-18
aF8.265873398944196e-19
aF-7.022489842231045e-18
aF-9.767975277168039e-18
aF6.908760415673275e-18
aF-5.396890458989098e-20
aF-1.3349730475158362e-17
aF8.401814254753932e-20
aF-1.977560678881022e-20
aF-1.5738904906255044e-19
aF-2.8758302053385776e-22
aF1.4642140042168493e-21
aa(lp154
F2934.525729082152
aF-7331.69424549058
aF1607.9639622640502
aF374.6502786426892
aF-149.33478103469236
aF-3.7713275402135698
aF3.046354206409493
aF2.692357079004214e-16
aF-4072.848516703987
aF-1386.8034326549089
aF610.0407205926168
aF26.472709323735025
aF-25.151613885378488
aF-0.02251642117598431
aF0.1652656080251956
aF-1025.6592479017552
aF-55.15580669242551
aF69.83162104830744
aF-0.2870308189992592
aF-1.3642053985765485
aF-0.004329235563665953
aF-98.48019719186021
aF2.089546428272429
aF3.762546091777253
aF-0.02047192849360931
aF-0.024528946470690424
aF-5.195334372783402
aF0.16889528215865054
aF0.1021311556803682
aF0.0006408475892206772
aF-0.16730970045167678
aF0.0019788763262949976
aF0.0010822088851652444
aF-0.0030675909218685986
aF-2.8022424610181553e-05
aF-2.254475702349618e-05
aI7
aa(lp155
F19.0949707790544
aF1.4823648345487417
aa(lp156
(lp157
F19.09431286911388
aF19.095628688994918
aag7
aaa(lp158
(lp159
F-7.805732568550495e-14
aF-2.218267975573535e-13
aF4.899205847840741e-14
aF-1.6079035979946814e-14
aF-1.2634417656214189e-14
aF-1.5728279708326843e-16
aF1.148580915574167e-16
aF1.7299260318846526e-32
aF1.0321080408183358e-13
aF5.938943561915725e-14
aF4.052023727996113e-14
aF-8.076992459359138e-16
aF-1.5066728861866613e-15
aF-4.287117892687834e-19
aF6.956244921362354e-18
aF-1.1039879859991905e-13
aF-6.61316906625303e-16
aF-6.021318710056379e-15
aF-1.6083439620911743e-17
aF-6.538102452515828e-17
aF-1.8349678096124649e-19
aF-4.449532196111052e-15
aF1.8188257032133124e-16
aF-2.0531701929226493e-16
aF1.1357249071168511e-18
aF2.8821181189207125e-19
aF2.9989686209712496e-16
aF1.3620369533594496e-17
aF6.7989665276470325e-18
aF-1.391926572147354e-20
aF-3.776917417641335e-18
aF7.650600703302887e-21
aF7.764948210076694e-21
aF1.0929829075892903e-19
aF-9.906490432426315e-22
aF-1.9024964458029304e-22
aa(lp160
F2936.846509204465
aF-7338.522607998638
aF1609.2798341649468
aF374.8791312935221
aF-149.40693754049767
aF-3.7724424842409565
aF3.046863019989761
aF-2.6612558517325807e-16
aF-4076.6098243247384
aF-1387.7584787061114
aF610.3906301603669
aF26.482294684939582
aF-25.158038919260893
aF-0.022515692137593774
aF0.16525582286254
aF-1026.340429185609
aF-55.178480623357956
aF69.85562131668162
aF-0.28713282719952976
aF-1.36424522870481
aF-0.004328680730343746
aF-98.52264439315726
aF2.0903215064465166
aF3.7629875555178254
aF-0.02047155189449126
aF-0.024524112777905546
aF-5.196395604279805
aF0.16890711944661782
aF0.10212006298333719
aF0.0006406770862237679
aF-0.16730622487594018
aF0.001978544319944484
aF0.0010818464635519143
aF-0.0030668350527188436
aF-2.801110542004003e-05
aF-2.2534100217721296e-05
aI7
aa(lp161
F19.096286598935436
aF1.4822934590084798
aa(lp162
(lp163
F19.095628688994918
aF19.096944508875954
aag7
aaa.